
/home/zhangxiang/Downloads/op-tee2/OP-TEE/build/../out/bios-qemu/bios.elf:     file format elf32-littlearm
/home/zhangxiang/Downloads/op-tee2/OP-TEE/build/../out/bios-qemu/bios.elf
architecture: arm, flags 0x00000112:
EXEC_P, HAS_SYMS, D_PAGED
start address 0x40100000

Program Header:
    LOAD off    0x00010000 vaddr 0x40100000 paddr 0x40100000 align 2**16
         filesz 0x00005348 memsz 0x00009360 flags rwx
   STACK off    0x00000000 vaddr 0x00000000 paddr 0x00000000 align 2**4
         filesz 0x00000000 memsz 0x00000000 flags rwx
private flags = 5000400: [Version5 EABI] [hard-float ABI]

Sections:
Idx Name          Size      VMA       LMA       File off  Algn
  0 .text         00004f80  40100000  40100000  00010000  2**2
                  CONTENTS, ALLOC, LOAD, READONLY, CODE
  1 .rodata       000003c8  40104f80  40104f80  00014f80  2**2
                  CONTENTS, ALLOC, LOAD, READONLY, DATA
  2 .bss          00004018  40105348  40105348  00015348  2**3
                  ALLOC
  3 .ARM.attributes 0000003a  00000000  00000000  00015348  2**0
                  CONTENTS, READONLY
  4 .debug_line   00002137  00000000  00000000  00015382  2**0
                  CONTENTS, READONLY, DEBUGGING
  5 .debug_info   00004933  00000000  00000000  000174b9  2**0
                  CONTENTS, READONLY, DEBUGGING
  6 .debug_abbrev 0000124e  00000000  00000000  0001bdec  2**0
                  CONTENTS, READONLY, DEBUGGING
  7 .debug_aranges 00000260  00000000  00000000  0001d040  2**3
                  CONTENTS, READONLY, DEBUGGING
  8 .debug_macro  000019f9  00000000  00000000  0001d2a0  2**0
                  CONTENTS, READONLY, DEBUGGING
  9 .debug_str    00005f99  00000000  00000000  0001ec99  2**0
                  CONTENTS, READONLY, DEBUGGING
 10 .debug_frame  000016a0  00000000  00000000  00024c34  2**2
                  CONTENTS, READONLY, DEBUGGING
SYMBOL TABLE:
40100000 l    d  .text	00000000 .text
40104f80 l    d  .rodata	00000000 .rodata
40105348 l    d  .bss	00000000 .bss
00000000 l    d  .ARM.attributes	00000000 .ARM.attributes
00000000 l    d  .debug_line	00000000 .debug_line
00000000 l    d  .debug_info	00000000 .debug_info
00000000 l    d  .debug_abbrev	00000000 .debug_abbrev
00000000 l    d  .debug_aranges	00000000 .debug_aranges
00000000 l    d  .debug_macro	00000000 .debug_macro
00000000 l    d  .debug_str	00000000 .debug_str
00000000 l    d  .debug_frame	00000000 .debug_frame
00000000 l    df *ABS*	00000000 /home/zhangxiang/Downloads/op-tee2/OP-TEE/build/../out/bios-qemu/bios/entry.o
40100020 l     F .text	0000009c reset
401000e8 l     F .text	00000028 secondary_hold
401000bc l     F .text	00000014 copy_blob
4010006c l       .text	00000000 new_loc
401000d0 l     F .text	00000018 zero_mem
00000000 l    df *ABS*	00000000 main.c
40100130 l     F .text	00000054 cpu_to_fdt32
40100184 l     F .text	0000004e fdt_setprop_u32
401001d2 l     F .text	00000028 fdt_setprop_cell
40109350 l     O .bss	00000004 kernel_entry
40109354 l     O .bss	00000004 dtb_addr
40109358 l     O .bss	00000004 rootfs_start
4010935c l     O .bss	00000004 rootfs_end
40105348 l     O .bss	00004008 main_stack
401001fa l     F .text	0000001a msg_init
40104f84 l       .rodata	00000000 .LC0
401002a8 l     F .text	00000022 check
40104f98 l       .rodata	00000000 .LC1
40104fb8 l       .rodata	00000000 .LC2
40104fc4 l       .rodata	00000000 .LC3
401002ca l     F .text	0000005c open_fdt
40104fcc l       .rodata	00000000 .LC4
40100326 l     F .text	00000060 copy_dtb
40104ff4 l       .rodata	00000000 .LC5
40104ffc l       .rodata	00000000 .LC6
40100386 l     F .text	00000116 copy_ns_images
4010500c l       .rodata	00000000 .LC7
40105020 l       .rodata	00000000 .LC8
4010505c l       .rodata	00000000 .LC9
40105074 l       .rodata	00000000 .LC10
40105094 l       .rodata	00000000 .LC11
401050d0 l       .rodata	00000000 .LC12
40105100 l       .rodata	00000000 .LC13
40105114 l       .rodata	00000000 .LC14
40105144 l       .rodata	00000000 .LC15
40105164 l       .rodata	00000000 .LC16
40105178 l       .rodata	00000000 .LC17
40105194 l       .rodata	00000000 .LC18
401006c4 l     F .text	00000074 setprop_cell
40100738 l     F .text	0000009a setprop_string
401051a0 l       .rodata	00000000 .LC20
401051b4 l       .rodata	00000000 .LC21
401051bc l       .rodata	00000000 .LC22
401051d0 l       .rodata	00000000 .LC23
401051dc l       .rodata	00000000 .LC24
401051f8 l       .rodata	00000000 .LC25
40105230 l       .rodata	00000000 .LC19
401007d2 l     F .text	00000126 call_kernel
00000000 l    df *ABS*	00000000 semihosting.c
40100930 l     F .text	00000008 _assert_break
40105284 l       .rodata	00000000 .LC0
40100938 l     F .text	0000003c _assert_log
40105294 l       .rodata	00000000 .LC1
401052a8 l       .rodata	00000000 .LC2
00000000 l    df *ABS*	00000000 /home/zhangxiang/Downloads/op-tee2/OP-TEE/build/../out/bios-qemu/bios/semihosting_call.o
00000000 l    df *ABS*	00000000 uart.c
40100d34 l     F .text	00000020 write32
40100d54 l     F .text	0000001c read32
00000000 l    df *ABS*	00000000 fdt_ro.c
40100e90 l     F .text	00000054 fdt32_to_cpu
40100ee4 l     F .text	00000154 fdt64_to_cpu
40101038 l     F .text	0000002a _fdt_offset_ptr
40101062 l     F .text	00000032 _fdt_mem_rsv
40101094 l     F .text	000000a4 _fdt_nodename_eq
40101162 l     F .text	0000005a _fdt_string_eq
4010128e l     F .text	00000058 _nextprop
401052cc l       .rodata	00000000 .LC0
401052d4 l       .rodata	00000000 .LC1
401052e4 l       .rodata	00000000 .LC2
401052f0 l       .rodata	00000000 .LC3
00000000 l    df *ABS*	00000000 fdt_rw.c
40101dc6 l     F .text	00000054 fdt32_to_cpu
40101e1a l     F .text	00000054 cpu_to_fdt32
40101e6e l     F .text	00000154 cpu_to_fdt64
40101fc2 l     F .text	00000026 fdt_set_magic
40101fe8 l     F .text	00000026 fdt_set_totalsize
4010200e l     F .text	00000026 fdt_set_off_dt_struct
40102034 l     F .text	00000026 fdt_set_off_dt_strings
4010205a l     F .text	00000026 fdt_set_off_mem_rsvmap
40102080 l     F .text	00000026 fdt_set_version
401020a6 l     F .text	00000026 fdt_set_last_comp_version
401020cc l     F .text	00000026 fdt_set_boot_cpuid_phys
401020f2 l     F .text	00000026 fdt_set_size_dt_strings
40102118 l     F .text	00000026 fdt_set_size_dt_struct
4010213e l     F .text	0000003a fdt_get_property_w
40102178 l     F .text	0000002a _fdt_offset_ptr
401021a2 l     F .text	00000020 _fdt_offset_ptr_w
401021c2 l     F .text	00000032 _fdt_mem_rsv
401021f4 l     F .text	00000020 _fdt_mem_rsv_w
40102214 l     F .text	000000a6 _fdt_blocks_misordered
401022ba l     F .text	00000084 _fdt_rw_check_header
4010233e l     F .text	0000003a _fdt_data_size
40102378 l     F .text	000000ae _fdt_splice
40102426 l     F .text	0000007e _fdt_splice_mem_rsv
401024a4 l     F .text	00000070 _fdt_splice_struct
40102514 l     F .text	00000078 _fdt_splice_string
4010258c l     F .text	000000aa _fdt_find_add_string
40102734 l     F .text	00000088 _fdt_resize_property
401027bc l     F .text	000000c2 _fdt_add_property
40102ca8 l     F .text	000000fc _fdt_packblocks
00000000 l    df *ABS*	00000000 fdt_wip.c
40102fd2 l     F .text	00000054 cpu_to_fdt32
40103026 l     F .text	0000002c fdt_offset_ptr_w
40103052 l     F .text	0000003a fdt_get_property_w
4010308c l     F .text	0000003a fdt_getprop_w
4010311e l     F .text	0000003e _fdt_nop_region
00000000 l    df *ABS*	00000000 fdt.c
4010322c l     F .text	00000054 fdt32_to_cpu
40103280 l     F .text	0000002a _fdt_offset_ptr
00000000 l    df *ABS*	00000000 snprintf.c
401052fc l     O .rodata	00000011 hexdigits
40105310 l     O .rodata	00000011 HEXDIGITS
4010383e l     F .text	00000d46 kprintf
40105324 l       .rodata	00000000 .LC0
4010532c l       .rodata	00000000 .LC1
00000000 l    df *ABS*	00000000 memchr.c
00000000 l    df *ABS*	00000000 memcmp.c
00000000 l    df *ABS*	00000000 memcpy.c
00000000 l    df *ABS*	00000000 memmove.c
00000000 l    df *ABS*	00000000 memset.c
00000000 l    df *ABS*	00000000 strlen.c
00000000 l    df *ABS*	00000000 strchr.c
00000000 l    df *ABS*	00000000 aeabi_ldivmod_asm.o
00000000 l    df *ABS*	00000000 aeabi_ldivmod.c
40104cd0 l     F .text	000000ee division_lqr
40104dbe l     F .text	0000006a ul_div_qr
4010333a g     F .text	0000007c fdt_offset_ptr
40104e9a g     F .text	000000e6 __l_divmod
40100b60 g     F .text	00000022 semihosting_read_char
401031a0 g     F .text	00000042 _fdt_node_end_offset
401016bc g     F .text	0000003e fdt_getprop_namelen
40101526 g     F .text	0000003a fdt_first_property_offset
40104842 g     F .text	0000013e memmove
40101aec g     F .text	0000003e fdt_parent_offset
4010379c g     F .text	00000036 snprintf
40104f80 g       .text	00000000 __exidx_end
40100aa2 g     F .text	0000006a semihosting_file_write
40101680 g     F .text	0000003c fdt_get_property
4010139e g     F .text	00000104 fdt_path_offset
40100d2c g     F .text	00000008 semihosting_call
4010291a g     F .text	00000080 fdt_setprop
4010373a g     F .text	00000062 fdt_move
40100000 g       .text	00000000 __text_start
40105348 g       .rodata	00000000 __ctor_list
40101d3c g     F .text	0000008a fdt_node_offset_by_compatible
40100bd0 g     F .text	0000003e semihosting_system
40104750 g     F .text	000000f2 memcpy
40101b2a g     F .text	0000009e fdt_node_offset_by_prop_value
40104cac g       .text	00000000 __aeabi_uldivmod
40102a80 g     F .text	00000064 fdt_delprop
40105348 g       .rodata	00000000 __rodata_end
401037d2 g     F .text	0000006c vsnprintf
401012e6 g     F .text	00000086 fdt_subnode_offset_namelen
40101aac g     F .text	00000040 fdt_node_depth
40100214 g     F .text	00000094 msg
4010123e g     F .text	00000050 fdt_num_mem_rsv
40109360 g       .bss	00000000 _end_of_ram
4010159a g     F .text	00000064 fdt_get_property_by_offset
401008f8 g     F .text	00000038 main_init_ns
40104f80 g       .text	00000000 __exidx_start
40109360 g       .bss	00000000 __bss_end
401036ca g     F .text	00000070 _fdt_find_string
40104f80 g     O .rodata	00000004 main_stack_top
4010315c g     F .text	00000044 fdt_nop_property
40105345 g       .rodata	00000000 __stop_ta_head_section
40101752 g     F .text	0000003c fdt_getprop
401030c6 g     F .text	00000058 fdt_setprop_inplace
40100988 g     F .text	00000044 semihosting_file_open
40100e5e g     F .text	00000032 uart_getchar
40104e28 g     F .text	00000072 __ul_divmod
40101c52 g     F .text	00000096 fdt_stringlist_contains
40102f6a g     F .text	00000068 fdt_pack
40103522 g     F .text	00000040 _fdt_check_prop_offset
4010136c g     F .text	00000032 fdt_subnode_offset
401009cc g     F .text	00000050 semihosting_file_seek
40100b82 g     F .text	0000002a semihosting_write_char
40100d9c g     F .text	0000005a uart_init
40104584 g     F .text	00000114 memchr
401019e0 g     F .text	000000cc fdt_supernode_atdepth_offset
40100000 g     F .text	00000020 _start
40104f80 g       .rodata	00000000 __rodata_start
40103684 g     F .text	00000046 fdt_next_subnode
40100b36 g     F .text	0000002a semihosting_file_length
40105348 g       .rodata	00000000 __dtor_end
40105348 g       .rodata	00000000 __data_end
40100d70 g     F .text	0000002c uart_flush_tx_fifo
40104698 g     F .text	000000b8 memcmp
40101560 g     F .text	0000003a fdt_next_property_offset
40102636 g     F .text	00000092 fdt_add_mem_rsv
40104f80 g       .text	00000000 __text_end
401015fe g     F .text	00000082 fdt_get_property_namelen
40101bc8 g     F .text	0000008a fdt_node_offset_by_phandle
40105348 g       .rodata	00000000 __ctor_end
401031e2 g     F .text	00000048 fdt_nop_node
40109350 g       .bss	00000000 __bss_start
40104980 g     F .text	0000011c memset
40102c16 g     F .text	00000032 fdt_add_subnode
401034e2 g     F .text	00000040 _fdt_check_node_offset
40100df6 g     F .text	00000038 uart_putc
4010299a g     F .text	000000e6 fdt_appendprop
40101842 g     F .text	00000030 fdt_get_alias
4010178e g     F .text	0000006c fdt_get_phandle
40102da4 g     F .text	000001c6 fdt_open_into
40102c48 g     F .text	00000060 fdt_del_node
4010287e g     F .text	0000009c fdt_set_name
40100bac g     F .text	00000024 semihosting_write_string
401032aa g     F .text	00000090 fdt_check_header
40105348 g       .rodata	00000000 __data_start_rom
401014a2 g     F .text	00000084 fdt_get_name
40100b0c g     F .text	0000002a semihosting_file_close
40103644 g     F .text	00000040 fdt_first_subnode
40102ae4 g     F .text	00000132 fdt_add_subnode_namelen
40100c0e g     F .text	00000070 semihosting_get_flen
40105348 g       .rodata	00000000 __dtor_list
40103562 g     F .text	000000e2 fdt_next_node
40100974 g     F .text	00000014 semihosting_connection_supported
40109360 g       .bss	00000000 _end
40100c7e g     F .text	000000ae semihosting_download_file
4010049c g     F .text	00000228 main_init_sec
40101138 g     F .text	0000002a fdt_string
401033b6 g     F .text	0000012c fdt_next_tag
401017fa g     F .text	00000048 fdt_get_alias_namelen
40100e2e g     F .text	00000030 uart_have_rx_data
40104a9c g     F .text	0000008a strlen
40105345 g       .rodata	00000000 __start_ta_head_section
40104b26 g     F .text	00000168 strchr
40105348 g       .rodata	00000000 __data_start
40101ce8 g     F .text	00000054 fdt_node_check_compatible
40104c90 g       .text	00000000 __aeabi_ldivmod
401016fa g     F .text	00000058 fdt_getprop_by_offset
401011bc g     F .text	00000082 fdt_get_mem_rsv
40101872 g     F .text	0000016e fdt_get_path
401026c8 g     F .text	0000006c fdt_del_mem_rsv
40100a1c g     F .text	00000086 semihosting_file_read



Disassembly of section .text:

40100000 <_start>:
_start():
/home/zhangxiang/Downloads/op-tee2/OP-TEE/bios_qemu_tz_arm/bios/entry.S:36
40100000:	ea000006 	b	40100020 <reset>
/home/zhangxiang/Downloads/op-tee2/OP-TEE/bios_qemu_tz_arm/bios/entry.S:37
40100004:	eafffffe 	b	40100004 <_start+0x4>
/home/zhangxiang/Downloads/op-tee2/OP-TEE/bios_qemu_tz_arm/bios/entry.S:38
40100008:	eafffffe 	b	40100008 <_start+0x8>
/home/zhangxiang/Downloads/op-tee2/OP-TEE/bios_qemu_tz_arm/bios/entry.S:39
4010000c:	eafffffe 	b	4010000c <_start+0xc>
/home/zhangxiang/Downloads/op-tee2/OP-TEE/bios_qemu_tz_arm/bios/entry.S:40
40100010:	eafffffe 	b	40100010 <_start+0x10>
/home/zhangxiang/Downloads/op-tee2/OP-TEE/bios_qemu_tz_arm/bios/entry.S:41
40100014:	eafffffe 	b	40100014 <_start+0x14>
/home/zhangxiang/Downloads/op-tee2/OP-TEE/bios_qemu_tz_arm/bios/entry.S:42
40100018:	eafffffe 	b	40100018 <_start+0x18>
/home/zhangxiang/Downloads/op-tee2/OP-TEE/bios_qemu_tz_arm/bios/entry.S:43
4010001c:	eafffffe 	b	4010001c <_start+0x1c>

40100020 <reset>:
reset():
/home/zhangxiang/Downloads/op-tee2/OP-TEE/bios_qemu_tz_arm/bios/entry.S:52
40100020:	ee110f10 	mrc	15, 0, r0, cr1, cr0, {0}
/home/zhangxiang/Downloads/op-tee2/OP-TEE/bios_qemu_tz_arm/bios/entry.S:53
40100024:	e3800002 	orr	r0, r0, #2
/home/zhangxiang/Downloads/op-tee2/OP-TEE/bios_qemu_tz_arm/bios/entry.S:54
40100028:	ee010f10 	mcr	15, 0, r0, cr1, cr0, {0}
/home/zhangxiang/Downloads/op-tee2/OP-TEE/bios_qemu_tz_arm/bios/entry.S:55
4010002c:	f57ff06f 	isb	sy
/home/zhangxiang/Downloads/op-tee2/OP-TEE/bios_qemu_tz_arm/bios/entry.S:58
40100030:	e24f0038 	sub	r0, pc, #56	; 0x38
/home/zhangxiang/Downloads/op-tee2/OP-TEE/bios_qemu_tz_arm/bios/entry.S:59
40100034:	ee0c0f10 	mcr	15, 0, r0, cr12, cr0, {0}
/home/zhangxiang/Downloads/op-tee2/OP-TEE/bios_qemu_tz_arm/bios/entry.S:62
40100038:	ee100fb0 	mrc	15, 0, r0, cr0, cr0, {5}
/home/zhangxiang/Downloads/op-tee2/OP-TEE/bios_qemu_tz_arm/bios/entry.S:64
4010003c:	e20010ff 	and	r1, r0, #255	; 0xff
/home/zhangxiang/Downloads/op-tee2/OP-TEE/bios_qemu_tz_arm/bios/entry.S:65
40100040:	e2000cff 	and	r0, r0, #65280	; 0xff00
/home/zhangxiang/Downloads/op-tee2/OP-TEE/bios_qemu_tz_arm/bios/entry.S:66
40100044:	e0810320 	add	r0, r1, r0, lsr #6
/home/zhangxiang/Downloads/op-tee2/OP-TEE/bios_qemu_tz_arm/bios/entry.S:67
40100048:	e3500000 	cmp	r0, #0
/home/zhangxiang/Downloads/op-tee2/OP-TEE/bios_qemu_tz_arm/bios/entry.S:68
4010004c:	1a000025 	bne	401000e8 <secondary_hold>
/home/zhangxiang/Downloads/op-tee2/OP-TEE/bios_qemu_tz_arm/bios/entry.S:71
40100050:	e3a00000 	mov	r0, #0
/home/zhangxiang/Downloads/op-tee2/OP-TEE/bios_qemu_tz_arm/bios/entry.S:72
40100054:	e59f10b4 	ldr	r1, [pc, #180]	; 40100110 <secondary_hold+0x28>
/home/zhangxiang/Downloads/op-tee2/OP-TEE/bios_qemu_tz_arm/bios/entry.S:73
40100058:	e59f20b4 	ldr	r2, [pc, #180]	; 40100114 <secondary_hold+0x2c>
/home/zhangxiang/Downloads/op-tee2/OP-TEE/bios_qemu_tz_arm/bios/entry.S:74
4010005c:	e0422001 	sub	r2, r2, r1
/home/zhangxiang/Downloads/op-tee2/OP-TEE/bios_qemu_tz_arm/bios/entry.S:75
40100060:	eb000015 	bl	401000bc <copy_blob>
/home/zhangxiang/Downloads/op-tee2/OP-TEE/bios_qemu_tz_arm/bios/entry.S:78
40100064:	e59fc0ac 	ldr	ip, [pc, #172]	; 40100118 <secondary_hold+0x30>
/home/zhangxiang/Downloads/op-tee2/OP-TEE/bios_qemu_tz_arm/bios/entry.S:79
40100068:	e12fff1c 	bx	ip

4010006c <new_loc>:
new_loc():
/home/zhangxiang/Downloads/op-tee2/OP-TEE/bios_qemu_tz_arm/bios/entry.S:83
4010006c:	e24f0074 	sub	r0, pc, #116	; 0x74
/home/zhangxiang/Downloads/op-tee2/OP-TEE/bios_qemu_tz_arm/bios/entry.S:84
40100070:	ee0c0f10 	mcr	15, 0, r0, cr12, cr0, {0}
/home/zhangxiang/Downloads/op-tee2/OP-TEE/bios_qemu_tz_arm/bios/entry.S:87
40100074:	e59f00a0 	ldr	r0, [pc, #160]	; 4010011c <secondary_hold+0x34>
/home/zhangxiang/Downloads/op-tee2/OP-TEE/bios_qemu_tz_arm/bios/entry.S:88
40100078:	e59f10a0 	ldr	r1, [pc, #160]	; 40100120 <secondary_hold+0x38>
/home/zhangxiang/Downloads/op-tee2/OP-TEE/bios_qemu_tz_arm/bios/entry.S:89
4010007c:	e0411000 	sub	r1, r1, r0
/home/zhangxiang/Downloads/op-tee2/OP-TEE/bios_qemu_tz_arm/bios/entry.S:90
40100080:	eb000012 	bl	401000d0 <zero_mem>
/home/zhangxiang/Downloads/op-tee2/OP-TEE/bios_qemu_tz_arm/bios/entry.S:93
40100084:	e59fc098 	ldr	ip, [pc, #152]	; 40100124 <secondary_hold+0x3c>
/home/zhangxiang/Downloads/op-tee2/OP-TEE/bios_qemu_tz_arm/bios/entry.S:94
40100088:	e59cd000 	ldr	sp, [ip]
/home/zhangxiang/Downloads/op-tee2/OP-TEE/bios_qemu_tz_arm/bios/entry.S:96
4010008c:	e92d0007 	push	{r0, r1, r2}
/home/zhangxiang/Downloads/op-tee2/OP-TEE/bios_qemu_tz_arm/bios/entry.S:97
40100090:	e1a0000d 	mov	r0, sp
/home/zhangxiang/Downloads/op-tee2/OP-TEE/bios_qemu_tz_arm/bios/entry.S:98
40100094:	e59fc08c 	ldr	ip, [pc, #140]	; 40100128 <secondary_hold+0x40>
/home/zhangxiang/Downloads/op-tee2/OP-TEE/bios_qemu_tz_arm/bios/entry.S:99
40100098:	e12fff3c 	blx	ip
/home/zhangxiang/Downloads/op-tee2/OP-TEE/bios_qemu_tz_arm/bios/entry.S:100
4010009c:	e8bd0007 	pop	{r0, r1, r2}
/home/zhangxiang/Downloads/op-tee2/OP-TEE/bios_qemu_tz_arm/bios/entry.S:101
401000a0:	e1a0c000 	mov	ip, r0
/home/zhangxiang/Downloads/op-tee2/OP-TEE/bios_qemu_tz_arm/bios/entry.S:102
401000a4:	e1a00001 	mov	r0, r1
/home/zhangxiang/Downloads/op-tee2/OP-TEE/bios_qemu_tz_arm/bios/entry.S:103
401000a8:	e12fff3c 	blx	ip
/home/zhangxiang/Downloads/op-tee2/OP-TEE/bios_qemu_tz_arm/bios/entry.S:109
401000ac:	e59fc070 	ldr	ip, [pc, #112]	; 40100124 <secondary_hold+0x3c>
/home/zhangxiang/Downloads/op-tee2/OP-TEE/bios_qemu_tz_arm/bios/entry.S:110
401000b0:	e59cd000 	ldr	sp, [ip]
/home/zhangxiang/Downloads/op-tee2/OP-TEE/bios_qemu_tz_arm/bios/entry.S:112
401000b4:	e59fc070 	ldr	ip, [pc, #112]	; 4010012c <secondary_hold+0x44>
/home/zhangxiang/Downloads/op-tee2/OP-TEE/bios_qemu_tz_arm/bios/entry.S:113
401000b8:	e12fff1c 	bx	ip

401000bc <copy_blob>:
copy_blob():
/home/zhangxiang/Downloads/op-tee2/OP-TEE/bios_qemu_tz_arm/bios/entry.S:117
401000bc:	e4d04001 	ldrb	r4, [r0], #1
/home/zhangxiang/Downloads/op-tee2/OP-TEE/bios_qemu_tz_arm/bios/entry.S:118
401000c0:	e4c14001 	strb	r4, [r1], #1
/home/zhangxiang/Downloads/op-tee2/OP-TEE/bios_qemu_tz_arm/bios/entry.S:119
401000c4:	e2522001 	subs	r2, r2, #1
/home/zhangxiang/Downloads/op-tee2/OP-TEE/bios_qemu_tz_arm/bios/entry.S:120
401000c8:	1afffffb 	bne	401000bc <copy_blob>
/home/zhangxiang/Downloads/op-tee2/OP-TEE/bios_qemu_tz_arm/bios/entry.S:121
401000cc:	e12fff1e 	bx	lr

401000d0 <zero_mem>:
zero_mem():
/home/zhangxiang/Downloads/op-tee2/OP-TEE/bios_qemu_tz_arm/bios/entry.S:125
401000d0:	e3510000 	cmp	r1, #0
/home/zhangxiang/Downloads/op-tee2/OP-TEE/bios_qemu_tz_arm/bios/entry.S:126
401000d4:	012fff1e 	bxeq	lr
/home/zhangxiang/Downloads/op-tee2/OP-TEE/bios_qemu_tz_arm/bios/entry.S:127
401000d8:	e3a04000 	mov	r4, #0
/home/zhangxiang/Downloads/op-tee2/OP-TEE/bios_qemu_tz_arm/bios/entry.S:128
401000dc:	e4c04001 	strb	r4, [r0], #1
/home/zhangxiang/Downloads/op-tee2/OP-TEE/bios_qemu_tz_arm/bios/entry.S:129
401000e0:	e2411001 	sub	r1, r1, #1
/home/zhangxiang/Downloads/op-tee2/OP-TEE/bios_qemu_tz_arm/bios/entry.S:130
401000e4:	eafffff9 	b	401000d0 <zero_mem>

401000e8 <secondary_hold>:
secondary_hold():
/home/zhangxiang/Downloads/op-tee2/OP-TEE/bios_qemu_tz_arm/bios/entry.S:134
401000e8:	e3001000 	movw	r1, #0
401000ec:	e3401e00 	movt	r1, #3584	; 0xe00
/home/zhangxiang/Downloads/op-tee2/OP-TEE/bios_qemu_tz_arm/bios/entry.S:135
401000f0:	e0810100 	add	r0, r1, r0, lsl #2
/home/zhangxiang/Downloads/op-tee2/OP-TEE/bios_qemu_tz_arm/bios/entry.S:136
401000f4:	e3a01000 	mov	r1, #0
/home/zhangxiang/Downloads/op-tee2/OP-TEE/bios_qemu_tz_arm/bios/entry.S:137
401000f8:	e5801000 	str	r1, [r0]
/home/zhangxiang/Downloads/op-tee2/OP-TEE/bios_qemu_tz_arm/bios/entry.S:139
401000fc:	e5901000 	ldr	r1, [r0]
/home/zhangxiang/Downloads/op-tee2/OP-TEE/bios_qemu_tz_arm/bios/entry.S:140
40100100:	e3510000 	cmp	r1, #0
/home/zhangxiang/Downloads/op-tee2/OP-TEE/bios_qemu_tz_arm/bios/entry.S:141
40100104:	0320f002 	wfeeq
/home/zhangxiang/Downloads/op-tee2/OP-TEE/bios_qemu_tz_arm/bios/entry.S:142
40100108:	0afffffb 	beq	401000fc <secondary_hold+0x14>
/home/zhangxiang/Downloads/op-tee2/OP-TEE/bios_qemu_tz_arm/bios/entry.S:143
4010010c:	e12fff11 	bx	r1
/home/zhangxiang/Downloads/op-tee2/OP-TEE/bios_qemu_tz_arm/bios/entry.S:72
40100110:	40100000 	.word	0x40100000
/home/zhangxiang/Downloads/op-tee2/OP-TEE/bios_qemu_tz_arm/bios/entry.S:73
40100114:	40105348 	.word	0x40105348
/home/zhangxiang/Downloads/op-tee2/OP-TEE/bios_qemu_tz_arm/bios/entry.S:78
40100118:	4010006c 	.word	0x4010006c
/home/zhangxiang/Downloads/op-tee2/OP-TEE/bios_qemu_tz_arm/bios/entry.S:87
4010011c:	40109350 	.word	0x40109350
/home/zhangxiang/Downloads/op-tee2/OP-TEE/bios_qemu_tz_arm/bios/entry.S:88
40100120:	40109360 	.word	0x40109360
/home/zhangxiang/Downloads/op-tee2/OP-TEE/bios_qemu_tz_arm/bios/entry.S:93
40100124:	40104f80 	.word	0x40104f80
/home/zhangxiang/Downloads/op-tee2/OP-TEE/bios_qemu_tz_arm/bios/entry.S:98
40100128:	4010049d 	.word	0x4010049d
/home/zhangxiang/Downloads/op-tee2/OP-TEE/bios_qemu_tz_arm/bios/entry.S:112
4010012c:	401008f9 	.word	0x401008f9

40100130 <cpu_to_fdt32>:
cpu_to_fdt32():
/home/zhangxiang/Downloads/op-tee2/OP-TEE/bios_qemu_tz_arm/libfdt/include/./libfdt_env.h:94
40100130:	f84d 7d04 	str.w	r7, [sp, #-4]!
40100134:	b083      	sub	sp, #12
40100136:	af00      	add	r7, sp, #0
40100138:	6078      	str	r0, [r7, #4]
/home/zhangxiang/Downloads/op-tee2/OP-TEE/bios_qemu_tz_arm/libfdt/include/./libfdt_env.h:95
4010013a:	f107 0304 	add.w	r3, r7, #4
4010013e:	781b      	ldrb	r3, [r3, #0]
40100140:	ea4f 6203 	mov.w	r2, r3, lsl #24
40100144:	f107 0304 	add.w	r3, r7, #4
40100148:	f103 0301 	add.w	r3, r3, #1
4010014c:	781b      	ldrb	r3, [r3, #0]
4010014e:	ea4f 4303 	mov.w	r3, r3, lsl #16
40100152:	ea42 0203 	orr.w	r2, r2, r3
40100156:	f107 0304 	add.w	r3, r7, #4
4010015a:	f103 0302 	add.w	r3, r3, #2
4010015e:	781b      	ldrb	r3, [r3, #0]
40100160:	ea4f 2303 	mov.w	r3, r3, lsl #8
40100164:	ea42 0203 	orr.w	r2, r2, r3
40100168:	f107 0304 	add.w	r3, r7, #4
4010016c:	f103 0303 	add.w	r3, r3, #3
40100170:	781b      	ldrb	r3, [r3, #0]
40100172:	ea43 0302 	orr.w	r3, r3, r2
/home/zhangxiang/Downloads/op-tee2/OP-TEE/bios_qemu_tz_arm/libfdt/include/./libfdt_env.h:96
40100176:	4618      	mov	r0, r3
40100178:	f107 070c 	add.w	r7, r7, #12
4010017c:	46bd      	mov	sp, r7
4010017e:	f85d 7b04 	ldr.w	r7, [sp], #4
40100182:	4770      	bx	lr

40100184 <fdt_setprop_u32>:
fdt_setprop_u32():
/home/zhangxiang/Downloads/op-tee2/OP-TEE/bios_qemu_tz_arm/libfdt/include/./libfdt.h:1192
40100184:	f84d 4d0c 	str.w	r4, [sp, #-12]!
40100188:	e9cd 7e01 	strd	r7, lr, [sp, #4]
4010018c:	b089      	sub	sp, #36	; 0x24
4010018e:	af02      	add	r7, sp, #8
40100190:	60f8      	str	r0, [r7, #12]
40100192:	60b9      	str	r1, [r7, #8]
40100194:	607a      	str	r2, [r7, #4]
40100196:	603b      	str	r3, [r7, #0]
/home/zhangxiang/Downloads/op-tee2/OP-TEE/bios_qemu_tz_arm/libfdt/include/./libfdt.h:1193
40100198:	6838      	ldr	r0, [r7, #0]
4010019a:	f7ff ffc9 	bl	40100130 <cpu_to_fdt32>
4010019e:	4603      	mov	r3, r0
401001a0:	617b      	str	r3, [r7, #20]
/home/zhangxiang/Downloads/op-tee2/OP-TEE/bios_qemu_tz_arm/libfdt/include/./libfdt.h:1194
401001a2:	f107 0214 	add.w	r2, r7, #20
401001a6:	f04f 0304 	mov.w	r3, #4
401001aa:	9300      	str	r3, [sp, #0]
401001ac:	4613      	mov	r3, r2
401001ae:	687a      	ldr	r2, [r7, #4]
401001b0:	68b9      	ldr	r1, [r7, #8]
401001b2:	68f8      	ldr	r0, [r7, #12]
401001b4:	f642 141b 	movw	r4, #10523	; 0x291b
401001b8:	f2c4 0410 	movt	r4, #16400	; 0x4010
401001bc:	47a0      	blx	r4
401001be:	4603      	mov	r3, r0
/home/zhangxiang/Downloads/op-tee2/OP-TEE/bios_qemu_tz_arm/libfdt/include/./libfdt.h:1195
401001c0:	4618      	mov	r0, r3
401001c2:	f107 071c 	add.w	r7, r7, #28
401001c6:	46bd      	mov	sp, r7
401001c8:	e9dd 4700 	ldrd	r4, r7, [sp]
401001cc:	b002      	add	sp, #8
401001ce:	f85d fb04 	ldr.w	pc, [sp], #4

401001d2 <fdt_setprop_cell>:
fdt_setprop_cell():
/home/zhangxiang/Downloads/op-tee2/OP-TEE/bios_qemu_tz_arm/libfdt/include/./libfdt.h:1239
401001d2:	e96d 7e02 	strd	r7, lr, [sp, #-8]!
401001d6:	b084      	sub	sp, #16
401001d8:	af00      	add	r7, sp, #0
401001da:	60f8      	str	r0, [r7, #12]
401001dc:	60b9      	str	r1, [r7, #8]
401001de:	607a      	str	r2, [r7, #4]
401001e0:	603b      	str	r3, [r7, #0]
/home/zhangxiang/Downloads/op-tee2/OP-TEE/bios_qemu_tz_arm/libfdt/include/./libfdt.h:1240
401001e2:	683b      	ldr	r3, [r7, #0]
401001e4:	687a      	ldr	r2, [r7, #4]
401001e6:	68b9      	ldr	r1, [r7, #8]
401001e8:	68f8      	ldr	r0, [r7, #12]
401001ea:	f7ff ffcb 	bl	40100184 <fdt_setprop_u32>
401001ee:	4603      	mov	r3, r0
/home/zhangxiang/Downloads/op-tee2/OP-TEE/bios_qemu_tz_arm/libfdt/include/./libfdt.h:1241
401001f0:	4618      	mov	r0, r3
401001f2:	f107 0710 	add.w	r7, r7, #16
401001f6:	46bd      	mov	sp, r7
401001f8:	bd80      	pop	{r7, pc}

401001fa <msg_init>:
msg_init():
/home/zhangxiang/Downloads/op-tee2/OP-TEE/bios_qemu_tz_arm/bios/main.c:76
401001fa:	e96d 7e02 	strd	r7, lr, [sp, #-8]!
401001fe:	af00      	add	r7, sp, #0
/home/zhangxiang/Downloads/op-tee2/OP-TEE/bios_qemu_tz_arm/bios/main.c:77
40100200:	f04f 6010 	mov.w	r0, #150994944	; 0x9000000
40100204:	f640 539d 	movw	r3, #3485	; 0xd9d
40100208:	f2c4 0310 	movt	r3, #16400	; 0x4010
4010020c:	4798      	blx	r3
/home/zhangxiang/Downloads/op-tee2/OP-TEE/bios_qemu_tz_arm/bios/main.c:78
4010020e:	bf00      	nop
40100210:	46bd      	mov	sp, r7
40100212:	bd80      	pop	{r7, pc}

40100214 <msg>:
msg():
/home/zhangxiang/Downloads/op-tee2/OP-TEE/bios_qemu_tz_arm/bios/main.c:81
40100214:	b40f      	push	{r0, r1, r2, r3}
40100216:	f84d 4d0c 	str.w	r4, [sp, #-12]!
4010021a:	e9cd 7e01 	strd	r7, lr, [sp, #4]
4010021e:	b0a3      	sub	sp, #140	; 0x8c
40100220:	af00      	add	r7, sp, #0
/home/zhangxiang/Downloads/op-tee2/OP-TEE/bios_qemu_tz_arm/bios/main.c:86
40100222:	f107 039c 	add.w	r3, r7, #156	; 0x9c
40100226:	f8c7 3080 	str.w	r3, [r7, #128]	; 0x80
/home/zhangxiang/Downloads/op-tee2/OP-TEE/bios_qemu_tz_arm/bios/main.c:87
4010022a:	4638      	mov	r0, r7
4010022c:	f8d7 3080 	ldr.w	r3, [r7, #128]	; 0x80
40100230:	f8d7 2098 	ldr.w	r2, [r7, #152]	; 0x98
40100234:	f04f 0180 	mov.w	r1, #128	; 0x80
40100238:	f243 74d3 	movw	r4, #14291	; 0x37d3
4010023c:	f2c4 0410 	movt	r4, #16400	; 0x4010
40100240:	47a0      	blx	r4
/home/zhangxiang/Downloads/op-tee2/OP-TEE/bios_qemu_tz_arm/bios/main.c:90
40100242:	463b      	mov	r3, r7
40100244:	f8c7 3084 	str.w	r3, [r7, #132]	; 0x84
40100248:	e01e      	b.n	40100288 <msg+0x74>
/home/zhangxiang/Downloads/op-tee2/OP-TEE/bios_qemu_tz_arm/bios/main.c:91
4010024a:	f8d7 3084 	ldr.w	r3, [r7, #132]	; 0x84
4010024e:	781b      	ldrb	r3, [r3, #0]
40100250:	f04f 6110 	mov.w	r1, #150994944	; 0x9000000
40100254:	4618      	mov	r0, r3
40100256:	f640 53f7 	movw	r3, #3575	; 0xdf7
4010025a:	f2c4 0310 	movt	r3, #16400	; 0x4010
4010025e:	4798      	blx	r3
/home/zhangxiang/Downloads/op-tee2/OP-TEE/bios_qemu_tz_arm/bios/main.c:92
40100260:	f8d7 3084 	ldr.w	r3, [r7, #132]	; 0x84
40100264:	781b      	ldrb	r3, [r3, #0]
40100266:	2b0a      	cmp	r3, #10
40100268:	d108      	bne.n	4010027c <msg+0x68>
/home/zhangxiang/Downloads/op-tee2/OP-TEE/bios_qemu_tz_arm/bios/main.c:93
4010026a:	f04f 6110 	mov.w	r1, #150994944	; 0x9000000
4010026e:	f04f 000d 	mov.w	r0, #13
40100272:	f640 53f7 	movw	r3, #3575	; 0xdf7
40100276:	f2c4 0310 	movt	r3, #16400	; 0x4010
4010027a:	4798      	blx	r3
/home/zhangxiang/Downloads/op-tee2/OP-TEE/bios_qemu_tz_arm/bios/main.c:90 (discriminator 2)
4010027c:	f8d7 3084 	ldr.w	r3, [r7, #132]	; 0x84
40100280:	f103 0301 	add.w	r3, r3, #1
40100284:	f8c7 3084 	str.w	r3, [r7, #132]	; 0x84
/home/zhangxiang/Downloads/op-tee2/OP-TEE/bios_qemu_tz_arm/bios/main.c:90 (discriminator 1)
40100288:	f8d7 3084 	ldr.w	r3, [r7, #132]	; 0x84
4010028c:	781b      	ldrb	r3, [r3, #0]
4010028e:	2b00      	cmp	r3, #0
40100290:	d1db      	bne.n	4010024a <msg+0x36>
/home/zhangxiang/Downloads/op-tee2/OP-TEE/bios_qemu_tz_arm/bios/main.c:95
40100292:	bf00      	nop
40100294:	f107 078c 	add.w	r7, r7, #140	; 0x8c
40100298:	46bd      	mov	sp, r7
4010029a:	e9dd 4700 	ldrd	r4, r7, [sp]
4010029e:	b002      	add	sp, #8
401002a0:	f85d eb04 	ldr.w	lr, [sp], #4
401002a4:	b004      	add	sp, #16
401002a6:	4770      	bx	lr

401002a8 <check>:
check():
/home/zhangxiang/Downloads/op-tee2/OP-TEE/bios_qemu_tz_arm/bios/main.c:107
401002a8:	e96d 7e02 	strd	r7, lr, [sp, #-8]!
401002ac:	b084      	sub	sp, #16
401002ae:	af00      	add	r7, sp, #0
401002b0:	60f8      	str	r0, [r7, #12]
401002b2:	60b9      	str	r1, [r7, #8]
401002b4:	607a      	str	r2, [r7, #4]
/home/zhangxiang/Downloads/op-tee2/OP-TEE/bios_qemu_tz_arm/bios/main.c:108
401002b6:	687b      	ldr	r3, [r7, #4]
401002b8:	68ba      	ldr	r2, [r7, #8]
401002ba:	68f9      	ldr	r1, [r7, #12]
401002bc:	f644 7084 	movw	r0, #20356	; 0x4f84
401002c0:	f2c4 0010 	movt	r0, #16400	; 0x4010
401002c4:	f7ff ffa6 	bl	40100214 <msg>
/home/zhangxiang/Downloads/op-tee2/OP-TEE/bios_qemu_tz_arm/bios/main.c:109 (discriminator 1)
401002c8:	e7fe      	b.n	401002c8 <check+0x20>

401002ca <open_fdt>:
open_fdt():
/home/zhangxiang/Downloads/op-tee2/OP-TEE/bios_qemu_tz_arm/bios/main.c:113
401002ca:	e96d 7e02 	strd	r7, lr, [sp, #-8]!
401002ce:	b084      	sub	sp, #16
401002d0:	af00      	add	r7, sp, #0
401002d2:	6078      	str	r0, [r7, #4]
/home/zhangxiang/Downloads/op-tee2/OP-TEE/bios_qemu_tz_arm/bios/main.c:117
401002d4:	687b      	ldr	r3, [r7, #4]
401002d6:	60fb      	str	r3, [r7, #12]
/home/zhangxiang/Downloads/op-tee2/OP-TEE/bios_qemu_tz_arm/bios/main.c:118
401002d8:	68f9      	ldr	r1, [r7, #12]
401002da:	f644 7098 	movw	r0, #20376	; 0x4f98
401002de:	f2c4 0010 	movt	r0, #16400	; 0x4010
401002e2:	f7ff ff97 	bl	40100214 <msg>
/home/zhangxiang/Downloads/op-tee2/OP-TEE/bios_qemu_tz_arm/bios/main.c:120
401002e6:	687b      	ldr	r3, [r7, #4]
401002e8:	f44f 3280 	mov.w	r2, #65536	; 0x10000
401002ec:	4619      	mov	r1, r3
401002ee:	68f8      	ldr	r0, [r7, #12]
401002f0:	f642 53a5 	movw	r3, #11685	; 0x2da5
401002f4:	f2c4 0310 	movt	r3, #16400	; 0x4010
401002f8:	4798      	blx	r3
401002fa:	60b8      	str	r0, [r7, #8]
/home/zhangxiang/Downloads/op-tee2/OP-TEE/bios_qemu_tz_arm/bios/main.c:121
401002fc:	68bb      	ldr	r3, [r7, #8]
401002fe:	2b00      	cmp	r3, #0
40100300:	da0b      	bge.n	4010031a <open_fdt+0x50>
/home/zhangxiang/Downloads/op-tee2/OP-TEE/bios_qemu_tz_arm/bios/main.c:121 (discriminator 1)
40100302:	f04f 0279 	mov.w	r2, #121	; 0x79
40100306:	f644 71b8 	movw	r1, #20408	; 0x4fb8
4010030a:	f2c4 0110 	movt	r1, #16400	; 0x4010
4010030e:	f644 70c4 	movw	r0, #20420	; 0x4fc4
40100312:	f2c4 0010 	movt	r0, #16400	; 0x4010
40100316:	f7ff ffc7 	bl	401002a8 <check>
/home/zhangxiang/Downloads/op-tee2/OP-TEE/bios_qemu_tz_arm/bios/main.c:123
4010031a:	687b      	ldr	r3, [r7, #4]
/home/zhangxiang/Downloads/op-tee2/OP-TEE/bios_qemu_tz_arm/bios/main.c:124
4010031c:	4618      	mov	r0, r3
4010031e:	f107 0710 	add.w	r7, r7, #16
40100322:	46bd      	mov	sp, r7
40100324:	bd80      	pop	{r7, pc}

40100326 <copy_dtb>:
copy_dtb():
/home/zhangxiang/Downloads/op-tee2/OP-TEE/bios_qemu_tz_arm/bios/main.c:127
40100326:	e96d 7e02 	strd	r7, lr, [sp, #-8]!
4010032a:	b084      	sub	sp, #16
4010032c:	af00      	add	r7, sp, #0
4010032e:	6078      	str	r0, [r7, #4]
40100330:	6039      	str	r1, [r7, #0]
/home/zhangxiang/Downloads/op-tee2/OP-TEE/bios_qemu_tz_arm/bios/main.c:130
40100332:	687b      	ldr	r3, [r7, #4]
40100334:	4619      	mov	r1, r3
40100336:	f644 70cc 	movw	r0, #20428	; 0x4fcc
4010033a:	f2c4 0010 	movt	r0, #16400	; 0x4010
4010033e:	f7ff ff69 	bl	40100214 <msg>
/home/zhangxiang/Downloads/op-tee2/OP-TEE/bios_qemu_tz_arm/bios/main.c:131
40100342:	683b      	ldr	r3, [r7, #0]
40100344:	6879      	ldr	r1, [r7, #4]
40100346:	f44f 3280 	mov.w	r2, #65536	; 0x10000
4010034a:	4618      	mov	r0, r3
4010034c:	f642 53a5 	movw	r3, #11685	; 0x2da5
40100350:	f2c4 0310 	movt	r3, #16400	; 0x4010
40100354:	4798      	blx	r3
40100356:	60f8      	str	r0, [r7, #12]
/home/zhangxiang/Downloads/op-tee2/OP-TEE/bios_qemu_tz_arm/bios/main.c:132
40100358:	68fb      	ldr	r3, [r7, #12]
4010035a:	2b00      	cmp	r3, #0
4010035c:	da0b      	bge.n	40100376 <copy_dtb+0x50>
/home/zhangxiang/Downloads/op-tee2/OP-TEE/bios_qemu_tz_arm/bios/main.c:132 (discriminator 1)
4010035e:	f04f 0284 	mov.w	r2, #132	; 0x84
40100362:	f644 71b8 	movw	r1, #20408	; 0x4fb8
40100366:	f2c4 0110 	movt	r1, #16400	; 0x4010
4010036a:	f644 70c4 	movw	r0, #20420	; 0x4fc4
4010036e:	f2c4 0010 	movt	r0, #16400	; 0x4010
40100372:	f7ff ff99 	bl	401002a8 <check>
/home/zhangxiang/Downloads/op-tee2/OP-TEE/bios_qemu_tz_arm/bios/main.c:133
40100376:	687b      	ldr	r3, [r7, #4]
40100378:	f503 3380 	add.w	r3, r3, #65536	; 0x10000
/home/zhangxiang/Downloads/op-tee2/OP-TEE/bios_qemu_tz_arm/bios/main.c:134
4010037c:	4618      	mov	r0, r3
4010037e:	f107 0710 	add.w	r7, r7, #16
40100382:	46bd      	mov	sp, r7
40100384:	bd80      	pop	{r7, pc}

40100386 <copy_ns_images>:
copy_ns_images():
/home/zhangxiang/Downloads/op-tee2/OP-TEE/bios_qemu_tz_arm/bios/main.c:137
40100386:	e96d 7e02 	strd	r7, lr, [sp, #-8]!
4010038a:	b082      	sub	sp, #8
4010038c:	af00      	add	r7, sp, #0
/home/zhangxiang/Downloads/op-tee2/OP-TEE/bios_qemu_tz_arm/bios/main.c:142
4010038e:	f249 3350 	movw	r3, #37712	; 0x9350
40100392:	f2c4 0310 	movt	r3, #16400	; 0x4010
40100396:	f04f 4284 	mov.w	r2, #1107296256	; 0x42000000
4010039a:	601a      	str	r2, [r3, #0]
/home/zhangxiang/Downloads/op-tee2/OP-TEE/bios_qemu_tz_arm/bios/main.c:145
4010039c:	f249 3350 	movw	r3, #37712	; 0x9350
401003a0:	f2c4 0310 	movt	r3, #16400	; 0x4010
401003a4:	681b      	ldr	r3, [r3, #0]
401003a6:	461a      	mov	r2, r3
401003a8:	f04f 6180 	mov.w	r1, #67108864	; 0x4000000
401003ac:	f644 70f4 	movw	r0, #20468	; 0x4ff4
401003b0:	f2c4 0010 	movt	r0, #16400	; 0x4010
401003b4:	f640 437f 	movw	r3, #3199	; 0xc7f
401003b8:	f2c4 0310 	movt	r3, #16400	; 0x4010
401003bc:	4798      	blx	r3
401003be:	6078      	str	r0, [r7, #4]
/home/zhangxiang/Downloads/op-tee2/OP-TEE/bios_qemu_tz_arm/bios/main.c:146
401003c0:	687b      	ldr	r3, [r7, #4]
401003c2:	2b00      	cmp	r3, #0
401003c4:	da0b      	bge.n	401003de <copy_ns_images+0x58>
/home/zhangxiang/Downloads/op-tee2/OP-TEE/bios_qemu_tz_arm/bios/main.c:146 (discriminator 1)
401003c6:	f04f 0292 	mov.w	r2, #146	; 0x92
401003ca:	f644 71b8 	movw	r1, #20408	; 0x4fb8
401003ce:	f2c4 0110 	movt	r1, #16400	; 0x4010
401003d2:	f644 70c4 	movw	r0, #20420	; 0x4fc4
401003d6:	f2c4 0010 	movt	r0, #16400	; 0x4010
401003da:	f7ff ff65 	bl	401002a8 <check>
/home/zhangxiang/Downloads/op-tee2/OP-TEE/bios_qemu_tz_arm/bios/main.c:147
401003de:	f249 3350 	movw	r3, #37712	; 0x9350
401003e2:	f2c4 0310 	movt	r3, #16400	; 0x4010
401003e6:	681a      	ldr	r2, [r3, #0]
401003e8:	687b      	ldr	r3, [r7, #4]
401003ea:	4413      	add	r3, r2
401003ec:	603b      	str	r3, [r7, #0]
/home/zhangxiang/Downloads/op-tee2/OP-TEE/bios_qemu_tz_arm/bios/main.c:149
401003ee:	683b      	ldr	r3, [r7, #0]
401003f0:	f603 73ff 	addw	r3, r3, #4095	; 0xfff
401003f4:	f423 637f 	bic.w	r3, r3, #4080	; 0xff0
401003f8:	f023 030f 	bic.w	r3, r3, #15
401003fc:	f103 62c0 	add.w	r2, r3, #100663296	; 0x6000000
40100400:	f249 3354 	movw	r3, #37716	; 0x9354
40100404:	f2c4 0310 	movt	r3, #16400	; 0x4010
40100408:	601a      	str	r2, [r3, #0]
/home/zhangxiang/Downloads/op-tee2/OP-TEE/bios_qemu_tz_arm/bios/main.c:150
4010040a:	f249 3354 	movw	r3, #37716	; 0x9354
4010040e:	f2c4 0310 	movt	r3, #16400	; 0x4010
40100412:	681b      	ldr	r3, [r3, #0]
40100414:	f04f 4180 	mov.w	r1, #1073741824	; 0x40000000
40100418:	4618      	mov	r0, r3
4010041a:	f7ff ff84 	bl	40100326 <copy_dtb>
4010041e:	6038      	str	r0, [r7, #0]
/home/zhangxiang/Downloads/op-tee2/OP-TEE/bios_qemu_tz_arm/bios/main.c:152
40100420:	683b      	ldr	r3, [r7, #0]
40100422:	f603 73ff 	addw	r3, r3, #4095	; 0xfff
40100426:	f423 637f 	bic.w	r3, r3, #4080	; 0xff0
4010042a:	f023 030f 	bic.w	r3, r3, #15
4010042e:	f249 3258 	movw	r2, #37720	; 0x9358
40100432:	f2c4 0210 	movt	r2, #16400	; 0x4010
40100436:	6013      	str	r3, [r2, #0]
/home/zhangxiang/Downloads/op-tee2/OP-TEE/bios_qemu_tz_arm/bios/main.c:153
40100438:	f249 3358 	movw	r3, #37720	; 0x9358
4010043c:	f2c4 0310 	movt	r3, #16400	; 0x4010
40100440:	681b      	ldr	r3, [r3, #0]
40100442:	461a      	mov	r2, r3
40100444:	f04f 7100 	mov.w	r1, #33554432	; 0x2000000
40100448:	f644 70fc 	movw	r0, #20476	; 0x4ffc
4010044c:	f2c4 0010 	movt	r0, #16400	; 0x4010
40100450:	f640 437f 	movw	r3, #3199	; 0xc7f
40100454:	f2c4 0310 	movt	r3, #16400	; 0x4010
40100458:	4798      	blx	r3
4010045a:	6078      	str	r0, [r7, #4]
/home/zhangxiang/Downloads/op-tee2/OP-TEE/bios_qemu_tz_arm/bios/main.c:155
4010045c:	687b      	ldr	r3, [r7, #4]
4010045e:	2b00      	cmp	r3, #0
40100460:	da0b      	bge.n	4010047a <copy_ns_images+0xf4>
/home/zhangxiang/Downloads/op-tee2/OP-TEE/bios_qemu_tz_arm/bios/main.c:155 (discriminator 1)
40100462:	f04f 029b 	mov.w	r2, #155	; 0x9b
40100466:	f644 71b8 	movw	r1, #20408	; 0x4fb8
4010046a:	f2c4 0110 	movt	r1, #16400	; 0x4010
4010046e:	f644 70c4 	movw	r0, #20420	; 0x4fc4
40100472:	f2c4 0010 	movt	r0, #16400	; 0x4010
40100476:	f7ff ff17 	bl	401002a8 <check>
/home/zhangxiang/Downloads/op-tee2/OP-TEE/bios_qemu_tz_arm/bios/main.c:156
4010047a:	f249 3358 	movw	r3, #37720	; 0x9358
4010047e:	f2c4 0310 	movt	r3, #16400	; 0x4010
40100482:	681a      	ldr	r2, [r3, #0]
40100484:	687b      	ldr	r3, [r7, #4]
40100486:	441a      	add	r2, r3
40100488:	f249 335c 	movw	r3, #37724	; 0x935c
4010048c:	f2c4 0310 	movt	r3, #16400	; 0x4010
40100490:	601a      	str	r2, [r3, #0]
/home/zhangxiang/Downloads/op-tee2/OP-TEE/bios_qemu_tz_arm/bios/main.c:157
40100492:	bf00      	nop
40100494:	f107 0708 	add.w	r7, r7, #8
40100498:	46bd      	mov	sp, r7
4010049a:	bd80      	pop	{r7, pc}

4010049c <main_init_sec>:
main_init_sec():
/home/zhangxiang/Downloads/op-tee2/OP-TEE/bios_qemu_tz_arm/bios/main.c:194
4010049c:	e96d 7e02 	strd	r7, lr, [sp, #-8]!
401004a0:	b090      	sub	sp, #64	; 0x40
401004a2:	af00      	add	r7, sp, #0
401004a4:	6078      	str	r0, [r7, #4]
/home/zhangxiang/Downloads/op-tee2/OP-TEE/bios_qemu_tz_arm/bios/main.c:199
401004a6:	f7ff fea8 	bl	401001fa <msg_init>
/home/zhangxiang/Downloads/op-tee2/OP-TEE/bios_qemu_tz_arm/bios/main.c:202
401004aa:	f04f 4080 	mov.w	r0, #1073741824	; 0x40000000
401004ae:	f7ff ff0c 	bl	401002ca <open_fdt>
401004b2:	63b8      	str	r0, [r7, #56]	; 0x38
/home/zhangxiang/Downloads/op-tee2/OP-TEE/bios_qemu_tz_arm/bios/main.c:203
401004b4:	6bb8      	ldr	r0, [r7, #56]	; 0x38
401004b6:	f642 736b 	movw	r3, #12139	; 0x2f6b
401004ba:	f2c4 0310 	movt	r3, #16400	; 0x4010
401004be:	4798      	blx	r3
401004c0:	6378      	str	r0, [r7, #52]	; 0x34
/home/zhangxiang/Downloads/op-tee2/OP-TEE/bios_qemu_tz_arm/bios/main.c:204
401004c2:	6b7b      	ldr	r3, [r7, #52]	; 0x34
401004c4:	2b00      	cmp	r3, #0
401004c6:	da0b      	bge.n	401004e0 <main_init_sec+0x44>
/home/zhangxiang/Downloads/op-tee2/OP-TEE/bios_qemu_tz_arm/bios/main.c:204 (discriminator 1)
401004c8:	f04f 02cc 	mov.w	r2, #204	; 0xcc
401004cc:	f644 71b8 	movw	r1, #20408	; 0x4fb8
401004d0:	f2c4 0110 	movt	r1, #16400	; 0x4010
401004d4:	f644 70c4 	movw	r0, #20420	; 0x4fc4
401004d8:	f2c4 0010 	movt	r0, #16400	; 0x4010
401004dc:	f7ff fee4 	bl	401002a8 <check>
/home/zhangxiang/Downloads/op-tee2/OP-TEE/bios_qemu_tz_arm/bios/main.c:206
401004e0:	f107 0308 	add.w	r3, r7, #8
401004e4:	461a      	mov	r2, r3
401004e6:	f04f 012c 	mov.w	r1, #44	; 0x2c
401004ea:	f245 000c 	movw	r0, #20492	; 0x500c
401004ee:	f2c4 0010 	movt	r0, #16400	; 0x4010
401004f2:	f640 437f 	movw	r3, #3199	; 0xc7f
401004f6:	f2c4 0310 	movt	r3, #16400	; 0x4010
401004fa:	4798      	blx	r3
401004fc:	6378      	str	r0, [r7, #52]	; 0x34
/home/zhangxiang/Downloads/op-tee2/OP-TEE/bios_qemu_tz_arm/bios/main.c:208
401004fe:	6b7b      	ldr	r3, [r7, #52]	; 0x34
40100500:	2b00      	cmp	r3, #0
40100502:	da0b      	bge.n	4010051c <main_init_sec+0x80>
/home/zhangxiang/Downloads/op-tee2/OP-TEE/bios_qemu_tz_arm/bios/main.c:208 (discriminator 1)
40100504:	f04f 02d0 	mov.w	r2, #208	; 0xd0
40100508:	f644 71b8 	movw	r1, #20408	; 0x4fb8
4010050c:	f2c4 0110 	movt	r1, #16400	; 0x4010
40100510:	f644 70c4 	movw	r0, #20420	; 0x4fc4
40100514:	f2c4 0010 	movt	r0, #16400	; 0x4010
40100518:	f7ff fec6 	bl	401002a8 <check>
/home/zhangxiang/Downloads/op-tee2/OP-TEE/bios_qemu_tz_arm/bios/main.c:209
4010051c:	68ba      	ldr	r2, [r7, #8]
4010051e:	f245 034f 	movw	r3, #20559	; 0x504f
40100522:	f2c4 5354 	movt	r3, #17748	; 0x4554
40100526:	429a      	cmp	r2, r3
40100528:	d102      	bne.n	40100530 <main_init_sec+0x94>
/home/zhangxiang/Downloads/op-tee2/OP-TEE/bios_qemu_tz_arm/bios/main.c:209 (discriminator 2)
4010052a:	7b3b      	ldrb	r3, [r7, #12]
4010052c:	2b02      	cmp	r3, #2
4010052e:	d00b      	beq.n	40100548 <main_init_sec+0xac>
/home/zhangxiang/Downloads/op-tee2/OP-TEE/bios_qemu_tz_arm/bios/main.c:209 (discriminator 3)
40100530:	f04f 02d1 	mov.w	r2, #209	; 0xd1
40100534:	f644 71b8 	movw	r1, #20408	; 0x4fb8
40100538:	f2c4 0110 	movt	r1, #16400	; 0x4010
4010053c:	f245 0020 	movw	r0, #20512	; 0x5020
40100540:	f2c4 0010 	movt	r0, #16400	; 0x4010
40100544:	f7ff feb0 	bl	401002a8 <check>
/home/zhangxiang/Downloads/op-tee2/OP-TEE/bios_qemu_tz_arm/bios/main.c:211
40100548:	f245 005c 	movw	r0, #20572	; 0x505c
4010054c:	f2c4 0010 	movt	r0, #16400	; 0x4010
40100550:	f7ff fe60 	bl	40100214 <msg>
/home/zhangxiang/Downloads/op-tee2/OP-TEE/bios_qemu_tz_arm/bios/main.c:212
40100554:	7b7b      	ldrb	r3, [r7, #13]
40100556:	2b00      	cmp	r3, #0
40100558:	d00b      	beq.n	40100572 <main_init_sec+0xd6>
/home/zhangxiang/Downloads/op-tee2/OP-TEE/bios_qemu_tz_arm/bios/main.c:212 (discriminator 1)
4010055a:	f04f 02d4 	mov.w	r2, #212	; 0xd4
4010055e:	f644 71b8 	movw	r1, #20408	; 0x4fb8
40100562:	f2c4 0110 	movt	r1, #16400	; 0x4010
40100566:	f245 0074 	movw	r0, #20596	; 0x5074
4010056a:	f2c4 0010 	movt	r0, #16400	; 0x4010
4010056e:	f7ff fe9b 	bl	401002a8 <check>
/home/zhangxiang/Downloads/op-tee2/OP-TEE/bios_qemu_tz_arm/bios/main.c:213
40100572:	693b      	ldr	r3, [r7, #16]
40100574:	2b00      	cmp	r3, #0
40100576:	d002      	beq.n	4010057e <main_init_sec+0xe2>
/home/zhangxiang/Downloads/op-tee2/OP-TEE/bios_qemu_tz_arm/bios/main.c:213 (discriminator 2)
40100578:	693b      	ldr	r3, [r7, #16]
4010057a:	2b02      	cmp	r3, #2
4010057c:	d90b      	bls.n	40100596 <main_init_sec+0xfa>
/home/zhangxiang/Downloads/op-tee2/OP-TEE/bios_qemu_tz_arm/bios/main.c:213 (discriminator 3)
4010057e:	f04f 02d5 	mov.w	r2, #213	; 0xd5
40100582:	f644 71b8 	movw	r1, #20408	; 0x4fb8
40100586:	f2c4 0110 	movt	r1, #16400	; 0x4010
4010058a:	f245 0094 	movw	r0, #20628	; 0x5094
4010058e:	f2c4 0010 	movt	r0, #16400	; 0x4010
40100592:	f7ff fe89 	bl	401002a8 <check>
/home/zhangxiang/Downloads/op-tee2/OP-TEE/bios_qemu_tz_arm/bios/main.c:214
40100596:	69fb      	ldr	r3, [r7, #28]
40100598:	2b00      	cmp	r3, #0
4010059a:	d00b      	beq.n	401005b4 <main_init_sec+0x118>
/home/zhangxiang/Downloads/op-tee2/OP-TEE/bios_qemu_tz_arm/bios/main.c:214 (discriminator 1)
4010059c:	f04f 02d6 	mov.w	r2, #214	; 0xd6
401005a0:	f644 71b8 	movw	r1, #20408	; 0x4fb8
401005a4:	f2c4 0110 	movt	r1, #16400	; 0x4010
401005a8:	f245 00d0 	movw	r0, #20688	; 0x50d0
401005ac:	f2c4 0010 	movt	r0, #16400	; 0x4010
401005b0:	f7ff fe7a 	bl	401002a8 <check>
/home/zhangxiang/Downloads/op-tee2/OP-TEE/bios_qemu_tz_arm/bios/main.c:216
401005b4:	69ba      	ldr	r2, [r7, #24]
401005b6:	687b      	ldr	r3, [r7, #4]
401005b8:	601a      	str	r2, [r3, #0]
/home/zhangxiang/Downloads/op-tee2/OP-TEE/bios_qemu_tz_arm/bios/main.c:217
401005ba:	687b      	ldr	r3, [r7, #4]
401005bc:	f04f 0200 	mov.w	r2, #0
401005c0:	605a      	str	r2, [r3, #4]
/home/zhangxiang/Downloads/op-tee2/OP-TEE/bios_qemu_tz_arm/bios/main.c:219
401005c2:	687b      	ldr	r3, [r7, #4]
401005c4:	681b      	ldr	r3, [r3, #0]
401005c6:	461a      	mov	r2, r3
401005c8:	f44f 1100 	mov.w	r1, #2097152	; 0x200000
401005cc:	f245 1000 	movw	r0, #20736	; 0x5100
401005d0:	f2c4 0010 	movt	r0, #16400	; 0x4010
401005d4:	f640 437f 	movw	r3, #3199	; 0xc7f
401005d8:	f2c4 0310 	movt	r3, #16400	; 0x4010
401005dc:	4798      	blx	r3
401005de:	6378      	str	r0, [r7, #52]	; 0x34
/home/zhangxiang/Downloads/op-tee2/OP-TEE/bios_qemu_tz_arm/bios/main.c:221
401005e0:	6b7b      	ldr	r3, [r7, #52]	; 0x34
401005e2:	2b00      	cmp	r3, #0
401005e4:	da0b      	bge.n	401005fe <main_init_sec+0x162>
/home/zhangxiang/Downloads/op-tee2/OP-TEE/bios_qemu_tz_arm/bios/main.c:221 (discriminator 1)
401005e6:	f04f 02dd 	mov.w	r2, #221	; 0xdd
401005ea:	f644 71b8 	movw	r1, #20408	; 0x4fb8
401005ee:	f2c4 0110 	movt	r1, #16400	; 0x4010
401005f2:	f644 70c4 	movw	r0, #20420	; 0x4fc4
401005f6:	f2c4 0010 	movt	r0, #16400	; 0x4010
401005fa:	f7ff fe55 	bl	401002a8 <check>
/home/zhangxiang/Downloads/op-tee2/OP-TEE/bios_qemu_tz_arm/bios/main.c:223
401005fe:	693b      	ldr	r3, [r7, #16]
40100600:	2b01      	cmp	r3, #1
40100602:	d94b      	bls.n	4010069c <main_init_sec+0x200>
/home/zhangxiang/Downloads/op-tee2/OP-TEE/bios_qemu_tz_arm/bios/main.c:226
40100604:	6afb      	ldr	r3, [r7, #44]	; 0x2c
40100606:	2b01      	cmp	r3, #1
40100608:	d00b      	beq.n	40100622 <main_init_sec+0x186>
/home/zhangxiang/Downloads/op-tee2/OP-TEE/bios_qemu_tz_arm/bios/main.c:226 (discriminator 1)
4010060a:	f04f 02e2 	mov.w	r2, #226	; 0xe2
4010060e:	f644 71b8 	movw	r1, #20408	; 0x4fb8
40100612:	f2c4 0110 	movt	r1, #16400	; 0x4010
40100616:	f245 1014 	movw	r0, #20756	; 0x5114
4010061a:	f2c4 0010 	movt	r0, #16400	; 0x4010
4010061e:	f7ff fe43 	bl	401002a8 <check>
/home/zhangxiang/Downloads/op-tee2/OP-TEE/bios_qemu_tz_arm/bios/main.c:227
40100622:	6abb      	ldr	r3, [r7, #40]	; 0x28
40100624:	f1b3 3fff 	cmp.w	r3, #4294967295	; 0xffffffff
40100628:	d108      	bne.n	4010063c <main_init_sec+0x1a0>
/home/zhangxiang/Downloads/op-tee2/OP-TEE/bios_qemu_tz_arm/bios/main.c:228 (discriminator 1)
4010062a:	6a7b      	ldr	r3, [r7, #36]	; 0x24
/home/zhangxiang/Downloads/op-tee2/OP-TEE/bios_qemu_tz_arm/bios/main.c:227 (discriminator 1)
4010062c:	f1b3 3fff 	cmp.w	r3, #4294967295	; 0xffffffff
40100630:	d104      	bne.n	4010063c <main_init_sec+0x1a0>
/home/zhangxiang/Downloads/op-tee2/OP-TEE/bios_qemu_tz_arm/bios/main.c:230
40100632:	6b3b      	ldr	r3, [r7, #48]	; 0x30
/home/zhangxiang/Downloads/op-tee2/OP-TEE/bios_qemu_tz_arm/bios/main.c:229
40100634:	f1c3 636c 	rsb	r3, r3, #247463936	; 0xec00000
40100638:	63fb      	str	r3, [r7, #60]	; 0x3c
4010063a:	e010      	b.n	4010065e <main_init_sec+0x1c2>
/home/zhangxiang/Downloads/op-tee2/OP-TEE/bios_qemu_tz_arm/bios/main.c:232
4010063c:	6a7b      	ldr	r3, [r7, #36]	; 0x24
4010063e:	2b00      	cmp	r3, #0
40100640:	d00b      	beq.n	4010065a <main_init_sec+0x1be>
/home/zhangxiang/Downloads/op-tee2/OP-TEE/bios_qemu_tz_arm/bios/main.c:232 (discriminator 1)
40100642:	f04f 02e8 	mov.w	r2, #232	; 0xe8
40100646:	f644 71b8 	movw	r1, #20408	; 0x4fb8
4010064a:	f2c4 0110 	movt	r1, #16400	; 0x4010
4010064e:	f245 1044 	movw	r0, #20804	; 0x5144
40100652:	f2c4 0010 	movt	r0, #16400	; 0x4010
40100656:	f7ff fe27 	bl	401002a8 <check>
/home/zhangxiang/Downloads/op-tee2/OP-TEE/bios_qemu_tz_arm/bios/main.c:233
4010065a:	6abb      	ldr	r3, [r7, #40]	; 0x28
4010065c:	63fb      	str	r3, [r7, #60]	; 0x3c
/home/zhangxiang/Downloads/op-tee2/OP-TEE/bios_qemu_tz_arm/bios/main.c:235
4010065e:	6bfa      	ldr	r2, [r7, #60]	; 0x3c
40100660:	f44f 0140 	mov.w	r1, #12582912	; 0xc00000
40100664:	f245 1064 	movw	r0, #20836	; 0x5164
40100668:	f2c4 0010 	movt	r0, #16400	; 0x4010
4010066c:	f640 437f 	movw	r3, #3199	; 0xc7f
40100670:	f2c4 0310 	movt	r3, #16400	; 0x4010
40100674:	4798      	blx	r3
40100676:	6378      	str	r0, [r7, #52]	; 0x34
/home/zhangxiang/Downloads/op-tee2/OP-TEE/bios_qemu_tz_arm/bios/main.c:237
40100678:	6b7b      	ldr	r3, [r7, #52]	; 0x34
4010067a:	2b00      	cmp	r3, #0
4010067c:	da0b      	bge.n	40100696 <main_init_sec+0x1fa>
/home/zhangxiang/Downloads/op-tee2/OP-TEE/bios_qemu_tz_arm/bios/main.c:237 (discriminator 1)
4010067e:	f04f 02ed 	mov.w	r2, #237	; 0xed
40100682:	f644 71b8 	movw	r1, #20408	; 0x4fb8
40100686:	f2c4 0110 	movt	r1, #16400	; 0x4010
4010068a:	f644 70c4 	movw	r0, #20420	; 0x4fc4
4010068e:	f2c4 0010 	movt	r0, #16400	; 0x4010
40100692:	f7ff fe09 	bl	401002a8 <check>
/home/zhangxiang/Downloads/op-tee2/OP-TEE/bios_qemu_tz_arm/bios/main.c:238
40100696:	687b      	ldr	r3, [r7, #4]
40100698:	6bfa      	ldr	r2, [r7, #60]	; 0x3c
4010069a:	605a      	str	r2, [r3, #4]
/home/zhangxiang/Downloads/op-tee2/OP-TEE/bios_qemu_tz_arm/bios/main.c:241
4010069c:	f7ff fe73 	bl	40100386 <copy_ns_images>
/home/zhangxiang/Downloads/op-tee2/OP-TEE/bios_qemu_tz_arm/bios/main.c:242
401006a0:	f249 3354 	movw	r3, #37716	; 0x9354
401006a4:	f2c4 0310 	movt	r3, #16400	; 0x4010
401006a8:	681a      	ldr	r2, [r3, #0]
401006aa:	687b      	ldr	r3, [r7, #4]
401006ac:	609a      	str	r2, [r3, #8]
/home/zhangxiang/Downloads/op-tee2/OP-TEE/bios_qemu_tz_arm/bios/main.c:244
401006ae:	f245 1078 	movw	r0, #20856	; 0x5178
401006b2:	f2c4 0010 	movt	r0, #16400	; 0x4010
401006b6:	f7ff fdad 	bl	40100214 <msg>
/home/zhangxiang/Downloads/op-tee2/OP-TEE/bios_qemu_tz_arm/bios/main.c:245
401006ba:	bf00      	nop
401006bc:	f107 0740 	add.w	r7, r7, #64	; 0x40
401006c0:	46bd      	mov	sp, r7
401006c2:	bd80      	pop	{r7, pc}

401006c4 <setprop_cell>:
setprop_cell():
/home/zhangxiang/Downloads/op-tee2/OP-TEE/bios_qemu_tz_arm/bios/main.c:249
401006c4:	e96d 7e02 	strd	r7, lr, [sp, #-8]!
401006c8:	b086      	sub	sp, #24
401006ca:	af00      	add	r7, sp, #0
401006cc:	60f8      	str	r0, [r7, #12]
401006ce:	60b9      	str	r1, [r7, #8]
401006d0:	607a      	str	r2, [r7, #4]
401006d2:	603b      	str	r3, [r7, #0]
/home/zhangxiang/Downloads/op-tee2/OP-TEE/bios_qemu_tz_arm/bios/main.c:253
401006d4:	68b9      	ldr	r1, [r7, #8]
401006d6:	68f8      	ldr	r0, [r7, #12]
401006d8:	f241 339f 	movw	r3, #5023	; 0x139f
401006dc:	f2c4 0310 	movt	r3, #16400	; 0x4010
401006e0:	4798      	blx	r3
401006e2:	6178      	str	r0, [r7, #20]
/home/zhangxiang/Downloads/op-tee2/OP-TEE/bios_qemu_tz_arm/bios/main.c:254
401006e4:	697b      	ldr	r3, [r7, #20]
401006e6:	2b00      	cmp	r3, #0
401006e8:	da0b      	bge.n	40100702 <setprop_cell+0x3e>
/home/zhangxiang/Downloads/op-tee2/OP-TEE/bios_qemu_tz_arm/bios/main.c:254 (discriminator 1)
401006ea:	f04f 02fe 	mov.w	r2, #254	; 0xfe
401006ee:	f644 71b8 	movw	r1, #20408	; 0x4fb8
401006f2:	f2c4 0110 	movt	r1, #16400	; 0x4010
401006f6:	f245 1094 	movw	r0, #20884	; 0x5194
401006fa:	f2c4 0010 	movt	r0, #16400	; 0x4010
401006fe:	f7ff fdd3 	bl	401002a8 <check>
/home/zhangxiang/Downloads/op-tee2/OP-TEE/bios_qemu_tz_arm/bios/main.c:256
40100702:	683b      	ldr	r3, [r7, #0]
40100704:	687a      	ldr	r2, [r7, #4]
40100706:	6979      	ldr	r1, [r7, #20]
40100708:	68f8      	ldr	r0, [r7, #12]
4010070a:	f7ff fd62 	bl	401001d2 <fdt_setprop_cell>
4010070e:	6138      	str	r0, [r7, #16]
/home/zhangxiang/Downloads/op-tee2/OP-TEE/bios_qemu_tz_arm/bios/main.c:257
40100710:	693b      	ldr	r3, [r7, #16]
40100712:	2b00      	cmp	r3, #0
40100714:	da0b      	bge.n	4010072e <setprop_cell+0x6a>
/home/zhangxiang/Downloads/op-tee2/OP-TEE/bios_qemu_tz_arm/bios/main.c:257 (discriminator 1)
40100716:	f240 1201 	movw	r2, #257	; 0x101
4010071a:	f644 71b8 	movw	r1, #20408	; 0x4fb8
4010071e:	f2c4 0110 	movt	r1, #16400	; 0x4010
40100722:	f644 70c4 	movw	r0, #20420	; 0x4fc4
40100726:	f2c4 0010 	movt	r0, #16400	; 0x4010
4010072a:	f7ff fdbd 	bl	401002a8 <check>
/home/zhangxiang/Downloads/op-tee2/OP-TEE/bios_qemu_tz_arm/bios/main.c:258
4010072e:	bf00      	nop
40100730:	f107 0718 	add.w	r7, r7, #24
40100734:	46bd      	mov	sp, r7
40100736:	bd80      	pop	{r7, pc}

40100738 <setprop_string>:
setprop_string():
/home/zhangxiang/Downloads/op-tee2/OP-TEE/bios_qemu_tz_arm/bios/main.c:262
40100738:	f84d 4d0c 	str.w	r4, [sp, #-12]!
4010073c:	e9cd 7e01 	strd	r7, lr, [sp, #4]
40100740:	b089      	sub	sp, #36	; 0x24
40100742:	af02      	add	r7, sp, #8
40100744:	60f8      	str	r0, [r7, #12]
40100746:	60b9      	str	r1, [r7, #8]
40100748:	607a      	str	r2, [r7, #4]
4010074a:	603b      	str	r3, [r7, #0]
/home/zhangxiang/Downloads/op-tee2/OP-TEE/bios_qemu_tz_arm/bios/main.c:266
4010074c:	68b9      	ldr	r1, [r7, #8]
4010074e:	68f8      	ldr	r0, [r7, #12]
40100750:	f241 339f 	movw	r3, #5023	; 0x139f
40100754:	f2c4 0310 	movt	r3, #16400	; 0x4010
40100758:	4798      	blx	r3
4010075a:	6178      	str	r0, [r7, #20]
/home/zhangxiang/Downloads/op-tee2/OP-TEE/bios_qemu_tz_arm/bios/main.c:267
4010075c:	697b      	ldr	r3, [r7, #20]
4010075e:	2b00      	cmp	r3, #0
40100760:	da0b      	bge.n	4010077a <setprop_string+0x42>
/home/zhangxiang/Downloads/op-tee2/OP-TEE/bios_qemu_tz_arm/bios/main.c:267 (discriminator 1)
40100762:	f240 120b 	movw	r2, #267	; 0x10b
40100766:	f644 71b8 	movw	r1, #20408	; 0x4fb8
4010076a:	f2c4 0110 	movt	r1, #16400	; 0x4010
4010076e:	f245 1094 	movw	r0, #20884	; 0x5194
40100772:	f2c4 0010 	movt	r0, #16400	; 0x4010
40100776:	f7ff fd97 	bl	401002a8 <check>
/home/zhangxiang/Downloads/op-tee2/OP-TEE/bios_qemu_tz_arm/bios/main.c:269
4010077a:	6838      	ldr	r0, [r7, #0]
4010077c:	f644 239d 	movw	r3, #19101	; 0x4a9d
40100780:	f2c4 0310 	movt	r3, #16400	; 0x4010
40100784:	4798      	blx	r3
40100786:	4603      	mov	r3, r0
40100788:	f103 0301 	add.w	r3, r3, #1
4010078c:	9300      	str	r3, [sp, #0]
4010078e:	683b      	ldr	r3, [r7, #0]
40100790:	687a      	ldr	r2, [r7, #4]
40100792:	6979      	ldr	r1, [r7, #20]
40100794:	68f8      	ldr	r0, [r7, #12]
40100796:	f642 141b 	movw	r4, #10523	; 0x291b
4010079a:	f2c4 0410 	movt	r4, #16400	; 0x4010
4010079e:	47a0      	blx	r4
401007a0:	6138      	str	r0, [r7, #16]
/home/zhangxiang/Downloads/op-tee2/OP-TEE/bios_qemu_tz_arm/bios/main.c:270
401007a2:	693b      	ldr	r3, [r7, #16]
401007a4:	2b00      	cmp	r3, #0
401007a6:	da0b      	bge.n	401007c0 <setprop_string+0x88>
/home/zhangxiang/Downloads/op-tee2/OP-TEE/bios_qemu_tz_arm/bios/main.c:270 (discriminator 1)
401007a8:	f44f 7287 	mov.w	r2, #270	; 0x10e
401007ac:	f644 71b8 	movw	r1, #20408	; 0x4fb8
401007b0:	f2c4 0110 	movt	r1, #16400	; 0x4010
401007b4:	f644 70c4 	movw	r0, #20420	; 0x4fc4
401007b8:	f2c4 0010 	movt	r0, #16400	; 0x4010
401007bc:	f7ff fd74 	bl	401002a8 <check>
/home/zhangxiang/Downloads/op-tee2/OP-TEE/bios_qemu_tz_arm/bios/main.c:271
401007c0:	bf00      	nop
401007c2:	f107 071c 	add.w	r7, r7, #28
401007c6:	46bd      	mov	sp, r7
401007c8:	e9dd 4700 	ldrd	r4, r7, [sp]
401007cc:	b002      	add	sp, #8
401007ce:	f85d fb04 	ldr.w	pc, [sp], #4

401007d2 <call_kernel>:
call_kernel():
/home/zhangxiang/Downloads/op-tee2/OP-TEE/bios_qemu_tz_arm/bios/main.c:276
401007d2:	e96d 7e02 	strd	r7, lr, [sp, #-8]!
401007d6:	b0a0      	sub	sp, #128	; 0x80
401007d8:	af02      	add	r7, sp, #8
401007da:	60f8      	str	r0, [r7, #12]
401007dc:	60b9      	str	r1, [r7, #8]
401007de:	607a      	str	r2, [r7, #4]
401007e0:	603b      	str	r3, [r7, #0]
/home/zhangxiang/Downloads/op-tee2/OP-TEE/bios_qemu_tz_arm/bios/main.c:277
401007e2:	68fb      	ldr	r3, [r7, #12]
401007e4:	677b      	str	r3, [r7, #116]	; 0x74
/home/zhangxiang/Downloads/op-tee2/OP-TEE/bios_qemu_tz_arm/bios/main.c:278
401007e6:	68bb      	ldr	r3, [r7, #8]
401007e8:	673b      	str	r3, [r7, #112]	; 0x70
/home/zhangxiang/Downloads/op-tee2/OP-TEE/bios_qemu_tz_arm/bios/main.c:279
401007ea:	f245 2330 	movw	r3, #21040	; 0x5230
401007ee:	f2c4 0310 	movt	r3, #16400	; 0x4010
401007f2:	f107 0010 	add.w	r0, r7, #16
401007f6:	4619      	mov	r1, r3
401007f8:	f04f 0352 	mov.w	r3, #82	; 0x52
401007fc:	461a      	mov	r2, r3
401007fe:	f244 7351 	movw	r3, #18257	; 0x4751
40100802:	f2c4 0310 	movt	r3, #16400	; 0x4010
40100806:	4798      	blx	r3
/home/zhangxiang/Downloads/op-tee2/OP-TEE/bios_qemu_tz_arm/bios/main.c:281
40100808:	f04f 0300 	mov.w	r3, #0
4010080c:	66fb      	str	r3, [r7, #108]	; 0x6c
/home/zhangxiang/Downloads/op-tee2/OP-TEE/bios_qemu_tz_arm/bios/main.c:283
4010080e:	f44f 630e 	mov.w	r3, #2272	; 0x8e0
40100812:	66bb      	str	r3, [r7, #104]	; 0x68
/home/zhangxiang/Downloads/op-tee2/OP-TEE/bios_qemu_tz_arm/bios/main.c:285
40100814:	f44f 3280 	mov.w	r2, #65536	; 0x10000
40100818:	6f39      	ldr	r1, [r7, #112]	; 0x70
4010081a:	6f38      	ldr	r0, [r7, #112]	; 0x70
4010081c:	f642 53a5 	movw	r3, #11685	; 0x2da5
40100820:	f2c4 0310 	movt	r3, #16400	; 0x4010
40100824:	4798      	blx	r3
40100826:	6678      	str	r0, [r7, #100]	; 0x64
/home/zhangxiang/Downloads/op-tee2/OP-TEE/bios_qemu_tz_arm/bios/main.c:286
40100828:	6e7b      	ldr	r3, [r7, #100]	; 0x64
4010082a:	2b00      	cmp	r3, #0
4010082c:	da0b      	bge.n	40100846 <call_kernel+0x74>
/home/zhangxiang/Downloads/op-tee2/OP-TEE/bios_qemu_tz_arm/bios/main.c:286 (discriminator 1)
4010082e:	f44f 728f 	mov.w	r2, #286	; 0x11e
40100832:	f644 71b8 	movw	r1, #20408	; 0x4fb8
40100836:	f2c4 0110 	movt	r1, #16400	; 0x4010
4010083a:	f644 70c4 	movw	r0, #20420	; 0x4fc4
4010083e:	f2c4 0010 	movt	r0, #16400	; 0x4010
40100842:	f7ff fd31 	bl	401002a8 <check>
/home/zhangxiang/Downloads/op-tee2/OP-TEE/bios_qemu_tz_arm/bios/main.c:287
40100846:	687b      	ldr	r3, [r7, #4]
40100848:	f245 12a0 	movw	r2, #20896	; 0x51a0
4010084c:	f2c4 0210 	movt	r2, #16400	; 0x4010
40100850:	f245 11b4 	movw	r1, #20916	; 0x51b4
40100854:	f2c4 0110 	movt	r1, #16400	; 0x4010
40100858:	6f38      	ldr	r0, [r7, #112]	; 0x70
4010085a:	f7ff ff33 	bl	401006c4 <setprop_cell>
/home/zhangxiang/Downloads/op-tee2/OP-TEE/bios_qemu_tz_arm/bios/main.c:288
4010085e:	683b      	ldr	r3, [r7, #0]
40100860:	f245 12bc 	movw	r2, #20924	; 0x51bc
40100864:	f2c4 0210 	movt	r2, #16400	; 0x4010
40100868:	f245 11b4 	movw	r1, #20916	; 0x51b4
4010086c:	f2c4 0110 	movt	r1, #16400	; 0x4010
40100870:	6f38      	ldr	r0, [r7, #112]	; 0x70
40100872:	f7ff ff27 	bl	401006c4 <setprop_cell>
/home/zhangxiang/Downloads/op-tee2/OP-TEE/bios_qemu_tz_arm/bios/main.c:289
40100876:	f107 0310 	add.w	r3, r7, #16
4010087a:	f245 12d0 	movw	r2, #20944	; 0x51d0
4010087e:	f2c4 0210 	movt	r2, #16400	; 0x4010
40100882:	f245 11b4 	movw	r1, #20916	; 0x51b4
40100886:	f2c4 0110 	movt	r1, #16400	; 0x4010
4010088a:	6f38      	ldr	r0, [r7, #112]	; 0x70
4010088c:	f7ff ff54 	bl	40100738 <setprop_string>
/home/zhangxiang/Downloads/op-tee2/OP-TEE/bios_qemu_tz_arm/bios/main.c:290
40100890:	6f38      	ldr	r0, [r7, #112]	; 0x70
40100892:	f642 736b 	movw	r3, #12139	; 0x2f6b
40100896:	f2c4 0310 	movt	r3, #16400	; 0x4010
4010089a:	4798      	blx	r3
4010089c:	6678      	str	r0, [r7, #100]	; 0x64
/home/zhangxiang/Downloads/op-tee2/OP-TEE/bios_qemu_tz_arm/bios/main.c:291
4010089e:	6e7b      	ldr	r3, [r7, #100]	; 0x64
401008a0:	2b00      	cmp	r3, #0
401008a2:	da0b      	bge.n	401008bc <call_kernel+0xea>
/home/zhangxiang/Downloads/op-tee2/OP-TEE/bios_qemu_tz_arm/bios/main.c:291 (discriminator 1)
401008a4:	f240 1223 	movw	r2, #291	; 0x123
401008a8:	f644 71b8 	movw	r1, #20408	; 0x4fb8
401008ac:	f2c4 0110 	movt	r1, #16400	; 0x4010
401008b0:	f644 70c4 	movw	r0, #20420	; 0x4fc4
401008b4:	f2c4 0010 	movt	r0, #16400	; 0x4010
401008b8:	f7ff fcf6 	bl	401002a8 <check>
/home/zhangxiang/Downloads/op-tee2/OP-TEE/bios_qemu_tz_arm/bios/main.c:293
401008bc:	f107 0310 	add.w	r3, r7, #16
401008c0:	4619      	mov	r1, r3
401008c2:	f245 10dc 	movw	r0, #20956	; 0x51dc
401008c6:	f2c4 0010 	movt	r0, #16400	; 0x4010
401008ca:	f7ff fca3 	bl	40100214 <msg>
/home/zhangxiang/Downloads/op-tee2/OP-TEE/bios_qemu_tz_arm/bios/main.c:294
401008ce:	6f79      	ldr	r1, [r7, #116]	; 0x74
401008d0:	68bb      	ldr	r3, [r7, #8]
401008d2:	9300      	str	r3, [sp, #0]
401008d4:	6ebb      	ldr	r3, [r7, #104]	; 0x68
401008d6:	6efa      	ldr	r2, [r7, #108]	; 0x6c
401008d8:	f245 10f8 	movw	r0, #20984	; 0x51f8
401008dc:	f2c4 0010 	movt	r0, #16400	; 0x4010
401008e0:	f7ff fc98 	bl	40100214 <msg>
/home/zhangxiang/Downloads/op-tee2/OP-TEE/bios_qemu_tz_arm/bios/main.c:296
401008e4:	6f7b      	ldr	r3, [r7, #116]	; 0x74
401008e6:	68ba      	ldr	r2, [r7, #8]
401008e8:	6eb9      	ldr	r1, [r7, #104]	; 0x68
401008ea:	6ef8      	ldr	r0, [r7, #108]	; 0x6c
401008ec:	4798      	blx	r3
/home/zhangxiang/Downloads/op-tee2/OP-TEE/bios_qemu_tz_arm/bios/main.c:297
401008ee:	bf00      	nop
401008f0:	f107 0778 	add.w	r7, r7, #120	; 0x78
401008f4:	46bd      	mov	sp, r7
401008f6:	bd80      	pop	{r7, pc}

401008f8 <main_init_ns>:
main_init_ns():
/home/zhangxiang/Downloads/op-tee2/OP-TEE/bios_qemu_tz_arm/bios/main.c:301
401008f8:	e96d 7e02 	strd	r7, lr, [sp, #-8]!
401008fc:	af00      	add	r7, sp, #0
/home/zhangxiang/Downloads/op-tee2/OP-TEE/bios_qemu_tz_arm/bios/main.c:302
401008fe:	f249 3350 	movw	r3, #37712	; 0x9350
40100902:	f2c4 0310 	movt	r3, #16400	; 0x4010
40100906:	6818      	ldr	r0, [r3, #0]
40100908:	f249 3354 	movw	r3, #37716	; 0x9354
4010090c:	f2c4 0310 	movt	r3, #16400	; 0x4010
40100910:	6819      	ldr	r1, [r3, #0]
40100912:	f249 3358 	movw	r3, #37720	; 0x9358
40100916:	f2c4 0310 	movt	r3, #16400	; 0x4010
4010091a:	681a      	ldr	r2, [r3, #0]
4010091c:	f249 335c 	movw	r3, #37724	; 0x935c
40100920:	f2c4 0310 	movt	r3, #16400	; 0x4010
40100924:	681b      	ldr	r3, [r3, #0]
40100926:	f7ff ff54 	bl	401007d2 <call_kernel>
/home/zhangxiang/Downloads/op-tee2/OP-TEE/bios_qemu_tz_arm/bios/main.c:303
4010092a:	bf00      	nop
4010092c:	46bd      	mov	sp, r7
4010092e:	bd80      	pop	{r7, pc}

40100930 <_assert_break>:
_assert_break():
/home/zhangxiang/Downloads/op-tee2/OP-TEE/bios_qemu_tz_arm/libutils/isoc/include/assert.h:36
40100930:	f84d 7d04 	str.w	r7, [sp, #-4]!
40100934:	af00      	add	r7, sp, #0
/home/zhangxiang/Downloads/op-tee2/OP-TEE/bios_qemu_tz_arm/libutils/isoc/include/assert.h:37 (discriminator 1)
40100936:	e7fe      	b.n	40100936 <_assert_break+0x6>

40100938 <_assert_log>:
_assert_log():
/home/zhangxiang/Downloads/op-tee2/OP-TEE/bios_qemu_tz_arm/libutils/isoc/include/assert.h:41
40100938:	f84d 4d0c 	str.w	r4, [sp, #-12]!
4010093c:	e9cd 7e01 	strd	r7, lr, [sp, #4]
40100940:	b085      	sub	sp, #20
40100942:	af00      	add	r7, sp, #0
40100944:	60f8      	str	r0, [r7, #12]
40100946:	60b9      	str	r1, [r7, #8]
40100948:	607a      	str	r2, [r7, #4]
/home/zhangxiang/Downloads/op-tee2/OP-TEE/bios_qemu_tz_arm/libutils/isoc/include/assert.h:42
4010094a:	687b      	ldr	r3, [r7, #4]
4010094c:	68ba      	ldr	r2, [r7, #8]
4010094e:	68f9      	ldr	r1, [r7, #12]
40100950:	f245 2084 	movw	r0, #21124	; 0x5284
40100954:	f2c4 0010 	movt	r0, #16400	; 0x4010
40100958:	f240 2415 	movw	r4, #533	; 0x215
4010095c:	f2c4 0410 	movt	r4, #16400	; 0x4010
40100960:	47a0      	blx	r4
/home/zhangxiang/Downloads/op-tee2/OP-TEE/bios_qemu_tz_arm/libutils/isoc/include/assert.h:43
40100962:	bf00      	nop
40100964:	f107 0714 	add.w	r7, r7, #20
40100968:	46bd      	mov	sp, r7
4010096a:	e9dd 4700 	ldrd	r4, r7, [sp]
4010096e:	b002      	add	sp, #8
40100970:	f85d fb04 	ldr.w	pc, [sp], #4

40100974 <semihosting_connection_supported>:
semihosting_connection_supported():
40100974:	f84d 7d04 	str.w	r7, [sp, #-4]!
40100978:	af00      	add	r7, sp, #0
/home/zhangxiang/Downloads/op-tee2/OP-TEE/bios_qemu_tz_arm/bios/semihosting.c:44
4010097a:	f04f 0301 	mov.w	r3, #1
/home/zhangxiang/Downloads/op-tee2/OP-TEE/bios_qemu_tz_arm/bios/semihosting.c:45
4010097e:	4618      	mov	r0, r3
40100980:	46bd      	mov	sp, r7
40100982:	f85d 7b04 	ldr.w	r7, [sp], #4
40100986:	4770      	bx	lr

40100988 <semihosting_file_open>:
semihosting_file_open():
/home/zhangxiang/Downloads/op-tee2/OP-TEE/bios_qemu_tz_arm/bios/semihosting.c:48
40100988:	e96d 7e02 	strd	r7, lr, [sp, #-8]!
4010098c:	b086      	sub	sp, #24
4010098e:	af00      	add	r7, sp, #0
40100990:	6078      	str	r0, [r7, #4]
40100992:	6039      	str	r1, [r7, #0]
/home/zhangxiang/Downloads/op-tee2/OP-TEE/bios_qemu_tz_arm/bios/semihosting.c:51
40100994:	687b      	ldr	r3, [r7, #4]
40100996:	60fb      	str	r3, [r7, #12]
/home/zhangxiang/Downloads/op-tee2/OP-TEE/bios_qemu_tz_arm/bios/semihosting.c:52
40100998:	683b      	ldr	r3, [r7, #0]
4010099a:	613b      	str	r3, [r7, #16]
/home/zhangxiang/Downloads/op-tee2/OP-TEE/bios_qemu_tz_arm/bios/semihosting.c:53
4010099c:	6878      	ldr	r0, [r7, #4]
4010099e:	f644 239d 	movw	r3, #19101	; 0x4a9d
401009a2:	f2c4 0310 	movt	r3, #16400	; 0x4010
401009a6:	4798      	blx	r3
401009a8:	4603      	mov	r3, r0
401009aa:	617b      	str	r3, [r7, #20]
/home/zhangxiang/Downloads/op-tee2/OP-TEE/bios_qemu_tz_arm/bios/semihosting.c:55
401009ac:	f107 030c 	add.w	r3, r7, #12
401009b0:	4619      	mov	r1, r3
401009b2:	f04f 0001 	mov.w	r0, #1
401009b6:	f640 532c 	movw	r3, #3372	; 0xd2c
401009ba:	f2c4 0310 	movt	r3, #16400	; 0x4010
401009be:	4798      	blx	r3
401009c0:	4603      	mov	r3, r0
/home/zhangxiang/Downloads/op-tee2/OP-TEE/bios_qemu_tz_arm/bios/semihosting.c:57
401009c2:	4618      	mov	r0, r3
401009c4:	f107 0718 	add.w	r7, r7, #24
401009c8:	46bd      	mov	sp, r7
401009ca:	bd80      	pop	{r7, pc}

401009cc <semihosting_file_seek>:
semihosting_file_seek():
/home/zhangxiang/Downloads/op-tee2/OP-TEE/bios_qemu_tz_arm/bios/semihosting.c:60
401009cc:	e96d 7e02 	strd	r7, lr, [sp, #-8]!
401009d0:	b086      	sub	sp, #24
401009d2:	af00      	add	r7, sp, #0
401009d4:	6078      	str	r0, [r7, #4]
401009d6:	6039      	str	r1, [r7, #0]
/home/zhangxiang/Downloads/op-tee2/OP-TEE/bios_qemu_tz_arm/bios/semihosting.c:64
401009d8:	687b      	ldr	r3, [r7, #4]
401009da:	60fb      	str	r3, [r7, #12]
/home/zhangxiang/Downloads/op-tee2/OP-TEE/bios_qemu_tz_arm/bios/semihosting.c:65
401009dc:	683b      	ldr	r3, [r7, #0]
401009de:	613b      	str	r3, [r7, #16]
/home/zhangxiang/Downloads/op-tee2/OP-TEE/bios_qemu_tz_arm/bios/semihosting.c:67
401009e0:	f107 030c 	add.w	r3, r7, #12
401009e4:	4619      	mov	r1, r3
401009e6:	f04f 000a 	mov.w	r0, #10
401009ea:	f640 532c 	movw	r3, #3372	; 0xd2c
401009ee:	f2c4 0310 	movt	r3, #16400	; 0x4010
401009f2:	4798      	blx	r3
401009f4:	6178      	str	r0, [r7, #20]
/home/zhangxiang/Downloads/op-tee2/OP-TEE/bios_qemu_tz_arm/bios/semihosting.c:70
401009f6:	697b      	ldr	r3, [r7, #20]
401009f8:	2b00      	cmp	r3, #0
401009fa:	d009      	beq.n	40100a10 <semihosting_file_seek+0x44>
/home/zhangxiang/Downloads/op-tee2/OP-TEE/bios_qemu_tz_arm/bios/semihosting.c:71
401009fc:	f04f 0100 	mov.w	r1, #0
40100a00:	f04f 0013 	mov.w	r0, #19
40100a04:	f640 532c 	movw	r3, #3372	; 0xd2c
40100a08:	f2c4 0310 	movt	r3, #16400	; 0x4010
40100a0c:	4798      	blx	r3
40100a0e:	6178      	str	r0, [r7, #20]
/home/zhangxiang/Downloads/op-tee2/OP-TEE/bios_qemu_tz_arm/bios/semihosting.c:73
40100a10:	697b      	ldr	r3, [r7, #20]
/home/zhangxiang/Downloads/op-tee2/OP-TEE/bios_qemu_tz_arm/bios/semihosting.c:74
40100a12:	4618      	mov	r0, r3
40100a14:	f107 0718 	add.w	r7, r7, #24
40100a18:	46bd      	mov	sp, r7
40100a1a:	bd80      	pop	{r7, pc}

40100a1c <semihosting_file_read>:
semihosting_file_read():
/home/zhangxiang/Downloads/op-tee2/OP-TEE/bios_qemu_tz_arm/bios/semihosting.c:77
40100a1c:	e96d 7e02 	strd	r7, lr, [sp, #-8]!
40100a20:	b088      	sub	sp, #32
40100a22:	af00      	add	r7, sp, #0
40100a24:	60f8      	str	r0, [r7, #12]
40100a26:	60b9      	str	r1, [r7, #8]
40100a28:	607a      	str	r2, [r7, #4]
/home/zhangxiang/Downloads/op-tee2/OP-TEE/bios_qemu_tz_arm/bios/semihosting.c:79
40100a2a:	f06f 0315 	mvn.w	r3, #21
40100a2e:	61fb      	str	r3, [r7, #28]
/home/zhangxiang/Downloads/op-tee2/OP-TEE/bios_qemu_tz_arm/bios/semihosting.c:81
40100a30:	68bb      	ldr	r3, [r7, #8]
40100a32:	2b00      	cmp	r3, #0
40100a34:	d002      	beq.n	40100a3c <semihosting_file_read+0x20>
/home/zhangxiang/Downloads/op-tee2/OP-TEE/bios_qemu_tz_arm/bios/semihosting.c:81 (discriminator 1)
40100a36:	687b      	ldr	r3, [r7, #4]
40100a38:	2b00      	cmp	r3, #0
40100a3a:	d101      	bne.n	40100a40 <semihosting_file_read+0x24>
/home/zhangxiang/Downloads/op-tee2/OP-TEE/bios_qemu_tz_arm/bios/semihosting.c:82
40100a3c:	69fb      	ldr	r3, [r7, #28]
40100a3e:	e02b      	b.n	40100a98 <semihosting_file_read+0x7c>
/home/zhangxiang/Downloads/op-tee2/OP-TEE/bios_qemu_tz_arm/bios/semihosting.c:84
40100a40:	68fb      	ldr	r3, [r7, #12]
40100a42:	613b      	str	r3, [r7, #16]
/home/zhangxiang/Downloads/op-tee2/OP-TEE/bios_qemu_tz_arm/bios/semihosting.c:85
40100a44:	687b      	ldr	r3, [r7, #4]
40100a46:	617b      	str	r3, [r7, #20]
/home/zhangxiang/Downloads/op-tee2/OP-TEE/bios_qemu_tz_arm/bios/semihosting.c:86
40100a48:	68bb      	ldr	r3, [r7, #8]
40100a4a:	681b      	ldr	r3, [r3, #0]
40100a4c:	61bb      	str	r3, [r7, #24]
/home/zhangxiang/Downloads/op-tee2/OP-TEE/bios_qemu_tz_arm/bios/semihosting.c:88
40100a4e:	f107 0310 	add.w	r3, r7, #16
40100a52:	4619      	mov	r1, r3
40100a54:	f04f 0006 	mov.w	r0, #6
40100a58:	f640 532c 	movw	r3, #3372	; 0xd2c
40100a5c:	f2c4 0310 	movt	r3, #16400	; 0x4010
40100a60:	4798      	blx	r3
40100a62:	61f8      	str	r0, [r7, #28]
/home/zhangxiang/Downloads/op-tee2/OP-TEE/bios_qemu_tz_arm/bios/semihosting.c:91
40100a64:	68bb      	ldr	r3, [r7, #8]
40100a66:	681b      	ldr	r3, [r3, #0]
40100a68:	461a      	mov	r2, r3
40100a6a:	69fb      	ldr	r3, [r7, #28]
40100a6c:	429a      	cmp	r2, r3
40100a6e:	d102      	bne.n	40100a76 <semihosting_file_read+0x5a>
/home/zhangxiang/Downloads/op-tee2/OP-TEE/bios_qemu_tz_arm/bios/semihosting.c:92
40100a70:	f06f 0315 	mvn.w	r3, #21
40100a74:	e010      	b.n	40100a98 <semihosting_file_read+0x7c>
/home/zhangxiang/Downloads/op-tee2/OP-TEE/bios_qemu_tz_arm/bios/semihosting.c:93
40100a76:	68bb      	ldr	r3, [r7, #8]
40100a78:	681b      	ldr	r3, [r3, #0]
40100a7a:	461a      	mov	r2, r3
40100a7c:	69fb      	ldr	r3, [r7, #28]
40100a7e:	429a      	cmp	r2, r3
40100a80:	dd09      	ble.n	40100a96 <semihosting_file_read+0x7a>
/home/zhangxiang/Downloads/op-tee2/OP-TEE/bios_qemu_tz_arm/bios/semihosting.c:94
40100a82:	68bb      	ldr	r3, [r7, #8]
40100a84:	681a      	ldr	r2, [r3, #0]
40100a86:	69fb      	ldr	r3, [r7, #28]
40100a88:	eba2 0203 	sub.w	r2, r2, r3
40100a8c:	68bb      	ldr	r3, [r7, #8]
40100a8e:	601a      	str	r2, [r3, #0]
/home/zhangxiang/Downloads/op-tee2/OP-TEE/bios_qemu_tz_arm/bios/semihosting.c:95
40100a90:	f04f 0300 	mov.w	r3, #0
40100a94:	e000      	b.n	40100a98 <semihosting_file_read+0x7c>
/home/zhangxiang/Downloads/op-tee2/OP-TEE/bios_qemu_tz_arm/bios/semihosting.c:97
40100a96:	69fb      	ldr	r3, [r7, #28]
/home/zhangxiang/Downloads/op-tee2/OP-TEE/bios_qemu_tz_arm/bios/semihosting.c:98 (discriminator 1)
40100a98:	4618      	mov	r0, r3
40100a9a:	f107 0720 	add.w	r7, r7, #32
40100a9e:	46bd      	mov	sp, r7
40100aa0:	bd80      	pop	{r7, pc}

40100aa2 <semihosting_file_write>:
semihosting_file_write():
/home/zhangxiang/Downloads/op-tee2/OP-TEE/bios_qemu_tz_arm/bios/semihosting.c:103
40100aa2:	e96d 7e02 	strd	r7, lr, [sp, #-8]!
40100aa6:	b088      	sub	sp, #32
40100aa8:	af00      	add	r7, sp, #0
40100aaa:	60f8      	str	r0, [r7, #12]
40100aac:	60b9      	str	r1, [r7, #8]
40100aae:	607a      	str	r2, [r7, #4]
/home/zhangxiang/Downloads/op-tee2/OP-TEE/bios_qemu_tz_arm/bios/semihosting.c:105
40100ab0:	f06f 0315 	mvn.w	r3, #21
40100ab4:	61fb      	str	r3, [r7, #28]
/home/zhangxiang/Downloads/op-tee2/OP-TEE/bios_qemu_tz_arm/bios/semihosting.c:107
40100ab6:	68bb      	ldr	r3, [r7, #8]
40100ab8:	2b00      	cmp	r3, #0
40100aba:	d002      	beq.n	40100ac2 <semihosting_file_write+0x20>
/home/zhangxiang/Downloads/op-tee2/OP-TEE/bios_qemu_tz_arm/bios/semihosting.c:107 (discriminator 1)
40100abc:	687b      	ldr	r3, [r7, #4]
40100abe:	2b00      	cmp	r3, #0
40100ac0:	d102      	bne.n	40100ac8 <semihosting_file_write+0x26>
/home/zhangxiang/Downloads/op-tee2/OP-TEE/bios_qemu_tz_arm/bios/semihosting.c:108
40100ac2:	f06f 0315 	mvn.w	r3, #21
40100ac6:	e01c      	b.n	40100b02 <semihosting_file_write+0x60>
/home/zhangxiang/Downloads/op-tee2/OP-TEE/bios_qemu_tz_arm/bios/semihosting.c:110
40100ac8:	68fb      	ldr	r3, [r7, #12]
40100aca:	613b      	str	r3, [r7, #16]
/home/zhangxiang/Downloads/op-tee2/OP-TEE/bios_qemu_tz_arm/bios/semihosting.c:111
40100acc:	687b      	ldr	r3, [r7, #4]
40100ace:	617b      	str	r3, [r7, #20]
/home/zhangxiang/Downloads/op-tee2/OP-TEE/bios_qemu_tz_arm/bios/semihosting.c:112
40100ad0:	68bb      	ldr	r3, [r7, #8]
40100ad2:	681b      	ldr	r3, [r3, #0]
40100ad4:	61bb      	str	r3, [r7, #24]
/home/zhangxiang/Downloads/op-tee2/OP-TEE/bios_qemu_tz_arm/bios/semihosting.c:114
40100ad6:	f107 0310 	add.w	r3, r7, #16
40100ada:	4619      	mov	r1, r3
40100adc:	f04f 0005 	mov.w	r0, #5
40100ae0:	f640 532c 	movw	r3, #3372	; 0xd2c
40100ae4:	f2c4 0310 	movt	r3, #16400	; 0x4010
40100ae8:	4798      	blx	r3
40100aea:	61f8      	str	r0, [r7, #28]
/home/zhangxiang/Downloads/op-tee2/OP-TEE/bios_qemu_tz_arm/bios/semihosting.c:117
40100aec:	69fa      	ldr	r2, [r7, #28]
40100aee:	68bb      	ldr	r3, [r7, #8]
40100af0:	601a      	str	r2, [r3, #0]
/home/zhangxiang/Downloads/op-tee2/OP-TEE/bios_qemu_tz_arm/bios/semihosting.c:119
40100af2:	69fb      	ldr	r3, [r7, #28]
40100af4:	2b00      	cmp	r3, #0
40100af6:	d102      	bne.n	40100afe <semihosting_file_write+0x5c>
/home/zhangxiang/Downloads/op-tee2/OP-TEE/bios_qemu_tz_arm/bios/semihosting.c:119 (discriminator 1)
40100af8:	f04f 0300 	mov.w	r3, #0
40100afc:	e001      	b.n	40100b02 <semihosting_file_write+0x60>
/home/zhangxiang/Downloads/op-tee2/OP-TEE/bios_qemu_tz_arm/bios/semihosting.c:119 (discriminator 2)
40100afe:	f06f 0315 	mvn.w	r3, #21
/home/zhangxiang/Downloads/op-tee2/OP-TEE/bios_qemu_tz_arm/bios/semihosting.c:120 (discriminator 1)
40100b02:	4618      	mov	r0, r3
40100b04:	f107 0720 	add.w	r7, r7, #32
40100b08:	46bd      	mov	sp, r7
40100b0a:	bd80      	pop	{r7, pc}

40100b0c <semihosting_file_close>:
semihosting_file_close():
/home/zhangxiang/Downloads/op-tee2/OP-TEE/bios_qemu_tz_arm/bios/semihosting.c:123
40100b0c:	e96d 7e02 	strd	r7, lr, [sp, #-8]!
40100b10:	b082      	sub	sp, #8
40100b12:	af00      	add	r7, sp, #0
40100b14:	6078      	str	r0, [r7, #4]
/home/zhangxiang/Downloads/op-tee2/OP-TEE/bios_qemu_tz_arm/bios/semihosting.c:124
40100b16:	f107 0304 	add.w	r3, r7, #4
40100b1a:	4619      	mov	r1, r3
40100b1c:	f04f 0002 	mov.w	r0, #2
40100b20:	f640 532c 	movw	r3, #3372	; 0xd2c
40100b24:	f2c4 0310 	movt	r3, #16400	; 0x4010
40100b28:	4798      	blx	r3
40100b2a:	4603      	mov	r3, r0
/home/zhangxiang/Downloads/op-tee2/OP-TEE/bios_qemu_tz_arm/bios/semihosting.c:126
40100b2c:	4618      	mov	r0, r3
40100b2e:	f107 0708 	add.w	r7, r7, #8
40100b32:	46bd      	mov	sp, r7
40100b34:	bd80      	pop	{r7, pc}

40100b36 <semihosting_file_length>:
semihosting_file_length():
/home/zhangxiang/Downloads/op-tee2/OP-TEE/bios_qemu_tz_arm/bios/semihosting.c:129
40100b36:	e96d 7e02 	strd	r7, lr, [sp, #-8]!
40100b3a:	b082      	sub	sp, #8
40100b3c:	af00      	add	r7, sp, #0
40100b3e:	6078      	str	r0, [r7, #4]
/home/zhangxiang/Downloads/op-tee2/OP-TEE/bios_qemu_tz_arm/bios/semihosting.c:130
40100b40:	f107 0304 	add.w	r3, r7, #4
40100b44:	4619      	mov	r1, r3
40100b46:	f04f 000c 	mov.w	r0, #12
40100b4a:	f640 532c 	movw	r3, #3372	; 0xd2c
40100b4e:	f2c4 0310 	movt	r3, #16400	; 0x4010
40100b52:	4798      	blx	r3
40100b54:	4603      	mov	r3, r0
/home/zhangxiang/Downloads/op-tee2/OP-TEE/bios_qemu_tz_arm/bios/semihosting.c:132
40100b56:	4618      	mov	r0, r3
40100b58:	f107 0708 	add.w	r7, r7, #8
40100b5c:	46bd      	mov	sp, r7
40100b5e:	bd80      	pop	{r7, pc}

40100b60 <semihosting_read_char>:
semihosting_read_char():
/home/zhangxiang/Downloads/op-tee2/OP-TEE/bios_qemu_tz_arm/bios/semihosting.c:135
40100b60:	e96d 7e02 	strd	r7, lr, [sp, #-8]!
40100b64:	af00      	add	r7, sp, #0
/home/zhangxiang/Downloads/op-tee2/OP-TEE/bios_qemu_tz_arm/bios/semihosting.c:136
40100b66:	f04f 0100 	mov.w	r1, #0
40100b6a:	f04f 0007 	mov.w	r0, #7
40100b6e:	f640 532c 	movw	r3, #3372	; 0xd2c
40100b72:	f2c4 0310 	movt	r3, #16400	; 0x4010
40100b76:	4798      	blx	r3
40100b78:	4603      	mov	r3, r0
40100b7a:	b2db      	uxtb	r3, r3
/home/zhangxiang/Downloads/op-tee2/OP-TEE/bios_qemu_tz_arm/bios/semihosting.c:137
40100b7c:	4618      	mov	r0, r3
40100b7e:	46bd      	mov	sp, r7
40100b80:	bd80      	pop	{r7, pc}

40100b82 <semihosting_write_char>:
semihosting_write_char():
/home/zhangxiang/Downloads/op-tee2/OP-TEE/bios_qemu_tz_arm/bios/semihosting.c:140
40100b82:	e96d 7e02 	strd	r7, lr, [sp, #-8]!
40100b86:	b082      	sub	sp, #8
40100b88:	af00      	add	r7, sp, #0
40100b8a:	4603      	mov	r3, r0
40100b8c:	71fb      	strb	r3, [r7, #7]
/home/zhangxiang/Downloads/op-tee2/OP-TEE/bios_qemu_tz_arm/bios/semihosting.c:141
40100b8e:	f107 0307 	add.w	r3, r7, #7
40100b92:	4619      	mov	r1, r3
40100b94:	f04f 0003 	mov.w	r0, #3
40100b98:	f640 532c 	movw	r3, #3372	; 0xd2c
40100b9c:	f2c4 0310 	movt	r3, #16400	; 0x4010
40100ba0:	4798      	blx	r3
/home/zhangxiang/Downloads/op-tee2/OP-TEE/bios_qemu_tz_arm/bios/semihosting.c:142
40100ba2:	bf00      	nop
40100ba4:	f107 0708 	add.w	r7, r7, #8
40100ba8:	46bd      	mov	sp, r7
40100baa:	bd80      	pop	{r7, pc}

40100bac <semihosting_write_string>:
semihosting_write_string():
/home/zhangxiang/Downloads/op-tee2/OP-TEE/bios_qemu_tz_arm/bios/semihosting.c:145
40100bac:	e96d 7e02 	strd	r7, lr, [sp, #-8]!
40100bb0:	b082      	sub	sp, #8
40100bb2:	af00      	add	r7, sp, #0
40100bb4:	6078      	str	r0, [r7, #4]
/home/zhangxiang/Downloads/op-tee2/OP-TEE/bios_qemu_tz_arm/bios/semihosting.c:146
40100bb6:	6879      	ldr	r1, [r7, #4]
40100bb8:	f04f 0004 	mov.w	r0, #4
40100bbc:	f640 532c 	movw	r3, #3372	; 0xd2c
40100bc0:	f2c4 0310 	movt	r3, #16400	; 0x4010
40100bc4:	4798      	blx	r3
/home/zhangxiang/Downloads/op-tee2/OP-TEE/bios_qemu_tz_arm/bios/semihosting.c:147
40100bc6:	bf00      	nop
40100bc8:	f107 0708 	add.w	r7, r7, #8
40100bcc:	46bd      	mov	sp, r7
40100bce:	bd80      	pop	{r7, pc}

40100bd0 <semihosting_system>:
semihosting_system():
/home/zhangxiang/Downloads/op-tee2/OP-TEE/bios_qemu_tz_arm/bios/semihosting.c:150
40100bd0:	e96d 7e02 	strd	r7, lr, [sp, #-8]!
40100bd4:	b084      	sub	sp, #16
40100bd6:	af00      	add	r7, sp, #0
40100bd8:	6078      	str	r0, [r7, #4]
/home/zhangxiang/Downloads/op-tee2/OP-TEE/bios_qemu_tz_arm/bios/semihosting.c:153
40100bda:	687b      	ldr	r3, [r7, #4]
40100bdc:	60bb      	str	r3, [r7, #8]
/home/zhangxiang/Downloads/op-tee2/OP-TEE/bios_qemu_tz_arm/bios/semihosting.c:154
40100bde:	6878      	ldr	r0, [r7, #4]
40100be0:	f644 239d 	movw	r3, #19101	; 0x4a9d
40100be4:	f2c4 0310 	movt	r3, #16400	; 0x4010
40100be8:	4798      	blx	r3
40100bea:	4603      	mov	r3, r0
40100bec:	60fb      	str	r3, [r7, #12]
/home/zhangxiang/Downloads/op-tee2/OP-TEE/bios_qemu_tz_arm/bios/semihosting.c:156
40100bee:	f107 0308 	add.w	r3, r7, #8
40100bf2:	4619      	mov	r1, r3
40100bf4:	f04f 0012 	mov.w	r0, #18
40100bf8:	f640 532c 	movw	r3, #3372	; 0xd2c
40100bfc:	f2c4 0310 	movt	r3, #16400	; 0x4010
40100c00:	4798      	blx	r3
40100c02:	4603      	mov	r3, r0
/home/zhangxiang/Downloads/op-tee2/OP-TEE/bios_qemu_tz_arm/bios/semihosting.c:158
40100c04:	4618      	mov	r0, r3
40100c06:	f107 0710 	add.w	r7, r7, #16
40100c0a:	46bd      	mov	sp, r7
40100c0c:	bd80      	pop	{r7, pc}

40100c0e <semihosting_get_flen>:
semihosting_get_flen():
/home/zhangxiang/Downloads/op-tee2/OP-TEE/bios_qemu_tz_arm/bios/semihosting.c:161
40100c0e:	e96d 7e02 	strd	r7, lr, [sp, #-8]!
40100c12:	b084      	sub	sp, #16
40100c14:	af00      	add	r7, sp, #0
40100c16:	6078      	str	r0, [r7, #4]
/home/zhangxiang/Downloads/op-tee2/OP-TEE/bios_qemu_tz_arm/bios/semihosting.c:165
40100c18:	f7ff feac 	bl	40100974 <semihosting_connection_supported>
40100c1c:	4603      	mov	r3, r0
40100c1e:	2b00      	cmp	r3, #0
40100c20:	d10d      	bne.n	40100c3e <semihosting_get_flen+0x30>
/home/zhangxiang/Downloads/op-tee2/OP-TEE/bios_qemu_tz_arm/bios/semihosting.c:165 (discriminator 1)
40100c22:	f04f 02a5 	mov.w	r2, #165	; 0xa5
40100c26:	f245 2194 	movw	r1, #21140	; 0x5294
40100c2a:	f2c4 0110 	movt	r1, #16400	; 0x4010
40100c2e:	f245 20a8 	movw	r0, #21160	; 0x52a8
40100c32:	f2c4 0010 	movt	r0, #16400	; 0x4010
40100c36:	f7ff fe7f 	bl	40100938 <_assert_log>
40100c3a:	f7ff fe79 	bl	40100930 <_assert_break>
/home/zhangxiang/Downloads/op-tee2/OP-TEE/bios_qemu_tz_arm/bios/semihosting.c:167
40100c3e:	f04f 0101 	mov.w	r1, #1
40100c42:	6878      	ldr	r0, [r7, #4]
40100c44:	f7ff fea0 	bl	40100988 <semihosting_file_open>
40100c48:	60f8      	str	r0, [r7, #12]
/home/zhangxiang/Downloads/op-tee2/OP-TEE/bios_qemu_tz_arm/bios/semihosting.c:168
40100c4a:	68fb      	ldr	r3, [r7, #12]
40100c4c:	f1b3 3fff 	cmp.w	r3, #4294967295	; 0xffffffff
40100c50:	d101      	bne.n	40100c56 <semihosting_get_flen+0x48>
/home/zhangxiang/Downloads/op-tee2/OP-TEE/bios_qemu_tz_arm/bios/semihosting.c:169
40100c52:	68fb      	ldr	r3, [r7, #12]
40100c54:	e00e      	b.n	40100c74 <semihosting_get_flen+0x66>
/home/zhangxiang/Downloads/op-tee2/OP-TEE/bios_qemu_tz_arm/bios/semihosting.c:172
40100c56:	68f8      	ldr	r0, [r7, #12]
40100c58:	f7ff ff6d 	bl	40100b36 <semihosting_file_length>
40100c5c:	4603      	mov	r3, r0
40100c5e:	60bb      	str	r3, [r7, #8]
/home/zhangxiang/Downloads/op-tee2/OP-TEE/bios_qemu_tz_arm/bios/semihosting.c:174
40100c60:	68f8      	ldr	r0, [r7, #12]
40100c62:	f7ff ff53 	bl	40100b0c <semihosting_file_close>
40100c66:	4603      	mov	r3, r0
40100c68:	2b00      	cmp	r3, #0
40100c6a:	d101      	bne.n	40100c70 <semihosting_get_flen+0x62>
/home/zhangxiang/Downloads/op-tee2/OP-TEE/bios_qemu_tz_arm/bios/semihosting.c:174 (discriminator 1)
40100c6c:	68bb      	ldr	r3, [r7, #8]
40100c6e:	e001      	b.n	40100c74 <semihosting_get_flen+0x66>
/home/zhangxiang/Downloads/op-tee2/OP-TEE/bios_qemu_tz_arm/bios/semihosting.c:174 (discriminator 2)
40100c70:	f04f 33ff 	mov.w	r3, #4294967295	; 0xffffffff
/home/zhangxiang/Downloads/op-tee2/OP-TEE/bios_qemu_tz_arm/bios/semihosting.c:175
40100c74:	4618      	mov	r0, r3
40100c76:	f107 0710 	add.w	r7, r7, #16
40100c7a:	46bd      	mov	sp, r7
40100c7c:	bd80      	pop	{r7, pc}

40100c7e <semihosting_download_file>:
semihosting_download_file():
/home/zhangxiang/Downloads/op-tee2/OP-TEE/bios_qemu_tz_arm/bios/semihosting.c:180
40100c7e:	e96d 7e02 	strd	r7, lr, [sp, #-8]!
40100c82:	b088      	sub	sp, #32
40100c84:	af00      	add	r7, sp, #0
40100c86:	60f8      	str	r0, [r7, #12]
40100c88:	60b9      	str	r1, [r7, #8]
40100c8a:	607a      	str	r2, [r7, #4]
/home/zhangxiang/Downloads/op-tee2/OP-TEE/bios_qemu_tz_arm/bios/semihosting.c:181
40100c8c:	f06f 0315 	mvn.w	r3, #21
40100c90:	61fb      	str	r3, [r7, #28]
/home/zhangxiang/Downloads/op-tee2/OP-TEE/bios_qemu_tz_arm/bios/semihosting.c:186
40100c92:	687b      	ldr	r3, [r7, #4]
40100c94:	2b00      	cmp	r3, #0
40100c96:	d101      	bne.n	40100c9c <semihosting_download_file+0x1e>
/home/zhangxiang/Downloads/op-tee2/OP-TEE/bios_qemu_tz_arm/bios/semihosting.c:187
40100c98:	69fb      	ldr	r3, [r7, #28]
40100c9a:	e042      	b.n	40100d22 <semihosting_download_file+0xa4>
/home/zhangxiang/Downloads/op-tee2/OP-TEE/bios_qemu_tz_arm/bios/semihosting.c:189
40100c9c:	f7ff fe6a 	bl	40100974 <semihosting_connection_supported>
40100ca0:	4603      	mov	r3, r0
40100ca2:	2b00      	cmp	r3, #0
40100ca4:	d10d      	bne.n	40100cc2 <semihosting_download_file+0x44>
/home/zhangxiang/Downloads/op-tee2/OP-TEE/bios_qemu_tz_arm/bios/semihosting.c:189 (discriminator 1)
40100ca6:	f04f 02bd 	mov.w	r2, #189	; 0xbd
40100caa:	f245 2194 	movw	r1, #21140	; 0x5294
40100cae:	f2c4 0110 	movt	r1, #16400	; 0x4010
40100cb2:	f245 20a8 	movw	r0, #21160	; 0x52a8
40100cb6:	f2c4 0010 	movt	r0, #16400	; 0x4010
40100cba:	f7ff fe3d 	bl	40100938 <_assert_log>
40100cbe:	f7ff fe37 	bl	40100930 <_assert_break>
/home/zhangxiang/Downloads/op-tee2/OP-TEE/bios_qemu_tz_arm/bios/semihosting.c:191
40100cc2:	f04f 0101 	mov.w	r1, #1
40100cc6:	68f8      	ldr	r0, [r7, #12]
40100cc8:	f7ff fe5e 	bl	40100988 <semihosting_file_open>
40100ccc:	61b8      	str	r0, [r7, #24]
/home/zhangxiang/Downloads/op-tee2/OP-TEE/bios_qemu_tz_arm/bios/semihosting.c:192
40100cce:	69bb      	ldr	r3, [r7, #24]
40100cd0:	f1b3 3fff 	cmp.w	r3, #4294967295	; 0xffffffff
40100cd4:	d101      	bne.n	40100cda <semihosting_download_file+0x5c>
/home/zhangxiang/Downloads/op-tee2/OP-TEE/bios_qemu_tz_arm/bios/semihosting.c:193
40100cd6:	69fb      	ldr	r3, [r7, #28]
40100cd8:	e023      	b.n	40100d22 <semihosting_download_file+0xa4>
/home/zhangxiang/Downloads/op-tee2/OP-TEE/bios_qemu_tz_arm/bios/semihosting.c:196
40100cda:	69b8      	ldr	r0, [r7, #24]
40100cdc:	f7ff ff2b 	bl	40100b36 <semihosting_file_length>
40100ce0:	4603      	mov	r3, r0
40100ce2:	617b      	str	r3, [r7, #20]
/home/zhangxiang/Downloads/op-tee2/OP-TEE/bios_qemu_tz_arm/bios/semihosting.c:197
40100ce4:	697b      	ldr	r3, [r7, #20]
40100ce6:	f1b3 3fff 	cmp.w	r3, #4294967295	; 0xffffffff
40100cea:	d011      	beq.n	40100d10 <semihosting_download_file+0x92>
/home/zhangxiang/Downloads/op-tee2/OP-TEE/bios_qemu_tz_arm/bios/semihosting.c:201
40100cec:	697a      	ldr	r2, [r7, #20]
40100cee:	68bb      	ldr	r3, [r7, #8]
40100cf0:	429a      	cmp	r2, r3
40100cf2:	d80f      	bhi.n	40100d14 <semihosting_download_file+0x96>
/home/zhangxiang/Downloads/op-tee2/OP-TEE/bios_qemu_tz_arm/bios/semihosting.c:209
40100cf4:	f107 0314 	add.w	r3, r7, #20
40100cf8:	687a      	ldr	r2, [r7, #4]
40100cfa:	4619      	mov	r1, r3
40100cfc:	69b8      	ldr	r0, [r7, #24]
40100cfe:	f7ff fe8d 	bl	40100a1c <semihosting_file_read>
40100d02:	61f8      	str	r0, [r7, #28]
/home/zhangxiang/Downloads/op-tee2/OP-TEE/bios_qemu_tz_arm/bios/semihosting.c:210
40100d04:	69fb      	ldr	r3, [r7, #28]
40100d06:	2b00      	cmp	r3, #0
40100d08:	d106      	bne.n	40100d18 <semihosting_download_file+0x9a>
/home/zhangxiang/Downloads/op-tee2/OP-TEE/bios_qemu_tz_arm/bios/semihosting.c:213
40100d0a:	697b      	ldr	r3, [r7, #20]
40100d0c:	61fb      	str	r3, [r7, #28]
40100d0e:	e004      	b.n	40100d1a <semihosting_download_file+0x9c>
/home/zhangxiang/Downloads/op-tee2/OP-TEE/bios_qemu_tz_arm/bios/semihosting.c:198
40100d10:	bf00      	nop
40100d12:	e002      	b.n	40100d1a <semihosting_download_file+0x9c>
/home/zhangxiang/Downloads/op-tee2/OP-TEE/bios_qemu_tz_arm/bios/semihosting.c:202
40100d14:	bf00      	nop
40100d16:	e000      	b.n	40100d1a <semihosting_download_file+0x9c>
/home/zhangxiang/Downloads/op-tee2/OP-TEE/bios_qemu_tz_arm/bios/semihosting.c:211
40100d18:	bf00      	nop
/home/zhangxiang/Downloads/op-tee2/OP-TEE/bios_qemu_tz_arm/bios/semihosting.c:216
40100d1a:	69b8      	ldr	r0, [r7, #24]
40100d1c:	f7ff fef6 	bl	40100b0c <semihosting_file_close>
/home/zhangxiang/Downloads/op-tee2/OP-TEE/bios_qemu_tz_arm/bios/semihosting.c:217
40100d20:	69fb      	ldr	r3, [r7, #28]
/home/zhangxiang/Downloads/op-tee2/OP-TEE/bios_qemu_tz_arm/bios/semihosting.c:218 (discriminator 1)
40100d22:	4618      	mov	r0, r3
40100d24:	f107 0720 	add.w	r7, r7, #32
40100d28:	46bd      	mov	sp, r7
40100d2a:	bd80      	pop	{r7, pc}

40100d2c <semihosting_call>:
semihosting_call():
/home/zhangxiang/Downloads/op-tee2/OP-TEE/bios_qemu_tz_arm/bios/semihosting_call.S:15
40100d2c:	ef123456 	svc	0x00123456
/home/zhangxiang/Downloads/op-tee2/OP-TEE/bios_qemu_tz_arm/bios/semihosting_call.S:16
40100d30:	e12fff1e 	bx	lr

40100d34 <write32>:
write32():
/home/zhangxiang/Downloads/op-tee2/OP-TEE/bios_qemu_tz_arm/include/io.h:44
40100d34:	f84d 7d04 	str.w	r7, [sp, #-4]!
40100d38:	b083      	sub	sp, #12
40100d3a:	af00      	add	r7, sp, #0
40100d3c:	6078      	str	r0, [r7, #4]
40100d3e:	6039      	str	r1, [r7, #0]
/home/zhangxiang/Downloads/op-tee2/OP-TEE/bios_qemu_tz_arm/include/io.h:45
40100d40:	683b      	ldr	r3, [r7, #0]
40100d42:	687a      	ldr	r2, [r7, #4]
40100d44:	601a      	str	r2, [r3, #0]
/home/zhangxiang/Downloads/op-tee2/OP-TEE/bios_qemu_tz_arm/include/io.h:46
40100d46:	bf00      	nop
40100d48:	f107 070c 	add.w	r7, r7, #12
40100d4c:	46bd      	mov	sp, r7
40100d4e:	f85d 7b04 	ldr.w	r7, [sp], #4
40100d52:	4770      	bx	lr

40100d54 <read32>:
read32():
/home/zhangxiang/Downloads/op-tee2/OP-TEE/bios_qemu_tz_arm/include/io.h:59
40100d54:	f84d 7d04 	str.w	r7, [sp, #-4]!
40100d58:	b083      	sub	sp, #12
40100d5a:	af00      	add	r7, sp, #0
40100d5c:	6078      	str	r0, [r7, #4]
/home/zhangxiang/Downloads/op-tee2/OP-TEE/bios_qemu_tz_arm/include/io.h:60
40100d5e:	687b      	ldr	r3, [r7, #4]
40100d60:	681b      	ldr	r3, [r3, #0]
/home/zhangxiang/Downloads/op-tee2/OP-TEE/bios_qemu_tz_arm/include/io.h:61
40100d62:	4618      	mov	r0, r3
40100d64:	f107 070c 	add.w	r7, r7, #12
40100d68:	46bd      	mov	sp, r7
40100d6a:	f85d 7b04 	ldr.w	r7, [sp], #4
40100d6e:	4770      	bx	lr

40100d70 <uart_flush_tx_fifo>:
uart_flush_tx_fifo():
/home/zhangxiang/Downloads/op-tee2/OP-TEE/bios_qemu_tz_arm/drivers/uart.c:93
40100d70:	e96d 7e02 	strd	r7, lr, [sp, #-8]!
40100d74:	b082      	sub	sp, #8
40100d76:	af00      	add	r7, sp, #0
40100d78:	6078      	str	r0, [r7, #4]
/home/zhangxiang/Downloads/op-tee2/OP-TEE/bios_qemu_tz_arm/drivers/uart.c:94
40100d7a:	bf00      	nop
/home/zhangxiang/Downloads/op-tee2/OP-TEE/bios_qemu_tz_arm/drivers/uart.c:94 (discriminator 1)
40100d7c:	687b      	ldr	r3, [r7, #4]
40100d7e:	f103 0318 	add.w	r3, r3, #24
40100d82:	4618      	mov	r0, r3
40100d84:	f7ff ffe6 	bl	40100d54 <read32>
40100d88:	4603      	mov	r3, r0
40100d8a:	f003 0380 	and.w	r3, r3, #128	; 0x80
40100d8e:	2b00      	cmp	r3, #0
40100d90:	d0f4      	beq.n	40100d7c <uart_flush_tx_fifo+0xc>
/home/zhangxiang/Downloads/op-tee2/OP-TEE/bios_qemu_tz_arm/drivers/uart.c:96
40100d92:	bf00      	nop
40100d94:	f107 0708 	add.w	r7, r7, #8
40100d98:	46bd      	mov	sp, r7
40100d9a:	bd80      	pop	{r7, pc}

40100d9c <uart_init>:
uart_init():
/home/zhangxiang/Downloads/op-tee2/OP-TEE/bios_qemu_tz_arm/drivers/uart.c:99
40100d9c:	e96d 7e02 	strd	r7, lr, [sp, #-8]!
40100da0:	b082      	sub	sp, #8
40100da2:	af00      	add	r7, sp, #0
40100da4:	6078      	str	r0, [r7, #4]
/home/zhangxiang/Downloads/op-tee2/OP-TEE/bios_qemu_tz_arm/drivers/uart.c:100
40100da6:	687b      	ldr	r3, [r7, #4]
40100da8:	f103 0304 	add.w	r3, r3, #4
40100dac:	4619      	mov	r1, r3
40100dae:	f04f 0000 	mov.w	r0, #0
40100db2:	f7ff ffbf 	bl	40100d34 <write32>
/home/zhangxiang/Downloads/op-tee2/OP-TEE/bios_qemu_tz_arm/drivers/uart.c:103
40100db6:	687b      	ldr	r3, [r7, #4]
40100db8:	f103 032c 	add.w	r3, r3, #44	; 0x2c
40100dbc:	4619      	mov	r1, r3
40100dbe:	f04f 0070 	mov.w	r0, #112	; 0x70
40100dc2:	f7ff ffb7 	bl	40100d34 <write32>
/home/zhangxiang/Downloads/op-tee2/OP-TEE/bios_qemu_tz_arm/drivers/uart.c:105
40100dc6:	687b      	ldr	r3, [r7, #4]
40100dc8:	f103 0338 	add.w	r3, r3, #56	; 0x38
40100dcc:	4619      	mov	r1, r3
40100dce:	f04f 0010 	mov.w	r0, #16
40100dd2:	f7ff ffaf 	bl	40100d34 <write32>
/home/zhangxiang/Downloads/op-tee2/OP-TEE/bios_qemu_tz_arm/drivers/uart.c:108
40100dd6:	687b      	ldr	r3, [r7, #4]
40100dd8:	f103 0330 	add.w	r3, r3, #48	; 0x30
40100ddc:	4619      	mov	r1, r3
40100dde:	f240 3001 	movw	r0, #769	; 0x301
40100de2:	f7ff ffa7 	bl	40100d34 <write32>
/home/zhangxiang/Downloads/op-tee2/OP-TEE/bios_qemu_tz_arm/drivers/uart.c:110
40100de6:	6878      	ldr	r0, [r7, #4]
40100de8:	f7ff ffc2 	bl	40100d70 <uart_flush_tx_fifo>
/home/zhangxiang/Downloads/op-tee2/OP-TEE/bios_qemu_tz_arm/drivers/uart.c:111
40100dec:	bf00      	nop
40100dee:	f107 0708 	add.w	r7, r7, #8
40100df2:	46bd      	mov	sp, r7
40100df4:	bd80      	pop	{r7, pc}

40100df6 <uart_putc>:
uart_putc():
/home/zhangxiang/Downloads/op-tee2/OP-TEE/bios_qemu_tz_arm/drivers/uart.c:114
40100df6:	e96d 7e02 	strd	r7, lr, [sp, #-8]!
40100dfa:	b082      	sub	sp, #8
40100dfc:	af00      	add	r7, sp, #0
40100dfe:	6078      	str	r0, [r7, #4]
40100e00:	6039      	str	r1, [r7, #0]
/home/zhangxiang/Downloads/op-tee2/OP-TEE/bios_qemu_tz_arm/drivers/uart.c:118
40100e02:	bf00      	nop
/home/zhangxiang/Downloads/op-tee2/OP-TEE/bios_qemu_tz_arm/drivers/uart.c:118 (discriminator 1)
40100e04:	683b      	ldr	r3, [r7, #0]
40100e06:	f103 0318 	add.w	r3, r3, #24
40100e0a:	4618      	mov	r0, r3
40100e0c:	f7ff ffa2 	bl	40100d54 <read32>
40100e10:	4603      	mov	r3, r0
40100e12:	f003 0320 	and.w	r3, r3, #32
40100e16:	2b00      	cmp	r3, #0
40100e18:	d1f4      	bne.n	40100e04 <uart_putc+0xe>
/home/zhangxiang/Downloads/op-tee2/OP-TEE/bios_qemu_tz_arm/drivers/uart.c:122
40100e1a:	687b      	ldr	r3, [r7, #4]
40100e1c:	6839      	ldr	r1, [r7, #0]
40100e1e:	4618      	mov	r0, r3
40100e20:	f7ff ff88 	bl	40100d34 <write32>
/home/zhangxiang/Downloads/op-tee2/OP-TEE/bios_qemu_tz_arm/drivers/uart.c:123
40100e24:	bf00      	nop
40100e26:	f107 0708 	add.w	r7, r7, #8
40100e2a:	46bd      	mov	sp, r7
40100e2c:	bd80      	pop	{r7, pc}

40100e2e <uart_have_rx_data>:
uart_have_rx_data():
/home/zhangxiang/Downloads/op-tee2/OP-TEE/bios_qemu_tz_arm/drivers/uart.c:126
40100e2e:	e96d 7e02 	strd	r7, lr, [sp, #-8]!
40100e32:	b082      	sub	sp, #8
40100e34:	af00      	add	r7, sp, #0
40100e36:	6078      	str	r0, [r7, #4]
/home/zhangxiang/Downloads/op-tee2/OP-TEE/bios_qemu_tz_arm/drivers/uart.c:127
40100e38:	687b      	ldr	r3, [r7, #4]
40100e3a:	f103 0318 	add.w	r3, r3, #24
40100e3e:	4618      	mov	r0, r3
40100e40:	f7ff ff88 	bl	40100d54 <read32>
40100e44:	4603      	mov	r3, r0
40100e46:	f003 0310 	and.w	r3, r3, #16
40100e4a:	2b00      	cmp	r3, #0
40100e4c:	bf0c      	ite	eq
40100e4e:	2301      	moveq	r3, #1
40100e50:	2300      	movne	r3, #0
40100e52:	b2db      	uxtb	r3, r3
/home/zhangxiang/Downloads/op-tee2/OP-TEE/bios_qemu_tz_arm/drivers/uart.c:128
40100e54:	4618      	mov	r0, r3
40100e56:	f107 0708 	add.w	r7, r7, #8
40100e5a:	46bd      	mov	sp, r7
40100e5c:	bd80      	pop	{r7, pc}

40100e5e <uart_getchar>:
uart_getchar():
/home/zhangxiang/Downloads/op-tee2/OP-TEE/bios_qemu_tz_arm/drivers/uart.c:131
40100e5e:	e96d 7e02 	strd	r7, lr, [sp, #-8]!
40100e62:	b082      	sub	sp, #8
40100e64:	af00      	add	r7, sp, #0
40100e66:	6078      	str	r0, [r7, #4]
/home/zhangxiang/Downloads/op-tee2/OP-TEE/bios_qemu_tz_arm/drivers/uart.c:132
40100e68:	bf00      	nop
/home/zhangxiang/Downloads/op-tee2/OP-TEE/bios_qemu_tz_arm/drivers/uart.c:132 (discriminator 1)
40100e6a:	6878      	ldr	r0, [r7, #4]
40100e6c:	f7ff ffdf 	bl	40100e2e <uart_have_rx_data>
40100e70:	4603      	mov	r3, r0
40100e72:	f083 0301 	eor.w	r3, r3, #1
40100e76:	b2db      	uxtb	r3, r3
40100e78:	2b00      	cmp	r3, #0
40100e7a:	d1f6      	bne.n	40100e6a <uart_getchar+0xc>
/home/zhangxiang/Downloads/op-tee2/OP-TEE/bios_qemu_tz_arm/drivers/uart.c:134
40100e7c:	6878      	ldr	r0, [r7, #4]
40100e7e:	f7ff ff69 	bl	40100d54 <read32>
40100e82:	4603      	mov	r3, r0
40100e84:	b2db      	uxtb	r3, r3
/home/zhangxiang/Downloads/op-tee2/OP-TEE/bios_qemu_tz_arm/drivers/uart.c:135
40100e86:	4618      	mov	r0, r3
40100e88:	f107 0708 	add.w	r7, r7, #8
40100e8c:	46bd      	mov	sp, r7
40100e8e:	bd80      	pop	{r7, pc}

40100e90 <fdt32_to_cpu>:
fdt32_to_cpu():
/home/zhangxiang/Downloads/op-tee2/OP-TEE/bios_qemu_tz_arm/libfdt/include/./libfdt_env.h:90
40100e90:	f84d 7d04 	str.w	r7, [sp, #-4]!
40100e94:	b083      	sub	sp, #12
40100e96:	af00      	add	r7, sp, #0
40100e98:	6078      	str	r0, [r7, #4]
/home/zhangxiang/Downloads/op-tee2/OP-TEE/bios_qemu_tz_arm/libfdt/include/./libfdt_env.h:91
40100e9a:	f107 0304 	add.w	r3, r7, #4
40100e9e:	781b      	ldrb	r3, [r3, #0]
40100ea0:	ea4f 6203 	mov.w	r2, r3, lsl #24
40100ea4:	f107 0304 	add.w	r3, r7, #4
40100ea8:	f103 0301 	add.w	r3, r3, #1
40100eac:	781b      	ldrb	r3, [r3, #0]
40100eae:	ea4f 4303 	mov.w	r3, r3, lsl #16
40100eb2:	ea42 0203 	orr.w	r2, r2, r3
40100eb6:	f107 0304 	add.w	r3, r7, #4
40100eba:	f103 0302 	add.w	r3, r3, #2
40100ebe:	781b      	ldrb	r3, [r3, #0]
40100ec0:	ea4f 2303 	mov.w	r3, r3, lsl #8
40100ec4:	ea42 0203 	orr.w	r2, r2, r3
40100ec8:	f107 0304 	add.w	r3, r7, #4
40100ecc:	f103 0303 	add.w	r3, r3, #3
40100ed0:	781b      	ldrb	r3, [r3, #0]
40100ed2:	ea43 0302 	orr.w	r3, r3, r2
/home/zhangxiang/Downloads/op-tee2/OP-TEE/bios_qemu_tz_arm/libfdt/include/./libfdt_env.h:92
40100ed6:	4618      	mov	r0, r3
40100ed8:	f107 070c 	add.w	r7, r7, #12
40100edc:	46bd      	mov	sp, r7
40100ede:	f85d 7b04 	ldr.w	r7, [sp], #4
40100ee2:	4770      	bx	lr

40100ee4 <fdt64_to_cpu>:
fdt64_to_cpu():
/home/zhangxiang/Downloads/op-tee2/OP-TEE/bios_qemu_tz_arm/libfdt/include/./libfdt_env.h:99
40100ee4:	e96d 4508 	strd	r4, r5, [sp, #-32]!
40100ee8:	e9cd 6702 	strd	r6, r7, [sp, #8]
40100eec:	e9cd 8904 	strd	r8, r9, [sp, #16]
40100ef0:	e9cd ab06 	strd	sl, fp, [sp, #24]
40100ef4:	b08a      	sub	sp, #40	; 0x28
40100ef6:	af00      	add	r7, sp, #0
40100ef8:	e9c7 0108 	strd	r0, r1, [r7, #32]
/home/zhangxiang/Downloads/op-tee2/OP-TEE/bios_qemu_tz_arm/libfdt/include/./libfdt_env.h:100
40100efc:	f107 0320 	add.w	r3, r7, #32
40100f00:	781b      	ldrb	r3, [r3, #0]
40100f02:	b2db      	uxtb	r3, r3
40100f04:	f04f 0400 	mov.w	r4, #0
40100f08:	ea4f 6303 	mov.w	r3, r3, lsl #24
40100f0c:	61fb      	str	r3, [r7, #28]
40100f0e:	f04f 0300 	mov.w	r3, #0
40100f12:	61bb      	str	r3, [r7, #24]
40100f14:	f107 0320 	add.w	r3, r7, #32
40100f18:	f103 0301 	add.w	r3, r3, #1
40100f1c:	781b      	ldrb	r3, [r3, #0]
40100f1e:	b2db      	uxtb	r3, r3
40100f20:	f04f 0400 	mov.w	r4, #0
40100f24:	ea4f 4303 	mov.w	r3, r3, lsl #16
40100f28:	617b      	str	r3, [r7, #20]
40100f2a:	f04f 0300 	mov.w	r3, #0
40100f2e:	613b      	str	r3, [r7, #16]
40100f30:	e9d7 1206 	ldrd	r1, r2, [r7, #24]
40100f34:	e9d7 3404 	ldrd	r3, r4, [r7, #16]
40100f38:	ea41 0103 	orr.w	r1, r1, r3
40100f3c:	ea42 0204 	orr.w	r2, r2, r4
40100f40:	f107 0320 	add.w	r3, r7, #32
40100f44:	f103 0302 	add.w	r3, r3, #2
40100f48:	781b      	ldrb	r3, [r3, #0]
40100f4a:	b2db      	uxtb	r3, r3
40100f4c:	f04f 0400 	mov.w	r4, #0
40100f50:	ea4f 2303 	mov.w	r3, r3, lsl #8
40100f54:	60fb      	str	r3, [r7, #12]
40100f56:	f04f 0300 	mov.w	r3, #0
40100f5a:	60bb      	str	r3, [r7, #8]
40100f5c:	e9d7 3402 	ldrd	r3, r4, [r7, #8]
40100f60:	ea43 0301 	orr.w	r3, r3, r1
40100f64:	ea44 0402 	orr.w	r4, r4, r2
40100f68:	4619      	mov	r1, r3
40100f6a:	4622      	mov	r2, r4
40100f6c:	f107 0320 	add.w	r3, r7, #32
40100f70:	f103 0303 	add.w	r3, r3, #3
40100f74:	781b      	ldrb	r3, [r3, #0]
40100f76:	b2db      	uxtb	r3, r3
40100f78:	f04f 0400 	mov.w	r4, #0
40100f7c:	461b      	mov	r3, r3
40100f7e:	607b      	str	r3, [r7, #4]
40100f80:	f04f 0300 	mov.w	r3, #0
40100f84:	603b      	str	r3, [r7, #0]
40100f86:	e9d7 3400 	ldrd	r3, r4, [r7]
40100f8a:	ea43 0301 	orr.w	r3, r3, r1
40100f8e:	ea44 0402 	orr.w	r4, r4, r2
40100f92:	4619      	mov	r1, r3
40100f94:	4622      	mov	r2, r4
40100f96:	f107 0320 	add.w	r3, r7, #32
40100f9a:	f103 0304 	add.w	r3, r3, #4
40100f9e:	781b      	ldrb	r3, [r3, #0]
40100fa0:	b2db      	uxtb	r3, r3
40100fa2:	f04f 0400 	mov.w	r4, #0
40100fa6:	ea4f 6b04 	mov.w	fp, r4, lsl #24
40100faa:	ea4b 2b13 	orr.w	fp, fp, r3, lsr #8
40100fae:	ea4f 6a03 	mov.w	sl, r3, lsl #24
40100fb2:	ea41 010a 	orr.w	r1, r1, sl
40100fb6:	ea42 020b 	orr.w	r2, r2, fp
40100fba:	f107 0320 	add.w	r3, r7, #32
40100fbe:	f103 0305 	add.w	r3, r3, #5
40100fc2:	781b      	ldrb	r3, [r3, #0]
40100fc4:	b2db      	uxtb	r3, r3
40100fc6:	f04f 0400 	mov.w	r4, #0
40100fca:	ea4f 4904 	mov.w	r9, r4, lsl #16
40100fce:	ea49 4913 	orr.w	r9, r9, r3, lsr #16
40100fd2:	ea4f 4803 	mov.w	r8, r3, lsl #16
40100fd6:	ea41 0108 	orr.w	r1, r1, r8
40100fda:	ea42 0209 	orr.w	r2, r2, r9
40100fde:	f107 0320 	add.w	r3, r7, #32
40100fe2:	f103 0306 	add.w	r3, r3, #6
40100fe6:	781b      	ldrb	r3, [r3, #0]
40100fe8:	b2db      	uxtb	r3, r3
40100fea:	f04f 0400 	mov.w	r4, #0
40100fee:	ea4f 2604 	mov.w	r6, r4, lsl #8
40100ff2:	ea46 6613 	orr.w	r6, r6, r3, lsr #24
40100ff6:	ea4f 2503 	mov.w	r5, r3, lsl #8
40100ffa:	ea41 0105 	orr.w	r1, r1, r5
40100ffe:	ea42 0206 	orr.w	r2, r2, r6
40101002:	f107 0320 	add.w	r3, r7, #32
40101006:	f103 0307 	add.w	r3, r3, #7
4010100a:	781b      	ldrb	r3, [r3, #0]
4010100c:	b2db      	uxtb	r3, r3
4010100e:	f04f 0400 	mov.w	r4, #0
40101012:	ea43 0301 	orr.w	r3, r3, r1
40101016:	ea44 0402 	orr.w	r4, r4, r2
/home/zhangxiang/Downloads/op-tee2/OP-TEE/bios_qemu_tz_arm/libfdt/include/./libfdt_env.h:101
4010101a:	4618      	mov	r0, r3
4010101c:	4621      	mov	r1, r4
4010101e:	f107 0728 	add.w	r7, r7, #40	; 0x28
40101022:	46bd      	mov	sp, r7
40101024:	e9dd 4500 	ldrd	r4, r5, [sp]
40101028:	e9dd 6702 	ldrd	r6, r7, [sp, #8]
4010102c:	e9dd 8904 	ldrd	r8, r9, [sp, #16]
40101030:	e9dd ab06 	ldrd	sl, fp, [sp, #24]
40101034:	b008      	add	sp, #32
40101036:	4770      	bx	lr

40101038 <_fdt_offset_ptr>:
_fdt_offset_ptr():
/home/zhangxiang/Downloads/op-tee2/OP-TEE/bios_qemu_tz_arm/libfdt/libfdt_internal.h:71
40101038:	e96d 7e02 	strd	r7, lr, [sp, #-8]!
4010103c:	b082      	sub	sp, #8
4010103e:	af00      	add	r7, sp, #0
40101040:	6078      	str	r0, [r7, #4]
40101042:	6039      	str	r1, [r7, #0]
/home/zhangxiang/Downloads/op-tee2/OP-TEE/bios_qemu_tz_arm/libfdt/libfdt_internal.h:72
40101044:	687b      	ldr	r3, [r7, #4]
40101046:	689b      	ldr	r3, [r3, #8]
40101048:	4618      	mov	r0, r3
4010104a:	f7ff ff21 	bl	40100e90 <fdt32_to_cpu>
4010104e:	4602      	mov	r2, r0
40101050:	683b      	ldr	r3, [r7, #0]
40101052:	4413      	add	r3, r2
40101054:	687a      	ldr	r2, [r7, #4]
40101056:	4413      	add	r3, r2
/home/zhangxiang/Downloads/op-tee2/OP-TEE/bios_qemu_tz_arm/libfdt/libfdt_internal.h:73
40101058:	4618      	mov	r0, r3
4010105a:	f107 0708 	add.w	r7, r7, #8
4010105e:	46bd      	mov	sp, r7
40101060:	bd80      	pop	{r7, pc}

40101062 <_fdt_mem_rsv>:
_fdt_mem_rsv():
/home/zhangxiang/Downloads/op-tee2/OP-TEE/bios_qemu_tz_arm/libfdt/libfdt_internal.h:81
40101062:	e96d 7e02 	strd	r7, lr, [sp, #-8]!
40101066:	b084      	sub	sp, #16
40101068:	af00      	add	r7, sp, #0
4010106a:	6078      	str	r0, [r7, #4]
4010106c:	6039      	str	r1, [r7, #0]
/home/zhangxiang/Downloads/op-tee2/OP-TEE/bios_qemu_tz_arm/libfdt/libfdt_internal.h:84
4010106e:	687b      	ldr	r3, [r7, #4]
40101070:	691b      	ldr	r3, [r3, #16]
40101072:	4618      	mov	r0, r3
40101074:	f7ff ff0c 	bl	40100e90 <fdt32_to_cpu>
40101078:	4602      	mov	r2, r0
/home/zhangxiang/Downloads/op-tee2/OP-TEE/bios_qemu_tz_arm/libfdt/libfdt_internal.h:82
4010107a:	687b      	ldr	r3, [r7, #4]
4010107c:	4413      	add	r3, r2
4010107e:	60fb      	str	r3, [r7, #12]
/home/zhangxiang/Downloads/op-tee2/OP-TEE/bios_qemu_tz_arm/libfdt/libfdt_internal.h:86
40101080:	683b      	ldr	r3, [r7, #0]
40101082:	ea4f 1303 	mov.w	r3, r3, lsl #4
40101086:	68fa      	ldr	r2, [r7, #12]
40101088:	4413      	add	r3, r2
/home/zhangxiang/Downloads/op-tee2/OP-TEE/bios_qemu_tz_arm/libfdt/libfdt_internal.h:87
4010108a:	4618      	mov	r0, r3
4010108c:	f107 0710 	add.w	r7, r7, #16
40101090:	46bd      	mov	sp, r7
40101092:	bd80      	pop	{r7, pc}

40101094 <_fdt_nodename_eq>:
_fdt_nodename_eq():
/home/zhangxiang/Downloads/op-tee2/OP-TEE/bios_qemu_tz_arm/libfdt/fdt_ro.c:60
40101094:	e96d 7e02 	strd	r7, lr, [sp, #-8]!
40101098:	b086      	sub	sp, #24
4010109a:	af00      	add	r7, sp, #0
4010109c:	60f8      	str	r0, [r7, #12]
4010109e:	60b9      	str	r1, [r7, #8]
401010a0:	607a      	str	r2, [r7, #4]
401010a2:	603b      	str	r3, [r7, #0]
/home/zhangxiang/Downloads/op-tee2/OP-TEE/bios_qemu_tz_arm/libfdt/fdt_ro.c:61
401010a4:	68bb      	ldr	r3, [r7, #8]
401010a6:	f103 0304 	add.w	r3, r3, #4
401010aa:	4619      	mov	r1, r3
401010ac:	683b      	ldr	r3, [r7, #0]
401010ae:	f103 0301 	add.w	r3, r3, #1
401010b2:	461a      	mov	r2, r3
401010b4:	68f8      	ldr	r0, [r7, #12]
401010b6:	f243 333b 	movw	r3, #13115	; 0x333b
401010ba:	f2c4 0310 	movt	r3, #16400	; 0x4010
401010be:	4798      	blx	r3
401010c0:	6178      	str	r0, [r7, #20]
/home/zhangxiang/Downloads/op-tee2/OP-TEE/bios_qemu_tz_arm/libfdt/fdt_ro.c:63
401010c2:	697b      	ldr	r3, [r7, #20]
401010c4:	2b00      	cmp	r3, #0
401010c6:	d102      	bne.n	401010ce <_fdt_nodename_eq+0x3a>
/home/zhangxiang/Downloads/op-tee2/OP-TEE/bios_qemu_tz_arm/libfdt/fdt_ro.c:65
401010c8:	f04f 0300 	mov.w	r3, #0
401010cc:	e02f      	b.n	4010112e <_fdt_nodename_eq+0x9a>
/home/zhangxiang/Downloads/op-tee2/OP-TEE/bios_qemu_tz_arm/libfdt/fdt_ro.c:67
401010ce:	683b      	ldr	r3, [r7, #0]
401010d0:	461a      	mov	r2, r3
401010d2:	6879      	ldr	r1, [r7, #4]
401010d4:	6978      	ldr	r0, [r7, #20]
401010d6:	f244 6399 	movw	r3, #18073	; 0x4699
401010da:	f2c4 0310 	movt	r3, #16400	; 0x4010
401010de:	4798      	blx	r3
401010e0:	4603      	mov	r3, r0
401010e2:	2b00      	cmp	r3, #0
401010e4:	d002      	beq.n	401010ec <_fdt_nodename_eq+0x58>
/home/zhangxiang/Downloads/op-tee2/OP-TEE/bios_qemu_tz_arm/libfdt/fdt_ro.c:68
401010e6:	f04f 0300 	mov.w	r3, #0
401010ea:	e020      	b.n	4010112e <_fdt_nodename_eq+0x9a>
/home/zhangxiang/Downloads/op-tee2/OP-TEE/bios_qemu_tz_arm/libfdt/fdt_ro.c:70
401010ec:	683b      	ldr	r3, [r7, #0]
401010ee:	697a      	ldr	r2, [r7, #20]
401010f0:	4413      	add	r3, r2
401010f2:	781b      	ldrb	r3, [r3, #0]
401010f4:	2b00      	cmp	r3, #0
401010f6:	d102      	bne.n	401010fe <_fdt_nodename_eq+0x6a>
/home/zhangxiang/Downloads/op-tee2/OP-TEE/bios_qemu_tz_arm/libfdt/fdt_ro.c:71
401010f8:	f04f 0301 	mov.w	r3, #1
401010fc:	e017      	b.n	4010112e <_fdt_nodename_eq+0x9a>
/home/zhangxiang/Downloads/op-tee2/OP-TEE/bios_qemu_tz_arm/libfdt/fdt_ro.c:72
401010fe:	683b      	ldr	r3, [r7, #0]
40101100:	461a      	mov	r2, r3
40101102:	f04f 0140 	mov.w	r1, #64	; 0x40
40101106:	6878      	ldr	r0, [r7, #4]
40101108:	f244 5385 	movw	r3, #17797	; 0x4585
4010110c:	f2c4 0310 	movt	r3, #16400	; 0x4010
40101110:	4798      	blx	r3
40101112:	4603      	mov	r3, r0
40101114:	2b00      	cmp	r3, #0
40101116:	d108      	bne.n	4010112a <_fdt_nodename_eq+0x96>
/home/zhangxiang/Downloads/op-tee2/OP-TEE/bios_qemu_tz_arm/libfdt/fdt_ro.c:72 (discriminator 1)
40101118:	683b      	ldr	r3, [r7, #0]
4010111a:	697a      	ldr	r2, [r7, #20]
4010111c:	4413      	add	r3, r2
4010111e:	781b      	ldrb	r3, [r3, #0]
40101120:	2b40      	cmp	r3, #64	; 0x40
40101122:	d102      	bne.n	4010112a <_fdt_nodename_eq+0x96>
/home/zhangxiang/Downloads/op-tee2/OP-TEE/bios_qemu_tz_arm/libfdt/fdt_ro.c:73
40101124:	f04f 0301 	mov.w	r3, #1
40101128:	e001      	b.n	4010112e <_fdt_nodename_eq+0x9a>
/home/zhangxiang/Downloads/op-tee2/OP-TEE/bios_qemu_tz_arm/libfdt/fdt_ro.c:75
4010112a:	f04f 0300 	mov.w	r3, #0
/home/zhangxiang/Downloads/op-tee2/OP-TEE/bios_qemu_tz_arm/libfdt/fdt_ro.c:76
4010112e:	4618      	mov	r0, r3
40101130:	f107 0718 	add.w	r7, r7, #24
40101134:	46bd      	mov	sp, r7
40101136:	bd80      	pop	{r7, pc}

40101138 <fdt_string>:
fdt_string():
/home/zhangxiang/Downloads/op-tee2/OP-TEE/bios_qemu_tz_arm/libfdt/fdt_ro.c:79
40101138:	e96d 7e02 	strd	r7, lr, [sp, #-8]!
4010113c:	b082      	sub	sp, #8
4010113e:	af00      	add	r7, sp, #0
40101140:	6078      	str	r0, [r7, #4]
40101142:	6039      	str	r1, [r7, #0]
/home/zhangxiang/Downloads/op-tee2/OP-TEE/bios_qemu_tz_arm/libfdt/fdt_ro.c:80
40101144:	687b      	ldr	r3, [r7, #4]
40101146:	68db      	ldr	r3, [r3, #12]
40101148:	4618      	mov	r0, r3
4010114a:	f7ff fea1 	bl	40100e90 <fdt32_to_cpu>
4010114e:	4602      	mov	r2, r0
40101150:	683b      	ldr	r3, [r7, #0]
40101152:	4413      	add	r3, r2
40101154:	687a      	ldr	r2, [r7, #4]
40101156:	4413      	add	r3, r2
/home/zhangxiang/Downloads/op-tee2/OP-TEE/bios_qemu_tz_arm/libfdt/fdt_ro.c:81
40101158:	4618      	mov	r0, r3
4010115a:	f107 0708 	add.w	r7, r7, #8
4010115e:	46bd      	mov	sp, r7
40101160:	bd80      	pop	{r7, pc}

40101162 <_fdt_string_eq>:
_fdt_string_eq():
/home/zhangxiang/Downloads/op-tee2/OP-TEE/bios_qemu_tz_arm/libfdt/fdt_ro.c:85
40101162:	e96d 7e02 	strd	r7, lr, [sp, #-8]!
40101166:	b086      	sub	sp, #24
40101168:	af00      	add	r7, sp, #0
4010116a:	60f8      	str	r0, [r7, #12]
4010116c:	60b9      	str	r1, [r7, #8]
4010116e:	607a      	str	r2, [r7, #4]
40101170:	603b      	str	r3, [r7, #0]
/home/zhangxiang/Downloads/op-tee2/OP-TEE/bios_qemu_tz_arm/libfdt/fdt_ro.c:86
40101172:	68b9      	ldr	r1, [r7, #8]
40101174:	68f8      	ldr	r0, [r7, #12]
40101176:	f7ff ffdf 	bl	40101138 <fdt_string>
4010117a:	6178      	str	r0, [r7, #20]
/home/zhangxiang/Downloads/op-tee2/OP-TEE/bios_qemu_tz_arm/libfdt/fdt_ro.c:88
4010117c:	6978      	ldr	r0, [r7, #20]
4010117e:	f644 239d 	movw	r3, #19101	; 0x4a9d
40101182:	f2c4 0310 	movt	r3, #16400	; 0x4010
40101186:	4798      	blx	r3
40101188:	4602      	mov	r2, r0
4010118a:	683b      	ldr	r3, [r7, #0]
4010118c:	429a      	cmp	r2, r3
4010118e:	d10e      	bne.n	401011ae <_fdt_string_eq+0x4c>
/home/zhangxiang/Downloads/op-tee2/OP-TEE/bios_qemu_tz_arm/libfdt/fdt_ro.c:88 (discriminator 1)
40101190:	683b      	ldr	r3, [r7, #0]
40101192:	461a      	mov	r2, r3
40101194:	6879      	ldr	r1, [r7, #4]
40101196:	6978      	ldr	r0, [r7, #20]
40101198:	f244 6399 	movw	r3, #18073	; 0x4699
4010119c:	f2c4 0310 	movt	r3, #16400	; 0x4010
401011a0:	4798      	blx	r3
401011a2:	4603      	mov	r3, r0
401011a4:	2b00      	cmp	r3, #0
401011a6:	d102      	bne.n	401011ae <_fdt_string_eq+0x4c>
/home/zhangxiang/Downloads/op-tee2/OP-TEE/bios_qemu_tz_arm/libfdt/fdt_ro.c:88 (discriminator 3)
401011a8:	f04f 0301 	mov.w	r3, #1
401011ac:	e001      	b.n	401011b2 <_fdt_string_eq+0x50>
/home/zhangxiang/Downloads/op-tee2/OP-TEE/bios_qemu_tz_arm/libfdt/fdt_ro.c:88 (discriminator 4)
401011ae:	f04f 0300 	mov.w	r3, #0
/home/zhangxiang/Downloads/op-tee2/OP-TEE/bios_qemu_tz_arm/libfdt/fdt_ro.c:89 (discriminator 7)
401011b2:	4618      	mov	r0, r3
401011b4:	f107 0718 	add.w	r7, r7, #24
401011b8:	46bd      	mov	sp, r7
401011ba:	bd80      	pop	{r7, pc}

401011bc <fdt_get_mem_rsv>:
fdt_get_mem_rsv():
/home/zhangxiang/Downloads/op-tee2/OP-TEE/bios_qemu_tz_arm/libfdt/fdt_ro.c:92
401011bc:	f84d 4d0c 	str.w	r4, [sp, #-12]!
401011c0:	e9cd 7e01 	strd	r7, lr, [sp, #4]
401011c4:	b087      	sub	sp, #28
401011c6:	af00      	add	r7, sp, #0
401011c8:	60f8      	str	r0, [r7, #12]
401011ca:	60b9      	str	r1, [r7, #8]
401011cc:	607a      	str	r2, [r7, #4]
401011ce:	603b      	str	r3, [r7, #0]
/home/zhangxiang/Downloads/op-tee2/OP-TEE/bios_qemu_tz_arm/libfdt/fdt_ro.c:93
401011d0:	68f8      	ldr	r0, [r7, #12]
401011d2:	f243 23ab 	movw	r3, #12971	; 0x32ab
401011d6:	f2c4 0310 	movt	r3, #16400	; 0x4010
401011da:	4798      	blx	r3
401011dc:	6178      	str	r0, [r7, #20]
401011de:	697b      	ldr	r3, [r7, #20]
401011e0:	2b00      	cmp	r3, #0
401011e2:	d001      	beq.n	401011e8 <fdt_get_mem_rsv+0x2c>
/home/zhangxiang/Downloads/op-tee2/OP-TEE/bios_qemu_tz_arm/libfdt/fdt_ro.c:93 (discriminator 1)
401011e4:	697b      	ldr	r3, [r7, #20]
401011e6:	e021      	b.n	4010122c <fdt_get_mem_rsv+0x70>
/home/zhangxiang/Downloads/op-tee2/OP-TEE/bios_qemu_tz_arm/libfdt/fdt_ro.c:94
401011e8:	68b9      	ldr	r1, [r7, #8]
401011ea:	68f8      	ldr	r0, [r7, #12]
401011ec:	f7ff ff39 	bl	40101062 <_fdt_mem_rsv>
401011f0:	4603      	mov	r3, r0
401011f2:	e9d3 3400 	ldrd	r3, r4, [r3]
401011f6:	4618      	mov	r0, r3
401011f8:	4621      	mov	r1, r4
401011fa:	f7ff fe73 	bl	40100ee4 <fdt64_to_cpu>
401011fe:	4603      	mov	r3, r0
40101200:	460c      	mov	r4, r1
40101202:	687a      	ldr	r2, [r7, #4]
40101204:	e9c2 3400 	strd	r3, r4, [r2]
/home/zhangxiang/Downloads/op-tee2/OP-TEE/bios_qemu_tz_arm/libfdt/fdt_ro.c:95
40101208:	68b9      	ldr	r1, [r7, #8]
4010120a:	68f8      	ldr	r0, [r7, #12]
4010120c:	f7ff ff29 	bl	40101062 <_fdt_mem_rsv>
40101210:	4603      	mov	r3, r0
40101212:	e9d3 3402 	ldrd	r3, r4, [r3, #8]
40101216:	4618      	mov	r0, r3
40101218:	4621      	mov	r1, r4
4010121a:	f7ff fe63 	bl	40100ee4 <fdt64_to_cpu>
4010121e:	4603      	mov	r3, r0
40101220:	460c      	mov	r4, r1
40101222:	683a      	ldr	r2, [r7, #0]
40101224:	e9c2 3400 	strd	r3, r4, [r2]
/home/zhangxiang/Downloads/op-tee2/OP-TEE/bios_qemu_tz_arm/libfdt/fdt_ro.c:96
40101228:	f04f 0300 	mov.w	r3, #0
/home/zhangxiang/Downloads/op-tee2/OP-TEE/bios_qemu_tz_arm/libfdt/fdt_ro.c:97
4010122c:	4618      	mov	r0, r3
4010122e:	f107 071c 	add.w	r7, r7, #28
40101232:	46bd      	mov	sp, r7
40101234:	e9dd 4700 	ldrd	r4, r7, [sp]
40101238:	b002      	add	sp, #8
4010123a:	f85d fb04 	ldr.w	pc, [sp], #4

4010123e <fdt_num_mem_rsv>:
fdt_num_mem_rsv():
/home/zhangxiang/Downloads/op-tee2/OP-TEE/bios_qemu_tz_arm/libfdt/fdt_ro.c:100
4010123e:	f84d 4d0c 	str.w	r4, [sp, #-12]!
40101242:	e9cd 7e01 	strd	r7, lr, [sp, #4]
40101246:	b085      	sub	sp, #20
40101248:	af00      	add	r7, sp, #0
4010124a:	6078      	str	r0, [r7, #4]
/home/zhangxiang/Downloads/op-tee2/OP-TEE/bios_qemu_tz_arm/libfdt/fdt_ro.c:101
4010124c:	f04f 0300 	mov.w	r3, #0
40101250:	60fb      	str	r3, [r7, #12]
/home/zhangxiang/Downloads/op-tee2/OP-TEE/bios_qemu_tz_arm/libfdt/fdt_ro.c:103
40101252:	e003      	b.n	4010125c <fdt_num_mem_rsv+0x1e>
/home/zhangxiang/Downloads/op-tee2/OP-TEE/bios_qemu_tz_arm/libfdt/fdt_ro.c:104
40101254:	68fb      	ldr	r3, [r7, #12]
40101256:	f103 0301 	add.w	r3, r3, #1
4010125a:	60fb      	str	r3, [r7, #12]
/home/zhangxiang/Downloads/op-tee2/OP-TEE/bios_qemu_tz_arm/libfdt/fdt_ro.c:103
4010125c:	68f9      	ldr	r1, [r7, #12]
4010125e:	6878      	ldr	r0, [r7, #4]
40101260:	f7ff feff 	bl	40101062 <_fdt_mem_rsv>
40101264:	4603      	mov	r3, r0
40101266:	e9d3 3402 	ldrd	r3, r4, [r3, #8]
4010126a:	4618      	mov	r0, r3
4010126c:	4621      	mov	r1, r4
4010126e:	f7ff fe39 	bl	40100ee4 <fdt64_to_cpu>
40101272:	4603      	mov	r3, r0
40101274:	460c      	mov	r4, r1
40101276:	4323      	orrs	r3, r4
40101278:	d1ec      	bne.n	40101254 <fdt_num_mem_rsv+0x16>
/home/zhangxiang/Downloads/op-tee2/OP-TEE/bios_qemu_tz_arm/libfdt/fdt_ro.c:105
4010127a:	68fb      	ldr	r3, [r7, #12]
/home/zhangxiang/Downloads/op-tee2/OP-TEE/bios_qemu_tz_arm/libfdt/fdt_ro.c:106
4010127c:	4618      	mov	r0, r3
4010127e:	f107 0714 	add.w	r7, r7, #20
40101282:	46bd      	mov	sp, r7
40101284:	e9dd 4700 	ldrd	r4, r7, [sp]
40101288:	b002      	add	sp, #8
4010128a:	f85d fb04 	ldr.w	pc, [sp], #4

4010128e <_nextprop>:
_nextprop():
/home/zhangxiang/Downloads/op-tee2/OP-TEE/bios_qemu_tz_arm/libfdt/fdt_ro.c:109
4010128e:	e96d 7e02 	strd	r7, lr, [sp, #-8]!
40101292:	b084      	sub	sp, #16
40101294:	af00      	add	r7, sp, #0
40101296:	6078      	str	r0, [r7, #4]
40101298:	6039      	str	r1, [r7, #0]
/home/zhangxiang/Downloads/op-tee2/OP-TEE/bios_qemu_tz_arm/libfdt/fdt_ro.c:114
4010129a:	f107 0308 	add.w	r3, r7, #8
4010129e:	461a      	mov	r2, r3
401012a0:	6839      	ldr	r1, [r7, #0]
401012a2:	6878      	ldr	r0, [r7, #4]
401012a4:	f243 33b7 	movw	r3, #13239	; 0x33b7
401012a8:	f2c4 0310 	movt	r3, #16400	; 0x4010
401012ac:	4798      	blx	r3
401012ae:	60f8      	str	r0, [r7, #12]
/home/zhangxiang/Downloads/op-tee2/OP-TEE/bios_qemu_tz_arm/libfdt/fdt_ro.c:116
401012b0:	68fb      	ldr	r3, [r7, #12]
401012b2:	2b03      	cmp	r3, #3
401012b4:	d009      	beq.n	401012ca <_nextprop+0x3c>
401012b6:	2b09      	cmp	r3, #9
401012b8:	d109      	bne.n	401012ce <_nextprop+0x40>
/home/zhangxiang/Downloads/op-tee2/OP-TEE/bios_qemu_tz_arm/libfdt/fdt_ro.c:118
401012ba:	68bb      	ldr	r3, [r7, #8]
401012bc:	2b00      	cmp	r3, #0
401012be:	db02      	blt.n	401012c6 <_nextprop+0x38>
/home/zhangxiang/Downloads/op-tee2/OP-TEE/bios_qemu_tz_arm/libfdt/fdt_ro.c:119
401012c0:	f06f 030a 	mvn.w	r3, #10
401012c4:	e00a      	b.n	401012dc <_nextprop+0x4e>
/home/zhangxiang/Downloads/op-tee2/OP-TEE/bios_qemu_tz_arm/libfdt/fdt_ro.c:121
401012c6:	68bb      	ldr	r3, [r7, #8]
401012c8:	e008      	b.n	401012dc <_nextprop+0x4e>
/home/zhangxiang/Downloads/op-tee2/OP-TEE/bios_qemu_tz_arm/libfdt/fdt_ro.c:124
401012ca:	683b      	ldr	r3, [r7, #0]
401012cc:	e006      	b.n	401012dc <_nextprop+0x4e>
/home/zhangxiang/Downloads/op-tee2/OP-TEE/bios_qemu_tz_arm/libfdt/fdt_ro.c:126
401012ce:	68bb      	ldr	r3, [r7, #8]
401012d0:	603b      	str	r3, [r7, #0]
/home/zhangxiang/Downloads/op-tee2/OP-TEE/bios_qemu_tz_arm/libfdt/fdt_ro.c:127
401012d2:	68fb      	ldr	r3, [r7, #12]
401012d4:	2b04      	cmp	r3, #4
401012d6:	d0e0      	beq.n	4010129a <_nextprop+0xc>
/home/zhangxiang/Downloads/op-tee2/OP-TEE/bios_qemu_tz_arm/libfdt/fdt_ro.c:129
401012d8:	f04f 33ff 	mov.w	r3, #4294967295	; 0xffffffff
/home/zhangxiang/Downloads/op-tee2/OP-TEE/bios_qemu_tz_arm/libfdt/fdt_ro.c:130 (discriminator 1)
401012dc:	4618      	mov	r0, r3
401012de:	f107 0710 	add.w	r7, r7, #16
401012e2:	46bd      	mov	sp, r7
401012e4:	bd80      	pop	{r7, pc}

401012e6 <fdt_subnode_offset_namelen>:
fdt_subnode_offset_namelen():
/home/zhangxiang/Downloads/op-tee2/OP-TEE/bios_qemu_tz_arm/libfdt/fdt_ro.c:134
401012e6:	e96d 7e02 	strd	r7, lr, [sp, #-8]!
401012ea:	b086      	sub	sp, #24
401012ec:	af00      	add	r7, sp, #0
401012ee:	60f8      	str	r0, [r7, #12]
401012f0:	60b9      	str	r1, [r7, #8]
401012f2:	607a      	str	r2, [r7, #4]
401012f4:	603b      	str	r3, [r7, #0]
/home/zhangxiang/Downloads/op-tee2/OP-TEE/bios_qemu_tz_arm/libfdt/fdt_ro.c:137
401012f6:	68f8      	ldr	r0, [r7, #12]
401012f8:	f243 23ab 	movw	r3, #12971	; 0x32ab
401012fc:	f2c4 0310 	movt	r3, #16400	; 0x4010
40101300:	4798      	blx	r3
40101302:	6178      	str	r0, [r7, #20]
40101304:	697b      	ldr	r3, [r7, #20]
40101306:	2b00      	cmp	r3, #0
40101308:	d001      	beq.n	4010130e <fdt_subnode_offset_namelen+0x28>
/home/zhangxiang/Downloads/op-tee2/OP-TEE/bios_qemu_tz_arm/libfdt/fdt_ro.c:137 (discriminator 1)
4010130a:	697b      	ldr	r3, [r7, #20]
4010130c:	e029      	b.n	40101362 <fdt_subnode_offset_namelen+0x7c>
/home/zhangxiang/Downloads/op-tee2/OP-TEE/bios_qemu_tz_arm/libfdt/fdt_ro.c:139
4010130e:	f04f 0300 	mov.w	r3, #0
40101312:	613b      	str	r3, [r7, #16]
40101314:	e018      	b.n	40101348 <fdt_subnode_offset_namelen+0x62>
/home/zhangxiang/Downloads/op-tee2/OP-TEE/bios_qemu_tz_arm/libfdt/fdt_ro.c:142
40101316:	693b      	ldr	r3, [r7, #16]
40101318:	2b01      	cmp	r3, #1
4010131a:	d10a      	bne.n	40101332 <fdt_subnode_offset_namelen+0x4c>
/home/zhangxiang/Downloads/op-tee2/OP-TEE/bios_qemu_tz_arm/libfdt/fdt_ro.c:143
4010131c:	683b      	ldr	r3, [r7, #0]
4010131e:	687a      	ldr	r2, [r7, #4]
40101320:	68b9      	ldr	r1, [r7, #8]
40101322:	68f8      	ldr	r0, [r7, #12]
40101324:	f7ff feb6 	bl	40101094 <_fdt_nodename_eq>
40101328:	4603      	mov	r3, r0
4010132a:	2b00      	cmp	r3, #0
4010132c:	d001      	beq.n	40101332 <fdt_subnode_offset_namelen+0x4c>
/home/zhangxiang/Downloads/op-tee2/OP-TEE/bios_qemu_tz_arm/libfdt/fdt_ro.c:144
4010132e:	68bb      	ldr	r3, [r7, #8]
40101330:	e017      	b.n	40101362 <fdt_subnode_offset_namelen+0x7c>
/home/zhangxiang/Downloads/op-tee2/OP-TEE/bios_qemu_tz_arm/libfdt/fdt_ro.c:141
40101332:	f107 0310 	add.w	r3, r7, #16
40101336:	461a      	mov	r2, r3
40101338:	68b9      	ldr	r1, [r7, #8]
4010133a:	68f8      	ldr	r0, [r7, #12]
4010133c:	f243 5363 	movw	r3, #13667	; 0x3563
40101340:	f2c4 0310 	movt	r3, #16400	; 0x4010
40101344:	4798      	blx	r3
40101346:	60b8      	str	r0, [r7, #8]
/home/zhangxiang/Downloads/op-tee2/OP-TEE/bios_qemu_tz_arm/libfdt/fdt_ro.c:139 (discriminator 1)
40101348:	68bb      	ldr	r3, [r7, #8]
4010134a:	2b00      	cmp	r3, #0
4010134c:	db02      	blt.n	40101354 <fdt_subnode_offset_namelen+0x6e>
/home/zhangxiang/Downloads/op-tee2/OP-TEE/bios_qemu_tz_arm/libfdt/fdt_ro.c:140
4010134e:	693b      	ldr	r3, [r7, #16]
40101350:	2b00      	cmp	r3, #0
40101352:	dae0      	bge.n	40101316 <fdt_subnode_offset_namelen+0x30>
/home/zhangxiang/Downloads/op-tee2/OP-TEE/bios_qemu_tz_arm/libfdt/fdt_ro.c:146
40101354:	693b      	ldr	r3, [r7, #16]
40101356:	2b00      	cmp	r3, #0
40101358:	da02      	bge.n	40101360 <fdt_subnode_offset_namelen+0x7a>
/home/zhangxiang/Downloads/op-tee2/OP-TEE/bios_qemu_tz_arm/libfdt/fdt_ro.c:147
4010135a:	f04f 33ff 	mov.w	r3, #4294967295	; 0xffffffff
4010135e:	e000      	b.n	40101362 <fdt_subnode_offset_namelen+0x7c>
/home/zhangxiang/Downloads/op-tee2/OP-TEE/bios_qemu_tz_arm/libfdt/fdt_ro.c:148
40101360:	68bb      	ldr	r3, [r7, #8]
/home/zhangxiang/Downloads/op-tee2/OP-TEE/bios_qemu_tz_arm/libfdt/fdt_ro.c:149 (discriminator 1)
40101362:	4618      	mov	r0, r3
40101364:	f107 0718 	add.w	r7, r7, #24
40101368:	46bd      	mov	sp, r7
4010136a:	bd80      	pop	{r7, pc}

4010136c <fdt_subnode_offset>:
fdt_subnode_offset():
/home/zhangxiang/Downloads/op-tee2/OP-TEE/bios_qemu_tz_arm/libfdt/fdt_ro.c:153
4010136c:	e96d 7e02 	strd	r7, lr, [sp, #-8]!
40101370:	b084      	sub	sp, #16
40101372:	af00      	add	r7, sp, #0
40101374:	60f8      	str	r0, [r7, #12]
40101376:	60b9      	str	r1, [r7, #8]
40101378:	607a      	str	r2, [r7, #4]
/home/zhangxiang/Downloads/op-tee2/OP-TEE/bios_qemu_tz_arm/libfdt/fdt_ro.c:154
4010137a:	6878      	ldr	r0, [r7, #4]
4010137c:	f644 239d 	movw	r3, #19101	; 0x4a9d
40101380:	f2c4 0310 	movt	r3, #16400	; 0x4010
40101384:	4798      	blx	r3
40101386:	4603      	mov	r3, r0
40101388:	687a      	ldr	r2, [r7, #4]
4010138a:	68b9      	ldr	r1, [r7, #8]
4010138c:	68f8      	ldr	r0, [r7, #12]
4010138e:	f7ff ffaa 	bl	401012e6 <fdt_subnode_offset_namelen>
40101392:	4603      	mov	r3, r0
/home/zhangxiang/Downloads/op-tee2/OP-TEE/bios_qemu_tz_arm/libfdt/fdt_ro.c:155
40101394:	4618      	mov	r0, r3
40101396:	f107 0710 	add.w	r7, r7, #16
4010139a:	46bd      	mov	sp, r7
4010139c:	bd80      	pop	{r7, pc}

4010139e <fdt_path_offset>:
fdt_path_offset():
/home/zhangxiang/Downloads/op-tee2/OP-TEE/bios_qemu_tz_arm/libfdt/fdt_ro.c:158
4010139e:	e96d 7e02 	strd	r7, lr, [sp, #-8]!
401013a2:	b088      	sub	sp, #32
401013a4:	af00      	add	r7, sp, #0
401013a6:	6078      	str	r0, [r7, #4]
401013a8:	6039      	str	r1, [r7, #0]
/home/zhangxiang/Downloads/op-tee2/OP-TEE/bios_qemu_tz_arm/libfdt/fdt_ro.c:159
401013aa:	6838      	ldr	r0, [r7, #0]
401013ac:	f644 239d 	movw	r3, #19101	; 0x4a9d
401013b0:	f2c4 0310 	movt	r3, #16400	; 0x4010
401013b4:	4798      	blx	r3
401013b6:	4602      	mov	r2, r0
401013b8:	683b      	ldr	r3, [r7, #0]
401013ba:	4413      	add	r3, r2
401013bc:	60fb      	str	r3, [r7, #12]
/home/zhangxiang/Downloads/op-tee2/OP-TEE/bios_qemu_tz_arm/libfdt/fdt_ro.c:160
401013be:	683b      	ldr	r3, [r7, #0]
401013c0:	61fb      	str	r3, [r7, #28]
/home/zhangxiang/Downloads/op-tee2/OP-TEE/bios_qemu_tz_arm/libfdt/fdt_ro.c:161
401013c2:	f04f 0300 	mov.w	r3, #0
401013c6:	61bb      	str	r3, [r7, #24]
/home/zhangxiang/Downloads/op-tee2/OP-TEE/bios_qemu_tz_arm/libfdt/fdt_ro.c:163
401013c8:	6878      	ldr	r0, [r7, #4]
401013ca:	f243 23ab 	movw	r3, #12971	; 0x32ab
401013ce:	f2c4 0310 	movt	r3, #16400	; 0x4010
401013d2:	4798      	blx	r3
401013d4:	60b8      	str	r0, [r7, #8]
401013d6:	68bb      	ldr	r3, [r7, #8]
401013d8:	2b00      	cmp	r3, #0
401013da:	d001      	beq.n	401013e0 <fdt_path_offset+0x42>
/home/zhangxiang/Downloads/op-tee2/OP-TEE/bios_qemu_tz_arm/libfdt/fdt_ro.c:163 (discriminator 1)
401013dc:	68bb      	ldr	r3, [r7, #8]
401013de:	e05b      	b.n	40101498 <fdt_path_offset+0xfa>
/home/zhangxiang/Downloads/op-tee2/OP-TEE/bios_qemu_tz_arm/libfdt/fdt_ro.c:166
401013e0:	683b      	ldr	r3, [r7, #0]
401013e2:	781b      	ldrb	r3, [r3, #0]
401013e4:	2b2f      	cmp	r3, #47	; 0x2f
401013e6:	d052      	beq.n	4010148e <fdt_path_offset+0xf0>
/home/zhangxiang/Downloads/op-tee2/OP-TEE/bios_qemu_tz_arm/libfdt/fdt_ro.c:167
401013e8:	f04f 012f 	mov.w	r1, #47	; 0x2f
401013ec:	6838      	ldr	r0, [r7, #0]
401013ee:	f644 3327 	movw	r3, #19239	; 0x4b27
401013f2:	f2c4 0310 	movt	r3, #16400	; 0x4010
401013f6:	4798      	blx	r3
401013f8:	6178      	str	r0, [r7, #20]
/home/zhangxiang/Downloads/op-tee2/OP-TEE/bios_qemu_tz_arm/libfdt/fdt_ro.c:169
401013fa:	697b      	ldr	r3, [r7, #20]
401013fc:	2b00      	cmp	r3, #0
401013fe:	d101      	bne.n	40101404 <fdt_path_offset+0x66>
/home/zhangxiang/Downloads/op-tee2/OP-TEE/bios_qemu_tz_arm/libfdt/fdt_ro.c:170
40101400:	68fb      	ldr	r3, [r7, #12]
40101402:	617b      	str	r3, [r7, #20]
/home/zhangxiang/Downloads/op-tee2/OP-TEE/bios_qemu_tz_arm/libfdt/fdt_ro.c:172
40101404:	697a      	ldr	r2, [r7, #20]
40101406:	69fb      	ldr	r3, [r7, #28]
40101408:	eba2 0303 	sub.w	r3, r2, r3
4010140c:	461a      	mov	r2, r3
4010140e:	69f9      	ldr	r1, [r7, #28]
40101410:	6878      	ldr	r0, [r7, #4]
40101412:	f000 f9f2 	bl	401017fa <fdt_get_alias_namelen>
40101416:	61f8      	str	r0, [r7, #28]
/home/zhangxiang/Downloads/op-tee2/OP-TEE/bios_qemu_tz_arm/libfdt/fdt_ro.c:173
40101418:	69fb      	ldr	r3, [r7, #28]
4010141a:	2b00      	cmp	r3, #0
4010141c:	d102      	bne.n	40101424 <fdt_path_offset+0x86>
/home/zhangxiang/Downloads/op-tee2/OP-TEE/bios_qemu_tz_arm/libfdt/fdt_ro.c:174
4010141e:	f06f 0304 	mvn.w	r3, #4
40101422:	e039      	b.n	40101498 <fdt_path_offset+0xfa>
/home/zhangxiang/Downloads/op-tee2/OP-TEE/bios_qemu_tz_arm/libfdt/fdt_ro.c:175
40101424:	69f9      	ldr	r1, [r7, #28]
40101426:	6878      	ldr	r0, [r7, #4]
40101428:	f7ff ffb9 	bl	4010139e <fdt_path_offset>
4010142c:	61b8      	str	r0, [r7, #24]
/home/zhangxiang/Downloads/op-tee2/OP-TEE/bios_qemu_tz_arm/libfdt/fdt_ro.c:177
4010142e:	697b      	ldr	r3, [r7, #20]
40101430:	61fb      	str	r3, [r7, #28]
/home/zhangxiang/Downloads/op-tee2/OP-TEE/bios_qemu_tz_arm/libfdt/fdt_ro.c:180
40101432:	e02c      	b.n	4010148e <fdt_path_offset+0xf0>
/home/zhangxiang/Downloads/op-tee2/OP-TEE/bios_qemu_tz_arm/libfdt/fdt_ro.c:184
40101434:	69fb      	ldr	r3, [r7, #28]
40101436:	f103 0301 	add.w	r3, r3, #1
4010143a:	61fb      	str	r3, [r7, #28]
/home/zhangxiang/Downloads/op-tee2/OP-TEE/bios_qemu_tz_arm/libfdt/fdt_ro.c:183
4010143c:	69fb      	ldr	r3, [r7, #28]
4010143e:	781b      	ldrb	r3, [r3, #0]
40101440:	2b2f      	cmp	r3, #47	; 0x2f
40101442:	d0f7      	beq.n	40101434 <fdt_path_offset+0x96>
/home/zhangxiang/Downloads/op-tee2/OP-TEE/bios_qemu_tz_arm/libfdt/fdt_ro.c:185
40101444:	69fb      	ldr	r3, [r7, #28]
40101446:	781b      	ldrb	r3, [r3, #0]
40101448:	2b00      	cmp	r3, #0
4010144a:	d101      	bne.n	40101450 <fdt_path_offset+0xb2>
/home/zhangxiang/Downloads/op-tee2/OP-TEE/bios_qemu_tz_arm/libfdt/fdt_ro.c:186
4010144c:	69bb      	ldr	r3, [r7, #24]
4010144e:	e023      	b.n	40101498 <fdt_path_offset+0xfa>
/home/zhangxiang/Downloads/op-tee2/OP-TEE/bios_qemu_tz_arm/libfdt/fdt_ro.c:187
40101450:	f04f 012f 	mov.w	r1, #47	; 0x2f
40101454:	69f8      	ldr	r0, [r7, #28]
40101456:	f644 3327 	movw	r3, #19239	; 0x4b27
4010145a:	f2c4 0310 	movt	r3, #16400	; 0x4010
4010145e:	4798      	blx	r3
40101460:	6138      	str	r0, [r7, #16]
/home/zhangxiang/Downloads/op-tee2/OP-TEE/bios_qemu_tz_arm/libfdt/fdt_ro.c:188
40101462:	693b      	ldr	r3, [r7, #16]
40101464:	2b00      	cmp	r3, #0
40101466:	d101      	bne.n	4010146c <fdt_path_offset+0xce>
/home/zhangxiang/Downloads/op-tee2/OP-TEE/bios_qemu_tz_arm/libfdt/fdt_ro.c:189
40101468:	68fb      	ldr	r3, [r7, #12]
4010146a:	613b      	str	r3, [r7, #16]
/home/zhangxiang/Downloads/op-tee2/OP-TEE/bios_qemu_tz_arm/libfdt/fdt_ro.c:191
4010146c:	693a      	ldr	r2, [r7, #16]
4010146e:	69fb      	ldr	r3, [r7, #28]
40101470:	eba2 0303 	sub.w	r3, r2, r3
40101474:	69fa      	ldr	r2, [r7, #28]
40101476:	69b9      	ldr	r1, [r7, #24]
40101478:	6878      	ldr	r0, [r7, #4]
4010147a:	f7ff ff34 	bl	401012e6 <fdt_subnode_offset_namelen>
4010147e:	61b8      	str	r0, [r7, #24]
/home/zhangxiang/Downloads/op-tee2/OP-TEE/bios_qemu_tz_arm/libfdt/fdt_ro.c:192
40101480:	69bb      	ldr	r3, [r7, #24]
40101482:	2b00      	cmp	r3, #0
40101484:	da01      	bge.n	4010148a <fdt_path_offset+0xec>
/home/zhangxiang/Downloads/op-tee2/OP-TEE/bios_qemu_tz_arm/libfdt/fdt_ro.c:193
40101486:	69bb      	ldr	r3, [r7, #24]
40101488:	e006      	b.n	40101498 <fdt_path_offset+0xfa>
/home/zhangxiang/Downloads/op-tee2/OP-TEE/bios_qemu_tz_arm/libfdt/fdt_ro.c:195
4010148a:	693b      	ldr	r3, [r7, #16]
4010148c:	61fb      	str	r3, [r7, #28]
/home/zhangxiang/Downloads/op-tee2/OP-TEE/bios_qemu_tz_arm/libfdt/fdt_ro.c:180
4010148e:	69fb      	ldr	r3, [r7, #28]
40101490:	781b      	ldrb	r3, [r3, #0]
40101492:	2b00      	cmp	r3, #0
40101494:	d1d2      	bne.n	4010143c <fdt_path_offset+0x9e>
/home/zhangxiang/Downloads/op-tee2/OP-TEE/bios_qemu_tz_arm/libfdt/fdt_ro.c:198
40101496:	69bb      	ldr	r3, [r7, #24]
/home/zhangxiang/Downloads/op-tee2/OP-TEE/bios_qemu_tz_arm/libfdt/fdt_ro.c:199
40101498:	4618      	mov	r0, r3
4010149a:	f107 0720 	add.w	r7, r7, #32
4010149e:	46bd      	mov	sp, r7
401014a0:	bd80      	pop	{r7, pc}

401014a2 <fdt_get_name>:
fdt_get_name():
/home/zhangxiang/Downloads/op-tee2/OP-TEE/bios_qemu_tz_arm/libfdt/fdt_ro.c:202
401014a2:	e96d 7e02 	strd	r7, lr, [sp, #-8]!
401014a6:	b086      	sub	sp, #24
401014a8:	af00      	add	r7, sp, #0
401014aa:	60f8      	str	r0, [r7, #12]
401014ac:	60b9      	str	r1, [r7, #8]
401014ae:	607a      	str	r2, [r7, #4]
/home/zhangxiang/Downloads/op-tee2/OP-TEE/bios_qemu_tz_arm/libfdt/fdt_ro.c:203
401014b0:	68b9      	ldr	r1, [r7, #8]
401014b2:	68f8      	ldr	r0, [r7, #12]
401014b4:	f7ff fdc0 	bl	40101038 <_fdt_offset_ptr>
401014b8:	6138      	str	r0, [r7, #16]
/home/zhangxiang/Downloads/op-tee2/OP-TEE/bios_qemu_tz_arm/libfdt/fdt_ro.c:206
401014ba:	68f8      	ldr	r0, [r7, #12]
401014bc:	f243 23ab 	movw	r3, #12971	; 0x32ab
401014c0:	f2c4 0310 	movt	r3, #16400	; 0x4010
401014c4:	4798      	blx	r3
401014c6:	6178      	str	r0, [r7, #20]
401014c8:	697b      	ldr	r3, [r7, #20]
401014ca:	2b00      	cmp	r3, #0
401014cc:	d11e      	bne.n	4010150c <fdt_get_name+0x6a>
/home/zhangxiang/Downloads/op-tee2/OP-TEE/bios_qemu_tz_arm/libfdt/fdt_ro.c:207
401014ce:	68b9      	ldr	r1, [r7, #8]
401014d0:	68f8      	ldr	r0, [r7, #12]
401014d2:	f243 43e3 	movw	r3, #13539	; 0x34e3
401014d6:	f2c4 0310 	movt	r3, #16400	; 0x4010
401014da:	4798      	blx	r3
401014dc:	6178      	str	r0, [r7, #20]
401014de:	697b      	ldr	r3, [r7, #20]
401014e0:	2b00      	cmp	r3, #0
401014e2:	db13      	blt.n	4010150c <fdt_get_name+0x6a>
/home/zhangxiang/Downloads/op-tee2/OP-TEE/bios_qemu_tz_arm/libfdt/fdt_ro.c:210
401014e4:	687b      	ldr	r3, [r7, #4]
401014e6:	2b00      	cmp	r3, #0
401014e8:	d00c      	beq.n	40101504 <fdt_get_name+0x62>
/home/zhangxiang/Downloads/op-tee2/OP-TEE/bios_qemu_tz_arm/libfdt/fdt_ro.c:211
401014ea:	693b      	ldr	r3, [r7, #16]
401014ec:	f103 0304 	add.w	r3, r3, #4
401014f0:	4618      	mov	r0, r3
401014f2:	f644 239d 	movw	r3, #19101	; 0x4a9d
401014f6:	f2c4 0310 	movt	r3, #16400	; 0x4010
401014fa:	4798      	blx	r3
401014fc:	4603      	mov	r3, r0
401014fe:	461a      	mov	r2, r3
40101500:	687b      	ldr	r3, [r7, #4]
40101502:	601a      	str	r2, [r3, #0]
/home/zhangxiang/Downloads/op-tee2/OP-TEE/bios_qemu_tz_arm/libfdt/fdt_ro.c:213
40101504:	693b      	ldr	r3, [r7, #16]
40101506:	f103 0304 	add.w	r3, r3, #4
4010150a:	e007      	b.n	4010151c <fdt_get_name+0x7a>
/home/zhangxiang/Downloads/op-tee2/OP-TEE/bios_qemu_tz_arm/libfdt/fdt_ro.c:216
4010150c:	687b      	ldr	r3, [r7, #4]
4010150e:	2b00      	cmp	r3, #0
40101510:	d002      	beq.n	40101518 <fdt_get_name+0x76>
/home/zhangxiang/Downloads/op-tee2/OP-TEE/bios_qemu_tz_arm/libfdt/fdt_ro.c:217
40101512:	687b      	ldr	r3, [r7, #4]
40101514:	697a      	ldr	r2, [r7, #20]
40101516:	601a      	str	r2, [r3, #0]
/home/zhangxiang/Downloads/op-tee2/OP-TEE/bios_qemu_tz_arm/libfdt/fdt_ro.c:218
40101518:	f04f 0300 	mov.w	r3, #0
/home/zhangxiang/Downloads/op-tee2/OP-TEE/bios_qemu_tz_arm/libfdt/fdt_ro.c:219
4010151c:	4618      	mov	r0, r3
4010151e:	f107 0718 	add.w	r7, r7, #24
40101522:	46bd      	mov	sp, r7
40101524:	bd80      	pop	{r7, pc}

40101526 <fdt_first_property_offset>:
fdt_first_property_offset():
/home/zhangxiang/Downloads/op-tee2/OP-TEE/bios_qemu_tz_arm/libfdt/fdt_ro.c:222
40101526:	e96d 7e02 	strd	r7, lr, [sp, #-8]!
4010152a:	b084      	sub	sp, #16
4010152c:	af00      	add	r7, sp, #0
4010152e:	6078      	str	r0, [r7, #4]
40101530:	6039      	str	r1, [r7, #0]
/home/zhangxiang/Downloads/op-tee2/OP-TEE/bios_qemu_tz_arm/libfdt/fdt_ro.c:225
40101532:	6839      	ldr	r1, [r7, #0]
40101534:	6878      	ldr	r0, [r7, #4]
40101536:	f243 43e3 	movw	r3, #13539	; 0x34e3
4010153a:	f2c4 0310 	movt	r3, #16400	; 0x4010
4010153e:	4798      	blx	r3
40101540:	60f8      	str	r0, [r7, #12]
40101542:	68fb      	ldr	r3, [r7, #12]
40101544:	2b00      	cmp	r3, #0
40101546:	da01      	bge.n	4010154c <fdt_first_property_offset+0x26>
/home/zhangxiang/Downloads/op-tee2/OP-TEE/bios_qemu_tz_arm/libfdt/fdt_ro.c:226
40101548:	68fb      	ldr	r3, [r7, #12]
4010154a:	e004      	b.n	40101556 <fdt_first_property_offset+0x30>
/home/zhangxiang/Downloads/op-tee2/OP-TEE/bios_qemu_tz_arm/libfdt/fdt_ro.c:228
4010154c:	68f9      	ldr	r1, [r7, #12]
4010154e:	6878      	ldr	r0, [r7, #4]
40101550:	f7ff fe9d 	bl	4010128e <_nextprop>
40101554:	4603      	mov	r3, r0
/home/zhangxiang/Downloads/op-tee2/OP-TEE/bios_qemu_tz_arm/libfdt/fdt_ro.c:229
40101556:	4618      	mov	r0, r3
40101558:	f107 0710 	add.w	r7, r7, #16
4010155c:	46bd      	mov	sp, r7
4010155e:	bd80      	pop	{r7, pc}

40101560 <fdt_next_property_offset>:
fdt_next_property_offset():
/home/zhangxiang/Downloads/op-tee2/OP-TEE/bios_qemu_tz_arm/libfdt/fdt_ro.c:232
40101560:	e96d 7e02 	strd	r7, lr, [sp, #-8]!
40101564:	b082      	sub	sp, #8
40101566:	af00      	add	r7, sp, #0
40101568:	6078      	str	r0, [r7, #4]
4010156a:	6039      	str	r1, [r7, #0]
/home/zhangxiang/Downloads/op-tee2/OP-TEE/bios_qemu_tz_arm/libfdt/fdt_ro.c:233
4010156c:	6839      	ldr	r1, [r7, #0]
4010156e:	6878      	ldr	r0, [r7, #4]
40101570:	f243 5323 	movw	r3, #13603	; 0x3523
40101574:	f2c4 0310 	movt	r3, #16400	; 0x4010
40101578:	4798      	blx	r3
4010157a:	6038      	str	r0, [r7, #0]
4010157c:	683b      	ldr	r3, [r7, #0]
4010157e:	2b00      	cmp	r3, #0
40101580:	da01      	bge.n	40101586 <fdt_next_property_offset+0x26>
/home/zhangxiang/Downloads/op-tee2/OP-TEE/bios_qemu_tz_arm/libfdt/fdt_ro.c:234
40101582:	683b      	ldr	r3, [r7, #0]
40101584:	e004      	b.n	40101590 <fdt_next_property_offset+0x30>
/home/zhangxiang/Downloads/op-tee2/OP-TEE/bios_qemu_tz_arm/libfdt/fdt_ro.c:236
40101586:	6839      	ldr	r1, [r7, #0]
40101588:	6878      	ldr	r0, [r7, #4]
4010158a:	f7ff fe80 	bl	4010128e <_nextprop>
4010158e:	4603      	mov	r3, r0
/home/zhangxiang/Downloads/op-tee2/OP-TEE/bios_qemu_tz_arm/libfdt/fdt_ro.c:237
40101590:	4618      	mov	r0, r3
40101592:	f107 0708 	add.w	r7, r7, #8
40101596:	46bd      	mov	sp, r7
40101598:	bd80      	pop	{r7, pc}

4010159a <fdt_get_property_by_offset>:
fdt_get_property_by_offset():
/home/zhangxiang/Downloads/op-tee2/OP-TEE/bios_qemu_tz_arm/libfdt/fdt_ro.c:242
4010159a:	e96d 7e02 	strd	r7, lr, [sp, #-8]!
4010159e:	b086      	sub	sp, #24
401015a0:	af00      	add	r7, sp, #0
401015a2:	60f8      	str	r0, [r7, #12]
401015a4:	60b9      	str	r1, [r7, #8]
401015a6:	607a      	str	r2, [r7, #4]
/home/zhangxiang/Downloads/op-tee2/OP-TEE/bios_qemu_tz_arm/libfdt/fdt_ro.c:246
401015a8:	68b9      	ldr	r1, [r7, #8]
401015aa:	68f8      	ldr	r0, [r7, #12]
401015ac:	f243 5323 	movw	r3, #13603	; 0x3523
401015b0:	f2c4 0310 	movt	r3, #16400	; 0x4010
401015b4:	4798      	blx	r3
401015b6:	6178      	str	r0, [r7, #20]
401015b8:	697b      	ldr	r3, [r7, #20]
401015ba:	2b00      	cmp	r3, #0
401015bc:	da08      	bge.n	401015d0 <fdt_get_property_by_offset+0x36>
/home/zhangxiang/Downloads/op-tee2/OP-TEE/bios_qemu_tz_arm/libfdt/fdt_ro.c:247
401015be:	687b      	ldr	r3, [r7, #4]
401015c0:	2b00      	cmp	r3, #0
401015c2:	d002      	beq.n	401015ca <fdt_get_property_by_offset+0x30>
/home/zhangxiang/Downloads/op-tee2/OP-TEE/bios_qemu_tz_arm/libfdt/fdt_ro.c:248
401015c4:	687b      	ldr	r3, [r7, #4]
401015c6:	697a      	ldr	r2, [r7, #20]
401015c8:	601a      	str	r2, [r3, #0]
/home/zhangxiang/Downloads/op-tee2/OP-TEE/bios_qemu_tz_arm/libfdt/fdt_ro.c:249
401015ca:	f04f 0300 	mov.w	r3, #0
401015ce:	e011      	b.n	401015f4 <fdt_get_property_by_offset+0x5a>
/home/zhangxiang/Downloads/op-tee2/OP-TEE/bios_qemu_tz_arm/libfdt/fdt_ro.c:252
401015d0:	68b9      	ldr	r1, [r7, #8]
401015d2:	68f8      	ldr	r0, [r7, #12]
401015d4:	f7ff fd30 	bl	40101038 <_fdt_offset_ptr>
401015d8:	6138      	str	r0, [r7, #16]
/home/zhangxiang/Downloads/op-tee2/OP-TEE/bios_qemu_tz_arm/libfdt/fdt_ro.c:254
401015da:	687b      	ldr	r3, [r7, #4]
401015dc:	2b00      	cmp	r3, #0
401015de:	d008      	beq.n	401015f2 <fdt_get_property_by_offset+0x58>
/home/zhangxiang/Downloads/op-tee2/OP-TEE/bios_qemu_tz_arm/libfdt/fdt_ro.c:255
401015e0:	693b      	ldr	r3, [r7, #16]
401015e2:	685b      	ldr	r3, [r3, #4]
401015e4:	4618      	mov	r0, r3
401015e6:	f7ff fc53 	bl	40100e90 <fdt32_to_cpu>
401015ea:	4603      	mov	r3, r0
401015ec:	461a      	mov	r2, r3
401015ee:	687b      	ldr	r3, [r7, #4]
401015f0:	601a      	str	r2, [r3, #0]
/home/zhangxiang/Downloads/op-tee2/OP-TEE/bios_qemu_tz_arm/libfdt/fdt_ro.c:257
401015f2:	693b      	ldr	r3, [r7, #16]
/home/zhangxiang/Downloads/op-tee2/OP-TEE/bios_qemu_tz_arm/libfdt/fdt_ro.c:258
401015f4:	4618      	mov	r0, r3
401015f6:	f107 0718 	add.w	r7, r7, #24
401015fa:	46bd      	mov	sp, r7
401015fc:	bd80      	pop	{r7, pc}

401015fe <fdt_get_property_namelen>:
fdt_get_property_namelen():
/home/zhangxiang/Downloads/op-tee2/OP-TEE/bios_qemu_tz_arm/libfdt/fdt_ro.c:264
401015fe:	e96d 7e02 	strd	r7, lr, [sp, #-8]!
40101602:	b086      	sub	sp, #24
40101604:	af00      	add	r7, sp, #0
40101606:	60f8      	str	r0, [r7, #12]
40101608:	60b9      	str	r1, [r7, #8]
4010160a:	607a      	str	r2, [r7, #4]
4010160c:	603b      	str	r3, [r7, #0]
/home/zhangxiang/Downloads/op-tee2/OP-TEE/bios_qemu_tz_arm/libfdt/fdt_ro.c:265
4010160e:	68b9      	ldr	r1, [r7, #8]
40101610:	68f8      	ldr	r0, [r7, #12]
40101612:	f7ff ff88 	bl	40101526 <fdt_first_property_offset>
40101616:	60b8      	str	r0, [r7, #8]
40101618:	e022      	b.n	40101660 <fdt_get_property_namelen+0x62>
/home/zhangxiang/Downloads/op-tee2/OP-TEE/bios_qemu_tz_arm/libfdt/fdt_ro.c:270
4010161a:	6a3a      	ldr	r2, [r7, #32]
4010161c:	68b9      	ldr	r1, [r7, #8]
4010161e:	68f8      	ldr	r0, [r7, #12]
40101620:	f7ff ffbb 	bl	4010159a <fdt_get_property_by_offset>
40101624:	6178      	str	r0, [r7, #20]
40101626:	697b      	ldr	r3, [r7, #20]
40101628:	2b00      	cmp	r3, #0
4010162a:	d103      	bne.n	40101634 <fdt_get_property_namelen+0x36>
/home/zhangxiang/Downloads/op-tee2/OP-TEE/bios_qemu_tz_arm/libfdt/fdt_ro.c:271
4010162c:	f06f 030c 	mvn.w	r3, #12
40101630:	60bb      	str	r3, [r7, #8]
/home/zhangxiang/Downloads/op-tee2/OP-TEE/bios_qemu_tz_arm/libfdt/fdt_ro.c:272
40101632:	e018      	b.n	40101666 <fdt_get_property_namelen+0x68>
/home/zhangxiang/Downloads/op-tee2/OP-TEE/bios_qemu_tz_arm/libfdt/fdt_ro.c:274
40101634:	697b      	ldr	r3, [r7, #20]
40101636:	689b      	ldr	r3, [r3, #8]
40101638:	4618      	mov	r0, r3
4010163a:	f7ff fc29 	bl	40100e90 <fdt32_to_cpu>
4010163e:	4603      	mov	r3, r0
40101640:	4619      	mov	r1, r3
40101642:	683b      	ldr	r3, [r7, #0]
40101644:	687a      	ldr	r2, [r7, #4]
40101646:	68f8      	ldr	r0, [r7, #12]
40101648:	f7ff fd8b 	bl	40101162 <_fdt_string_eq>
4010164c:	4603      	mov	r3, r0
4010164e:	2b00      	cmp	r3, #0
40101650:	d001      	beq.n	40101656 <fdt_get_property_namelen+0x58>
/home/zhangxiang/Downloads/op-tee2/OP-TEE/bios_qemu_tz_arm/libfdt/fdt_ro.c:276
40101652:	697b      	ldr	r3, [r7, #20]
40101654:	e00f      	b.n	40101676 <fdt_get_property_namelen+0x78>
/home/zhangxiang/Downloads/op-tee2/OP-TEE/bios_qemu_tz_arm/libfdt/fdt_ro.c:267
40101656:	68b9      	ldr	r1, [r7, #8]
40101658:	68f8      	ldr	r0, [r7, #12]
4010165a:	f7ff ff81 	bl	40101560 <fdt_next_property_offset>
4010165e:	60b8      	str	r0, [r7, #8]
/home/zhangxiang/Downloads/op-tee2/OP-TEE/bios_qemu_tz_arm/libfdt/fdt_ro.c:265 (discriminator 1)
40101660:	68bb      	ldr	r3, [r7, #8]
40101662:	2b00      	cmp	r3, #0
40101664:	dad9      	bge.n	4010161a <fdt_get_property_namelen+0x1c>
/home/zhangxiang/Downloads/op-tee2/OP-TEE/bios_qemu_tz_arm/libfdt/fdt_ro.c:279
40101666:	6a3b      	ldr	r3, [r7, #32]
40101668:	2b00      	cmp	r3, #0
4010166a:	d002      	beq.n	40101672 <fdt_get_property_namelen+0x74>
/home/zhangxiang/Downloads/op-tee2/OP-TEE/bios_qemu_tz_arm/libfdt/fdt_ro.c:280
4010166c:	6a3b      	ldr	r3, [r7, #32]
4010166e:	68ba      	ldr	r2, [r7, #8]
40101670:	601a      	str	r2, [r3, #0]
/home/zhangxiang/Downloads/op-tee2/OP-TEE/bios_qemu_tz_arm/libfdt/fdt_ro.c:281
40101672:	f04f 0300 	mov.w	r3, #0
/home/zhangxiang/Downloads/op-tee2/OP-TEE/bios_qemu_tz_arm/libfdt/fdt_ro.c:282
40101676:	4618      	mov	r0, r3
40101678:	f107 0718 	add.w	r7, r7, #24
4010167c:	46bd      	mov	sp, r7
4010167e:	bd80      	pop	{r7, pc}

40101680 <fdt_get_property>:
fdt_get_property():
/home/zhangxiang/Downloads/op-tee2/OP-TEE/bios_qemu_tz_arm/libfdt/fdt_ro.c:287
40101680:	e96d 7e02 	strd	r7, lr, [sp, #-8]!
40101684:	b086      	sub	sp, #24
40101686:	af02      	add	r7, sp, #8
40101688:	60f8      	str	r0, [r7, #12]
4010168a:	60b9      	str	r1, [r7, #8]
4010168c:	607a      	str	r2, [r7, #4]
4010168e:	603b      	str	r3, [r7, #0]
/home/zhangxiang/Downloads/op-tee2/OP-TEE/bios_qemu_tz_arm/libfdt/fdt_ro.c:289
40101690:	6878      	ldr	r0, [r7, #4]
40101692:	f644 239d 	movw	r3, #19101	; 0x4a9d
40101696:	f2c4 0310 	movt	r3, #16400	; 0x4010
4010169a:	4798      	blx	r3
4010169c:	4603      	mov	r3, r0
/home/zhangxiang/Downloads/op-tee2/OP-TEE/bios_qemu_tz_arm/libfdt/fdt_ro.c:288
4010169e:	461a      	mov	r2, r3
401016a0:	683b      	ldr	r3, [r7, #0]
401016a2:	9300      	str	r3, [sp, #0]
401016a4:	4613      	mov	r3, r2
401016a6:	687a      	ldr	r2, [r7, #4]
401016a8:	68b9      	ldr	r1, [r7, #8]
401016aa:	68f8      	ldr	r0, [r7, #12]
401016ac:	f7ff ffa7 	bl	401015fe <fdt_get_property_namelen>
401016b0:	4603      	mov	r3, r0
/home/zhangxiang/Downloads/op-tee2/OP-TEE/bios_qemu_tz_arm/libfdt/fdt_ro.c:290
401016b2:	4618      	mov	r0, r3
401016b4:	f107 0710 	add.w	r7, r7, #16
401016b8:	46bd      	mov	sp, r7
401016ba:	bd80      	pop	{r7, pc}

401016bc <fdt_getprop_namelen>:
fdt_getprop_namelen():
/home/zhangxiang/Downloads/op-tee2/OP-TEE/bios_qemu_tz_arm/libfdt/fdt_ro.c:294
401016bc:	e96d 7e02 	strd	r7, lr, [sp, #-8]!
401016c0:	b088      	sub	sp, #32
401016c2:	af02      	add	r7, sp, #8
401016c4:	60f8      	str	r0, [r7, #12]
401016c6:	60b9      	str	r1, [r7, #8]
401016c8:	607a      	str	r2, [r7, #4]
401016ca:	603b      	str	r3, [r7, #0]
/home/zhangxiang/Downloads/op-tee2/OP-TEE/bios_qemu_tz_arm/libfdt/fdt_ro.c:297
401016cc:	6a3b      	ldr	r3, [r7, #32]
401016ce:	9300      	str	r3, [sp, #0]
401016d0:	683b      	ldr	r3, [r7, #0]
401016d2:	687a      	ldr	r2, [r7, #4]
401016d4:	68b9      	ldr	r1, [r7, #8]
401016d6:	68f8      	ldr	r0, [r7, #12]
401016d8:	f7ff ff91 	bl	401015fe <fdt_get_property_namelen>
401016dc:	6178      	str	r0, [r7, #20]
/home/zhangxiang/Downloads/op-tee2/OP-TEE/bios_qemu_tz_arm/libfdt/fdt_ro.c:298
401016de:	697b      	ldr	r3, [r7, #20]
401016e0:	2b00      	cmp	r3, #0
401016e2:	d102      	bne.n	401016ea <fdt_getprop_namelen+0x2e>
/home/zhangxiang/Downloads/op-tee2/OP-TEE/bios_qemu_tz_arm/libfdt/fdt_ro.c:299
401016e4:	f04f 0300 	mov.w	r3, #0
401016e8:	e002      	b.n	401016f0 <fdt_getprop_namelen+0x34>
/home/zhangxiang/Downloads/op-tee2/OP-TEE/bios_qemu_tz_arm/libfdt/fdt_ro.c:301
401016ea:	697b      	ldr	r3, [r7, #20]
401016ec:	f103 030c 	add.w	r3, r3, #12
/home/zhangxiang/Downloads/op-tee2/OP-TEE/bios_qemu_tz_arm/libfdt/fdt_ro.c:302
401016f0:	4618      	mov	r0, r3
401016f2:	f107 0718 	add.w	r7, r7, #24
401016f6:	46bd      	mov	sp, r7
401016f8:	bd80      	pop	{r7, pc}

401016fa <fdt_getprop_by_offset>:
fdt_getprop_by_offset():
/home/zhangxiang/Downloads/op-tee2/OP-TEE/bios_qemu_tz_arm/libfdt/fdt_ro.c:306
401016fa:	e96d 7e02 	strd	r7, lr, [sp, #-8]!
401016fe:	b086      	sub	sp, #24
40101700:	af00      	add	r7, sp, #0
40101702:	60f8      	str	r0, [r7, #12]
40101704:	60b9      	str	r1, [r7, #8]
40101706:	607a      	str	r2, [r7, #4]
40101708:	603b      	str	r3, [r7, #0]
/home/zhangxiang/Downloads/op-tee2/OP-TEE/bios_qemu_tz_arm/libfdt/fdt_ro.c:309
4010170a:	683a      	ldr	r2, [r7, #0]
4010170c:	68b9      	ldr	r1, [r7, #8]
4010170e:	68f8      	ldr	r0, [r7, #12]
40101710:	f7ff ff43 	bl	4010159a <fdt_get_property_by_offset>
40101714:	6178      	str	r0, [r7, #20]
/home/zhangxiang/Downloads/op-tee2/OP-TEE/bios_qemu_tz_arm/libfdt/fdt_ro.c:310
40101716:	697b      	ldr	r3, [r7, #20]
40101718:	2b00      	cmp	r3, #0
4010171a:	d102      	bne.n	40101722 <fdt_getprop_by_offset+0x28>
/home/zhangxiang/Downloads/op-tee2/OP-TEE/bios_qemu_tz_arm/libfdt/fdt_ro.c:311
4010171c:	f04f 0300 	mov.w	r3, #0
40101720:	e012      	b.n	40101748 <fdt_getprop_by_offset+0x4e>
/home/zhangxiang/Downloads/op-tee2/OP-TEE/bios_qemu_tz_arm/libfdt/fdt_ro.c:312
40101722:	687b      	ldr	r3, [r7, #4]
40101724:	2b00      	cmp	r3, #0
40101726:	d00c      	beq.n	40101742 <fdt_getprop_by_offset+0x48>
/home/zhangxiang/Downloads/op-tee2/OP-TEE/bios_qemu_tz_arm/libfdt/fdt_ro.c:313
40101728:	697b      	ldr	r3, [r7, #20]
4010172a:	689b      	ldr	r3, [r3, #8]
4010172c:	4618      	mov	r0, r3
4010172e:	f7ff fbaf 	bl	40100e90 <fdt32_to_cpu>
40101732:	4603      	mov	r3, r0
40101734:	4619      	mov	r1, r3
40101736:	68f8      	ldr	r0, [r7, #12]
40101738:	f7ff fcfe 	bl	40101138 <fdt_string>
4010173c:	4602      	mov	r2, r0
4010173e:	687b      	ldr	r3, [r7, #4]
40101740:	601a      	str	r2, [r3, #0]
/home/zhangxiang/Downloads/op-tee2/OP-TEE/bios_qemu_tz_arm/libfdt/fdt_ro.c:314
40101742:	697b      	ldr	r3, [r7, #20]
40101744:	f103 030c 	add.w	r3, r3, #12
/home/zhangxiang/Downloads/op-tee2/OP-TEE/bios_qemu_tz_arm/libfdt/fdt_ro.c:315
40101748:	4618      	mov	r0, r3
4010174a:	f107 0718 	add.w	r7, r7, #24
4010174e:	46bd      	mov	sp, r7
40101750:	bd80      	pop	{r7, pc}

40101752 <fdt_getprop>:
fdt_getprop():
/home/zhangxiang/Downloads/op-tee2/OP-TEE/bios_qemu_tz_arm/libfdt/fdt_ro.c:319
40101752:	e96d 7e02 	strd	r7, lr, [sp, #-8]!
40101756:	b086      	sub	sp, #24
40101758:	af02      	add	r7, sp, #8
4010175a:	60f8      	str	r0, [r7, #12]
4010175c:	60b9      	str	r1, [r7, #8]
4010175e:	607a      	str	r2, [r7, #4]
40101760:	603b      	str	r3, [r7, #0]
/home/zhangxiang/Downloads/op-tee2/OP-TEE/bios_qemu_tz_arm/libfdt/fdt_ro.c:320
40101762:	6878      	ldr	r0, [r7, #4]
40101764:	f644 239d 	movw	r3, #19101	; 0x4a9d
40101768:	f2c4 0310 	movt	r3, #16400	; 0x4010
4010176c:	4798      	blx	r3
4010176e:	4603      	mov	r3, r0
40101770:	461a      	mov	r2, r3
40101772:	683b      	ldr	r3, [r7, #0]
40101774:	9300      	str	r3, [sp, #0]
40101776:	4613      	mov	r3, r2
40101778:	687a      	ldr	r2, [r7, #4]
4010177a:	68b9      	ldr	r1, [r7, #8]
4010177c:	68f8      	ldr	r0, [r7, #12]
4010177e:	f7ff ff9d 	bl	401016bc <fdt_getprop_namelen>
40101782:	4603      	mov	r3, r0
/home/zhangxiang/Downloads/op-tee2/OP-TEE/bios_qemu_tz_arm/libfdt/fdt_ro.c:321
40101784:	4618      	mov	r0, r3
40101786:	f107 0710 	add.w	r7, r7, #16
4010178a:	46bd      	mov	sp, r7
4010178c:	bd80      	pop	{r7, pc}

4010178e <fdt_get_phandle>:
fdt_get_phandle():
/home/zhangxiang/Downloads/op-tee2/OP-TEE/bios_qemu_tz_arm/libfdt/fdt_ro.c:324
4010178e:	e96d 7e02 	strd	r7, lr, [sp, #-8]!
40101792:	b084      	sub	sp, #16
40101794:	af00      	add	r7, sp, #0
40101796:	6078      	str	r0, [r7, #4]
40101798:	6039      	str	r1, [r7, #0]
/home/zhangxiang/Downloads/op-tee2/OP-TEE/bios_qemu_tz_arm/libfdt/fdt_ro.c:330
4010179a:	f107 0308 	add.w	r3, r7, #8
4010179e:	f245 22cc 	movw	r2, #21196	; 0x52cc
401017a2:	f2c4 0210 	movt	r2, #16400	; 0x4010
401017a6:	6839      	ldr	r1, [r7, #0]
401017a8:	6878      	ldr	r0, [r7, #4]
401017aa:	f7ff ffd2 	bl	40101752 <fdt_getprop>
401017ae:	60f8      	str	r0, [r7, #12]
/home/zhangxiang/Downloads/op-tee2/OP-TEE/bios_qemu_tz_arm/libfdt/fdt_ro.c:331
401017b0:	68fb      	ldr	r3, [r7, #12]
401017b2:	2b00      	cmp	r3, #0
401017b4:	d002      	beq.n	401017bc <fdt_get_phandle+0x2e>
/home/zhangxiang/Downloads/op-tee2/OP-TEE/bios_qemu_tz_arm/libfdt/fdt_ro.c:331 (discriminator 1)
401017b6:	68bb      	ldr	r3, [r7, #8]
401017b8:	2b04      	cmp	r3, #4
401017ba:	d013      	beq.n	401017e4 <fdt_get_phandle+0x56>
/home/zhangxiang/Downloads/op-tee2/OP-TEE/bios_qemu_tz_arm/libfdt/fdt_ro.c:332
401017bc:	f107 0308 	add.w	r3, r7, #8
401017c0:	f245 22d4 	movw	r2, #21204	; 0x52d4
401017c4:	f2c4 0210 	movt	r2, #16400	; 0x4010
401017c8:	6839      	ldr	r1, [r7, #0]
401017ca:	6878      	ldr	r0, [r7, #4]
401017cc:	f7ff ffc1 	bl	40101752 <fdt_getprop>
401017d0:	60f8      	str	r0, [r7, #12]
/home/zhangxiang/Downloads/op-tee2/OP-TEE/bios_qemu_tz_arm/libfdt/fdt_ro.c:333
401017d2:	68fb      	ldr	r3, [r7, #12]
401017d4:	2b00      	cmp	r3, #0
401017d6:	d002      	beq.n	401017de <fdt_get_phandle+0x50>
/home/zhangxiang/Downloads/op-tee2/OP-TEE/bios_qemu_tz_arm/libfdt/fdt_ro.c:333 (discriminator 1)
401017d8:	68bb      	ldr	r3, [r7, #8]
401017da:	2b04      	cmp	r3, #4
401017dc:	d002      	beq.n	401017e4 <fdt_get_phandle+0x56>
/home/zhangxiang/Downloads/op-tee2/OP-TEE/bios_qemu_tz_arm/libfdt/fdt_ro.c:334
401017de:	f04f 0300 	mov.w	r3, #0
401017e2:	e005      	b.n	401017f0 <fdt_get_phandle+0x62>
/home/zhangxiang/Downloads/op-tee2/OP-TEE/bios_qemu_tz_arm/libfdt/fdt_ro.c:337
401017e4:	68fb      	ldr	r3, [r7, #12]
401017e6:	681b      	ldr	r3, [r3, #0]
401017e8:	4618      	mov	r0, r3
401017ea:	f7ff fb51 	bl	40100e90 <fdt32_to_cpu>
401017ee:	4603      	mov	r3, r0
/home/zhangxiang/Downloads/op-tee2/OP-TEE/bios_qemu_tz_arm/libfdt/fdt_ro.c:338 (discriminator 1)
401017f0:	4618      	mov	r0, r3
401017f2:	f107 0710 	add.w	r7, r7, #16
401017f6:	46bd      	mov	sp, r7
401017f8:	bd80      	pop	{r7, pc}

401017fa <fdt_get_alias_namelen>:
fdt_get_alias_namelen():
/home/zhangxiang/Downloads/op-tee2/OP-TEE/bios_qemu_tz_arm/libfdt/fdt_ro.c:342
401017fa:	e96d 7e02 	strd	r7, lr, [sp, #-8]!
401017fe:	b088      	sub	sp, #32
40101800:	af02      	add	r7, sp, #8
40101802:	60f8      	str	r0, [r7, #12]
40101804:	60b9      	str	r1, [r7, #8]
40101806:	607a      	str	r2, [r7, #4]
/home/zhangxiang/Downloads/op-tee2/OP-TEE/bios_qemu_tz_arm/libfdt/fdt_ro.c:345
40101808:	f245 21e4 	movw	r1, #21220	; 0x52e4
4010180c:	f2c4 0110 	movt	r1, #16400	; 0x4010
40101810:	68f8      	ldr	r0, [r7, #12]
40101812:	f7ff fdc4 	bl	4010139e <fdt_path_offset>
40101816:	6178      	str	r0, [r7, #20]
/home/zhangxiang/Downloads/op-tee2/OP-TEE/bios_qemu_tz_arm/libfdt/fdt_ro.c:346
40101818:	697b      	ldr	r3, [r7, #20]
4010181a:	2b00      	cmp	r3, #0
4010181c:	da02      	bge.n	40101824 <fdt_get_alias_namelen+0x2a>
/home/zhangxiang/Downloads/op-tee2/OP-TEE/bios_qemu_tz_arm/libfdt/fdt_ro.c:347
4010181e:	f04f 0300 	mov.w	r3, #0
40101822:	e009      	b.n	40101838 <fdt_get_alias_namelen+0x3e>
/home/zhangxiang/Downloads/op-tee2/OP-TEE/bios_qemu_tz_arm/libfdt/fdt_ro.c:349
40101824:	f04f 0300 	mov.w	r3, #0
40101828:	9300      	str	r3, [sp, #0]
4010182a:	687b      	ldr	r3, [r7, #4]
4010182c:	68ba      	ldr	r2, [r7, #8]
4010182e:	6979      	ldr	r1, [r7, #20]
40101830:	68f8      	ldr	r0, [r7, #12]
40101832:	f7ff ff43 	bl	401016bc <fdt_getprop_namelen>
40101836:	4603      	mov	r3, r0
/home/zhangxiang/Downloads/op-tee2/OP-TEE/bios_qemu_tz_arm/libfdt/fdt_ro.c:350
40101838:	4618      	mov	r0, r3
4010183a:	f107 0718 	add.w	r7, r7, #24
4010183e:	46bd      	mov	sp, r7
40101840:	bd80      	pop	{r7, pc}

40101842 <fdt_get_alias>:
fdt_get_alias():
/home/zhangxiang/Downloads/op-tee2/OP-TEE/bios_qemu_tz_arm/libfdt/fdt_ro.c:353
40101842:	e96d 7e02 	strd	r7, lr, [sp, #-8]!
40101846:	b082      	sub	sp, #8
40101848:	af00      	add	r7, sp, #0
4010184a:	6078      	str	r0, [r7, #4]
4010184c:	6039      	str	r1, [r7, #0]
/home/zhangxiang/Downloads/op-tee2/OP-TEE/bios_qemu_tz_arm/libfdt/fdt_ro.c:354
4010184e:	6838      	ldr	r0, [r7, #0]
40101850:	f644 239d 	movw	r3, #19101	; 0x4a9d
40101854:	f2c4 0310 	movt	r3, #16400	; 0x4010
40101858:	4798      	blx	r3
4010185a:	4603      	mov	r3, r0
4010185c:	461a      	mov	r2, r3
4010185e:	6839      	ldr	r1, [r7, #0]
40101860:	6878      	ldr	r0, [r7, #4]
40101862:	f7ff ffca 	bl	401017fa <fdt_get_alias_namelen>
40101866:	4603      	mov	r3, r0
/home/zhangxiang/Downloads/op-tee2/OP-TEE/bios_qemu_tz_arm/libfdt/fdt_ro.c:355
40101868:	4618      	mov	r0, r3
4010186a:	f107 0708 	add.w	r7, r7, #8
4010186e:	46bd      	mov	sp, r7
40101870:	bd80      	pop	{r7, pc}

40101872 <fdt_get_path>:
fdt_get_path():
/home/zhangxiang/Downloads/op-tee2/OP-TEE/bios_qemu_tz_arm/libfdt/fdt_ro.c:358
40101872:	e96d 7e02 	strd	r7, lr, [sp, #-8]!
40101876:	b08c      	sub	sp, #48	; 0x30
40101878:	af00      	add	r7, sp, #0
4010187a:	60f8      	str	r0, [r7, #12]
4010187c:	60b9      	str	r1, [r7, #8]
4010187e:	607a      	str	r2, [r7, #4]
40101880:	603b      	str	r3, [r7, #0]
/home/zhangxiang/Downloads/op-tee2/OP-TEE/bios_qemu_tz_arm/libfdt/fdt_ro.c:359
40101882:	f04f 0300 	mov.w	r3, #0
40101886:	62fb      	str	r3, [r7, #44]	; 0x2c
40101888:	f04f 0300 	mov.w	r3, #0
4010188c:	62bb      	str	r3, [r7, #40]	; 0x28
/home/zhangxiang/Downloads/op-tee2/OP-TEE/bios_qemu_tz_arm/libfdt/fdt_ro.c:363
4010188e:	68f8      	ldr	r0, [r7, #12]
40101890:	f243 23ab 	movw	r3, #12971	; 0x32ab
40101894:	f2c4 0310 	movt	r3, #16400	; 0x4010
40101898:	4798      	blx	r3
4010189a:	6238      	str	r0, [r7, #32]
4010189c:	6a3b      	ldr	r3, [r7, #32]
4010189e:	2b00      	cmp	r3, #0
401018a0:	d001      	beq.n	401018a6 <fdt_get_path+0x34>
/home/zhangxiang/Downloads/op-tee2/OP-TEE/bios_qemu_tz_arm/libfdt/fdt_ro.c:363 (discriminator 1)
401018a2:	6a3b      	ldr	r3, [r7, #32]
401018a4:	e097      	b.n	401019d6 <fdt_get_path+0x164>
/home/zhangxiang/Downloads/op-tee2/OP-TEE/bios_qemu_tz_arm/libfdt/fdt_ro.c:365
401018a6:	683b      	ldr	r3, [r7, #0]
401018a8:	2b01      	cmp	r3, #1
401018aa:	dc02      	bgt.n	401018b2 <fdt_get_path+0x40>
/home/zhangxiang/Downloads/op-tee2/OP-TEE/bios_qemu_tz_arm/libfdt/fdt_ro.c:366
401018ac:	f06f 0302 	mvn.w	r3, #2
401018b0:	e091      	b.n	401019d6 <fdt_get_path+0x164>
/home/zhangxiang/Downloads/op-tee2/OP-TEE/bios_qemu_tz_arm/libfdt/fdt_ro.c:368
401018b2:	f04f 0300 	mov.w	r3, #0
401018b6:	627b      	str	r3, [r7, #36]	; 0x24
401018b8:	f04f 0300 	mov.w	r3, #0
401018bc:	61bb      	str	r3, [r7, #24]
401018be:	e071      	b.n	401019a4 <fdt_get_path+0x132>
/home/zhangxiang/Downloads/op-tee2/OP-TEE/bios_qemu_tz_arm/libfdt/fdt_ro.c:373 (discriminator 1)
401018c0:	6abb      	ldr	r3, [r7, #40]	; 0x28
401018c2:	f103 33ff 	add.w	r3, r3, #4294967295	; 0xffffffff
401018c6:	62bb      	str	r3, [r7, #40]	; 0x28
/home/zhangxiang/Downloads/op-tee2/OP-TEE/bios_qemu_tz_arm/libfdt/fdt_ro.c:374 (discriminator 1)
401018c8:	6abb      	ldr	r3, [r7, #40]	; 0x28
401018ca:	f103 33ff 	add.w	r3, r3, #4294967295	; 0xffffffff
401018ce:	687a      	ldr	r2, [r7, #4]
401018d0:	4413      	add	r3, r2
401018d2:	781b      	ldrb	r3, [r3, #0]
401018d4:	2b2f      	cmp	r3, #47	; 0x2f
401018d6:	d1f3      	bne.n	401018c0 <fdt_get_path+0x4e>
/home/zhangxiang/Downloads/op-tee2/OP-TEE/bios_qemu_tz_arm/libfdt/fdt_ro.c:375
401018d8:	6afb      	ldr	r3, [r7, #44]	; 0x2c
401018da:	f103 33ff 	add.w	r3, r3, #4294967295	; 0xffffffff
401018de:	62fb      	str	r3, [r7, #44]	; 0x2c
/home/zhangxiang/Downloads/op-tee2/OP-TEE/bios_qemu_tz_arm/libfdt/fdt_ro.c:371
401018e0:	69bb      	ldr	r3, [r7, #24]
401018e2:	6afa      	ldr	r2, [r7, #44]	; 0x2c
401018e4:	429a      	cmp	r2, r3
401018e6:	dceb      	bgt.n	401018c0 <fdt_get_path+0x4e>
/home/zhangxiang/Downloads/op-tee2/OP-TEE/bios_qemu_tz_arm/libfdt/fdt_ro.c:378
401018e8:	69bb      	ldr	r3, [r7, #24]
401018ea:	6afa      	ldr	r2, [r7, #44]	; 0x2c
401018ec:	429a      	cmp	r2, r3
401018ee:	db31      	blt.n	40101954 <fdt_get_path+0xe2>
/home/zhangxiang/Downloads/op-tee2/OP-TEE/bios_qemu_tz_arm/libfdt/fdt_ro.c:379
401018f0:	f107 0314 	add.w	r3, r7, #20
401018f4:	461a      	mov	r2, r3
401018f6:	6a79      	ldr	r1, [r7, #36]	; 0x24
401018f8:	68f8      	ldr	r0, [r7, #12]
401018fa:	f7ff fdd2 	bl	401014a2 <fdt_get_name>
401018fe:	61f8      	str	r0, [r7, #28]
/home/zhangxiang/Downloads/op-tee2/OP-TEE/bios_qemu_tz_arm/libfdt/fdt_ro.c:380
40101900:	69fb      	ldr	r3, [r7, #28]
40101902:	2b00      	cmp	r3, #0
40101904:	d101      	bne.n	4010190a <fdt_get_path+0x98>
/home/zhangxiang/Downloads/op-tee2/OP-TEE/bios_qemu_tz_arm/libfdt/fdt_ro.c:381
40101906:	697b      	ldr	r3, [r7, #20]
40101908:	e065      	b.n	401019d6 <fdt_get_path+0x164>
/home/zhangxiang/Downloads/op-tee2/OP-TEE/bios_qemu_tz_arm/libfdt/fdt_ro.c:382
4010190a:	697a      	ldr	r2, [r7, #20]
4010190c:	6abb      	ldr	r3, [r7, #40]	; 0x28
4010190e:	4413      	add	r3, r2
40101910:	f103 0201 	add.w	r2, r3, #1
40101914:	683b      	ldr	r3, [r7, #0]
40101916:	429a      	cmp	r2, r3
40101918:	dc1c      	bgt.n	40101954 <fdt_get_path+0xe2>
/home/zhangxiang/Downloads/op-tee2/OP-TEE/bios_qemu_tz_arm/libfdt/fdt_ro.c:383
4010191a:	6abb      	ldr	r3, [r7, #40]	; 0x28
4010191c:	687a      	ldr	r2, [r7, #4]
4010191e:	4413      	add	r3, r2
40101920:	697a      	ldr	r2, [r7, #20]
40101922:	69f9      	ldr	r1, [r7, #28]
40101924:	4618      	mov	r0, r3
40101926:	f244 7351 	movw	r3, #18257	; 0x4751
4010192a:	f2c4 0310 	movt	r3, #16400	; 0x4010
4010192e:	4798      	blx	r3
/home/zhangxiang/Downloads/op-tee2/OP-TEE/bios_qemu_tz_arm/libfdt/fdt_ro.c:384
40101930:	697b      	ldr	r3, [r7, #20]
40101932:	6aba      	ldr	r2, [r7, #40]	; 0x28
40101934:	4413      	add	r3, r2
40101936:	62bb      	str	r3, [r7, #40]	; 0x28
/home/zhangxiang/Downloads/op-tee2/OP-TEE/bios_qemu_tz_arm/libfdt/fdt_ro.c:385
40101938:	6abb      	ldr	r3, [r7, #40]	; 0x28
4010193a:	f103 0201 	add.w	r2, r3, #1
4010193e:	62ba      	str	r2, [r7, #40]	; 0x28
40101940:	461a      	mov	r2, r3
40101942:	687b      	ldr	r3, [r7, #4]
40101944:	4413      	add	r3, r2
40101946:	f04f 022f 	mov.w	r2, #47	; 0x2f
4010194a:	701a      	strb	r2, [r3, #0]
/home/zhangxiang/Downloads/op-tee2/OP-TEE/bios_qemu_tz_arm/libfdt/fdt_ro.c:386
4010194c:	6afb      	ldr	r3, [r7, #44]	; 0x2c
4010194e:	f103 0301 	add.w	r3, r3, #1
40101952:	62fb      	str	r3, [r7, #44]	; 0x2c
/home/zhangxiang/Downloads/op-tee2/OP-TEE/bios_qemu_tz_arm/libfdt/fdt_ro.c:390
40101954:	6a7a      	ldr	r2, [r7, #36]	; 0x24
40101956:	68bb      	ldr	r3, [r7, #8]
40101958:	429a      	cmp	r2, r3
4010195a:	d118      	bne.n	4010198e <fdt_get_path+0x11c>
/home/zhangxiang/Downloads/op-tee2/OP-TEE/bios_qemu_tz_arm/libfdt/fdt_ro.c:391
4010195c:	69bb      	ldr	r3, [r7, #24]
4010195e:	f103 0201 	add.w	r2, r3, #1
40101962:	6afb      	ldr	r3, [r7, #44]	; 0x2c
40101964:	429a      	cmp	r2, r3
40101966:	dd02      	ble.n	4010196e <fdt_get_path+0xfc>
/home/zhangxiang/Downloads/op-tee2/OP-TEE/bios_qemu_tz_arm/libfdt/fdt_ro.c:392
40101968:	f06f 0302 	mvn.w	r3, #2
4010196c:	e033      	b.n	401019d6 <fdt_get_path+0x164>
/home/zhangxiang/Downloads/op-tee2/OP-TEE/bios_qemu_tz_arm/libfdt/fdt_ro.c:394
4010196e:	6abb      	ldr	r3, [r7, #40]	; 0x28
40101970:	2b01      	cmp	r3, #1
40101972:	dd03      	ble.n	4010197c <fdt_get_path+0x10a>
/home/zhangxiang/Downloads/op-tee2/OP-TEE/bios_qemu_tz_arm/libfdt/fdt_ro.c:395
40101974:	6abb      	ldr	r3, [r7, #40]	; 0x28
40101976:	f103 33ff 	add.w	r3, r3, #4294967295	; 0xffffffff
4010197a:	62bb      	str	r3, [r7, #40]	; 0x28
/home/zhangxiang/Downloads/op-tee2/OP-TEE/bios_qemu_tz_arm/libfdt/fdt_ro.c:396
4010197c:	6abb      	ldr	r3, [r7, #40]	; 0x28
4010197e:	687a      	ldr	r2, [r7, #4]
40101980:	4413      	add	r3, r2
40101982:	f04f 0200 	mov.w	r2, #0
40101986:	701a      	strb	r2, [r3, #0]
/home/zhangxiang/Downloads/op-tee2/OP-TEE/bios_qemu_tz_arm/libfdt/fdt_ro.c:397
40101988:	f04f 0300 	mov.w	r3, #0
4010198c:	e023      	b.n	401019d6 <fdt_get_path+0x164>
/home/zhangxiang/Downloads/op-tee2/OP-TEE/bios_qemu_tz_arm/libfdt/fdt_ro.c:370
4010198e:	f107 0318 	add.w	r3, r7, #24
40101992:	461a      	mov	r2, r3
40101994:	6a79      	ldr	r1, [r7, #36]	; 0x24
40101996:	68f8      	ldr	r0, [r7, #12]
40101998:	f243 5363 	movw	r3, #13667	; 0x3563
4010199c:	f2c4 0310 	movt	r3, #16400	; 0x4010
401019a0:	4798      	blx	r3
401019a2:	6278      	str	r0, [r7, #36]	; 0x24
/home/zhangxiang/Downloads/op-tee2/OP-TEE/bios_qemu_tz_arm/libfdt/fdt_ro.c:368 (discriminator 1)
401019a4:	6a7b      	ldr	r3, [r7, #36]	; 0x24
401019a6:	2b00      	cmp	r3, #0
401019a8:	db03      	blt.n	401019b2 <fdt_get_path+0x140>
/home/zhangxiang/Downloads/op-tee2/OP-TEE/bios_qemu_tz_arm/libfdt/fdt_ro.c:369
401019aa:	6a7a      	ldr	r2, [r7, #36]	; 0x24
401019ac:	68bb      	ldr	r3, [r7, #8]
401019ae:	429a      	cmp	r2, r3
401019b0:	dd96      	ble.n	401018e0 <fdt_get_path+0x6e>
/home/zhangxiang/Downloads/op-tee2/OP-TEE/bios_qemu_tz_arm/libfdt/fdt_ro.c:401
401019b2:	6a7b      	ldr	r3, [r7, #36]	; 0x24
401019b4:	f1b3 3fff 	cmp.w	r3, #4294967295	; 0xffffffff
401019b8:	d002      	beq.n	401019c0 <fdt_get_path+0x14e>
/home/zhangxiang/Downloads/op-tee2/OP-TEE/bios_qemu_tz_arm/libfdt/fdt_ro.c:401 (discriminator 1)
401019ba:	6a7b      	ldr	r3, [r7, #36]	; 0x24
401019bc:	2b00      	cmp	r3, #0
401019be:	db02      	blt.n	401019c6 <fdt_get_path+0x154>
/home/zhangxiang/Downloads/op-tee2/OP-TEE/bios_qemu_tz_arm/libfdt/fdt_ro.c:402
401019c0:	f06f 0303 	mvn.w	r3, #3
401019c4:	e007      	b.n	401019d6 <fdt_get_path+0x164>
/home/zhangxiang/Downloads/op-tee2/OP-TEE/bios_qemu_tz_arm/libfdt/fdt_ro.c:403
401019c6:	6a7b      	ldr	r3, [r7, #36]	; 0x24
401019c8:	f113 0f04 	cmn.w	r3, #4
401019cc:	d102      	bne.n	401019d4 <fdt_get_path+0x162>
/home/zhangxiang/Downloads/op-tee2/OP-TEE/bios_qemu_tz_arm/libfdt/fdt_ro.c:404
401019ce:	f06f 030a 	mvn.w	r3, #10
401019d2:	e000      	b.n	401019d6 <fdt_get_path+0x164>
/home/zhangxiang/Downloads/op-tee2/OP-TEE/bios_qemu_tz_arm/libfdt/fdt_ro.c:406
401019d4:	6a7b      	ldr	r3, [r7, #36]	; 0x24
/home/zhangxiang/Downloads/op-tee2/OP-TEE/bios_qemu_tz_arm/libfdt/fdt_ro.c:407 (discriminator 1)
401019d6:	4618      	mov	r0, r3
401019d8:	f107 0730 	add.w	r7, r7, #48	; 0x30
401019dc:	46bd      	mov	sp, r7
401019de:	bd80      	pop	{r7, pc}

401019e0 <fdt_supernode_atdepth_offset>:
fdt_supernode_atdepth_offset():
/home/zhangxiang/Downloads/op-tee2/OP-TEE/bios_qemu_tz_arm/libfdt/fdt_ro.c:411
401019e0:	e96d 7e02 	strd	r7, lr, [sp, #-8]!
401019e4:	b088      	sub	sp, #32
401019e6:	af00      	add	r7, sp, #0
401019e8:	60f8      	str	r0, [r7, #12]
401019ea:	60b9      	str	r1, [r7, #8]
401019ec:	607a      	str	r2, [r7, #4]
401019ee:	603b      	str	r3, [r7, #0]
/home/zhangxiang/Downloads/op-tee2/OP-TEE/bios_qemu_tz_arm/libfdt/fdt_ro.c:413
401019f0:	f06f 030c 	mvn.w	r3, #12
401019f4:	61bb      	str	r3, [r7, #24]
/home/zhangxiang/Downloads/op-tee2/OP-TEE/bios_qemu_tz_arm/libfdt/fdt_ro.c:415
401019f6:	68f8      	ldr	r0, [r7, #12]
401019f8:	f243 23ab 	movw	r3, #12971	; 0x32ab
401019fc:	f2c4 0310 	movt	r3, #16400	; 0x4010
40101a00:	4798      	blx	r3
40101a02:	6178      	str	r0, [r7, #20]
40101a04:	697b      	ldr	r3, [r7, #20]
40101a06:	2b00      	cmp	r3, #0
40101a08:	d001      	beq.n	40101a0e <fdt_supernode_atdepth_offset+0x2e>
/home/zhangxiang/Downloads/op-tee2/OP-TEE/bios_qemu_tz_arm/libfdt/fdt_ro.c:415 (discriminator 1)
40101a0a:	697b      	ldr	r3, [r7, #20]
40101a0c:	e049      	b.n	40101aa2 <fdt_supernode_atdepth_offset+0xc2>
/home/zhangxiang/Downloads/op-tee2/OP-TEE/bios_qemu_tz_arm/libfdt/fdt_ro.c:417
40101a0e:	687b      	ldr	r3, [r7, #4]
40101a10:	2b00      	cmp	r3, #0
40101a12:	da02      	bge.n	40101a1a <fdt_supernode_atdepth_offset+0x3a>
/home/zhangxiang/Downloads/op-tee2/OP-TEE/bios_qemu_tz_arm/libfdt/fdt_ro.c:418
40101a14:	f04f 33ff 	mov.w	r3, #4294967295	; 0xffffffff
40101a18:	e043      	b.n	40101aa2 <fdt_supernode_atdepth_offset+0xc2>
/home/zhangxiang/Downloads/op-tee2/OP-TEE/bios_qemu_tz_arm/libfdt/fdt_ro.c:420
40101a1a:	f04f 0300 	mov.w	r3, #0
40101a1e:	61fb      	str	r3, [r7, #28]
40101a20:	f04f 0300 	mov.w	r3, #0
40101a24:	613b      	str	r3, [r7, #16]
40101a26:	e023      	b.n	40101a70 <fdt_supernode_atdepth_offset+0x90>
/home/zhangxiang/Downloads/op-tee2/OP-TEE/bios_qemu_tz_arm/libfdt/fdt_ro.c:423
40101a28:	693a      	ldr	r2, [r7, #16]
40101a2a:	687b      	ldr	r3, [r7, #4]
40101a2c:	429a      	cmp	r2, r3
40101a2e:	d101      	bne.n	40101a34 <fdt_supernode_atdepth_offset+0x54>
/home/zhangxiang/Downloads/op-tee2/OP-TEE/bios_qemu_tz_arm/libfdt/fdt_ro.c:424
40101a30:	69fb      	ldr	r3, [r7, #28]
40101a32:	61bb      	str	r3, [r7, #24]
/home/zhangxiang/Downloads/op-tee2/OP-TEE/bios_qemu_tz_arm/libfdt/fdt_ro.c:426
40101a34:	69fa      	ldr	r2, [r7, #28]
40101a36:	68bb      	ldr	r3, [r7, #8]
40101a38:	429a      	cmp	r2, r3
40101a3a:	d10e      	bne.n	40101a5a <fdt_supernode_atdepth_offset+0x7a>
/home/zhangxiang/Downloads/op-tee2/OP-TEE/bios_qemu_tz_arm/libfdt/fdt_ro.c:427
40101a3c:	683b      	ldr	r3, [r7, #0]
40101a3e:	2b00      	cmp	r3, #0
40101a40:	d002      	beq.n	40101a48 <fdt_supernode_atdepth_offset+0x68>
/home/zhangxiang/Downloads/op-tee2/OP-TEE/bios_qemu_tz_arm/libfdt/fdt_ro.c:428
40101a42:	693a      	ldr	r2, [r7, #16]
40101a44:	683b      	ldr	r3, [r7, #0]
40101a46:	601a      	str	r2, [r3, #0]
/home/zhangxiang/Downloads/op-tee2/OP-TEE/bios_qemu_tz_arm/libfdt/fdt_ro.c:430
40101a48:	693b      	ldr	r3, [r7, #16]
40101a4a:	687a      	ldr	r2, [r7, #4]
40101a4c:	429a      	cmp	r2, r3
40101a4e:	dd02      	ble.n	40101a56 <fdt_supernode_atdepth_offset+0x76>
/home/zhangxiang/Downloads/op-tee2/OP-TEE/bios_qemu_tz_arm/libfdt/fdt_ro.c:431
40101a50:	f04f 33ff 	mov.w	r3, #4294967295	; 0xffffffff
40101a54:	e025      	b.n	40101aa2 <fdt_supernode_atdepth_offset+0xc2>
/home/zhangxiang/Downloads/op-tee2/OP-TEE/bios_qemu_tz_arm/libfdt/fdt_ro.c:433
40101a56:	69bb      	ldr	r3, [r7, #24]
40101a58:	e023      	b.n	40101aa2 <fdt_supernode_atdepth_offset+0xc2>
/home/zhangxiang/Downloads/op-tee2/OP-TEE/bios_qemu_tz_arm/libfdt/fdt_ro.c:422
40101a5a:	f107 0310 	add.w	r3, r7, #16
40101a5e:	461a      	mov	r2, r3
40101a60:	69f9      	ldr	r1, [r7, #28]
40101a62:	68f8      	ldr	r0, [r7, #12]
40101a64:	f243 5363 	movw	r3, #13667	; 0x3563
40101a68:	f2c4 0310 	movt	r3, #16400	; 0x4010
40101a6c:	4798      	blx	r3
40101a6e:	61f8      	str	r0, [r7, #28]
/home/zhangxiang/Downloads/op-tee2/OP-TEE/bios_qemu_tz_arm/libfdt/fdt_ro.c:420 (discriminator 1)
40101a70:	69fb      	ldr	r3, [r7, #28]
40101a72:	2b00      	cmp	r3, #0
40101a74:	db03      	blt.n	40101a7e <fdt_supernode_atdepth_offset+0x9e>
/home/zhangxiang/Downloads/op-tee2/OP-TEE/bios_qemu_tz_arm/libfdt/fdt_ro.c:421
40101a76:	69fa      	ldr	r2, [r7, #28]
40101a78:	68bb      	ldr	r3, [r7, #8]
40101a7a:	429a      	cmp	r2, r3
40101a7c:	ddd4      	ble.n	40101a28 <fdt_supernode_atdepth_offset+0x48>
/home/zhangxiang/Downloads/op-tee2/OP-TEE/bios_qemu_tz_arm/libfdt/fdt_ro.c:437
40101a7e:	69fb      	ldr	r3, [r7, #28]
40101a80:	f1b3 3fff 	cmp.w	r3, #4294967295	; 0xffffffff
40101a84:	d002      	beq.n	40101a8c <fdt_supernode_atdepth_offset+0xac>
/home/zhangxiang/Downloads/op-tee2/OP-TEE/bios_qemu_tz_arm/libfdt/fdt_ro.c:437 (discriminator 1)
40101a86:	69fb      	ldr	r3, [r7, #28]
40101a88:	2b00      	cmp	r3, #0
40101a8a:	db02      	blt.n	40101a92 <fdt_supernode_atdepth_offset+0xb2>
/home/zhangxiang/Downloads/op-tee2/OP-TEE/bios_qemu_tz_arm/libfdt/fdt_ro.c:438
40101a8c:	f06f 0303 	mvn.w	r3, #3
40101a90:	e007      	b.n	40101aa2 <fdt_supernode_atdepth_offset+0xc2>
/home/zhangxiang/Downloads/op-tee2/OP-TEE/bios_qemu_tz_arm/libfdt/fdt_ro.c:439
40101a92:	69fb      	ldr	r3, [r7, #28]
40101a94:	f113 0f04 	cmn.w	r3, #4
40101a98:	d102      	bne.n	40101aa0 <fdt_supernode_atdepth_offset+0xc0>
/home/zhangxiang/Downloads/op-tee2/OP-TEE/bios_qemu_tz_arm/libfdt/fdt_ro.c:440
40101a9a:	f06f 030a 	mvn.w	r3, #10
40101a9e:	e000      	b.n	40101aa2 <fdt_supernode_atdepth_offset+0xc2>
/home/zhangxiang/Downloads/op-tee2/OP-TEE/bios_qemu_tz_arm/libfdt/fdt_ro.c:442
40101aa0:	69fb      	ldr	r3, [r7, #28]
/home/zhangxiang/Downloads/op-tee2/OP-TEE/bios_qemu_tz_arm/libfdt/fdt_ro.c:443 (discriminator 1)
40101aa2:	4618      	mov	r0, r3
40101aa4:	f107 0720 	add.w	r7, r7, #32
40101aa8:	46bd      	mov	sp, r7
40101aaa:	bd80      	pop	{r7, pc}

40101aac <fdt_node_depth>:
fdt_node_depth():
/home/zhangxiang/Downloads/op-tee2/OP-TEE/bios_qemu_tz_arm/libfdt/fdt_ro.c:446
40101aac:	e96d 7e02 	strd	r7, lr, [sp, #-8]!
40101ab0:	b084      	sub	sp, #16
40101ab2:	af00      	add	r7, sp, #0
40101ab4:	6078      	str	r0, [r7, #4]
40101ab6:	6039      	str	r1, [r7, #0]
/home/zhangxiang/Downloads/op-tee2/OP-TEE/bios_qemu_tz_arm/libfdt/fdt_ro.c:450
40101ab8:	f107 0308 	add.w	r3, r7, #8
40101abc:	f04f 0200 	mov.w	r2, #0
40101ac0:	6839      	ldr	r1, [r7, #0]
40101ac2:	6878      	ldr	r0, [r7, #4]
40101ac4:	f7ff ff8c 	bl	401019e0 <fdt_supernode_atdepth_offset>
40101ac8:	60f8      	str	r0, [r7, #12]
/home/zhangxiang/Downloads/op-tee2/OP-TEE/bios_qemu_tz_arm/libfdt/fdt_ro.c:451
40101aca:	68fb      	ldr	r3, [r7, #12]
40101acc:	2b00      	cmp	r3, #0
40101ace:	d007      	beq.n	40101ae0 <fdt_node_depth+0x34>
/home/zhangxiang/Downloads/op-tee2/OP-TEE/bios_qemu_tz_arm/libfdt/fdt_ro.c:452
40101ad0:	68fb      	ldr	r3, [r7, #12]
40101ad2:	2b00      	cmp	r3, #0
40101ad4:	da01      	bge.n	40101ada <fdt_node_depth+0x2e>
/home/zhangxiang/Downloads/op-tee2/OP-TEE/bios_qemu_tz_arm/libfdt/fdt_ro.c:452 (discriminator 1)
40101ad6:	68fb      	ldr	r3, [r7, #12]
40101ad8:	e003      	b.n	40101ae2 <fdt_node_depth+0x36>
/home/zhangxiang/Downloads/op-tee2/OP-TEE/bios_qemu_tz_arm/libfdt/fdt_ro.c:452 (discriminator 2)
40101ada:	f06f 030c 	mvn.w	r3, #12
40101ade:	e000      	b.n	40101ae2 <fdt_node_depth+0x36>
/home/zhangxiang/Downloads/op-tee2/OP-TEE/bios_qemu_tz_arm/libfdt/fdt_ro.c:453
40101ae0:	68bb      	ldr	r3, [r7, #8]
/home/zhangxiang/Downloads/op-tee2/OP-TEE/bios_qemu_tz_arm/libfdt/fdt_ro.c:454 (discriminator 1)
40101ae2:	4618      	mov	r0, r3
40101ae4:	f107 0710 	add.w	r7, r7, #16
40101ae8:	46bd      	mov	sp, r7
40101aea:	bd80      	pop	{r7, pc}

40101aec <fdt_parent_offset>:
fdt_parent_offset():
/home/zhangxiang/Downloads/op-tee2/OP-TEE/bios_qemu_tz_arm/libfdt/fdt_ro.c:457
40101aec:	e96d 7e02 	strd	r7, lr, [sp, #-8]!
40101af0:	b084      	sub	sp, #16
40101af2:	af00      	add	r7, sp, #0
40101af4:	6078      	str	r0, [r7, #4]
40101af6:	6039      	str	r1, [r7, #0]
/home/zhangxiang/Downloads/op-tee2/OP-TEE/bios_qemu_tz_arm/libfdt/fdt_ro.c:458
40101af8:	6839      	ldr	r1, [r7, #0]
40101afa:	6878      	ldr	r0, [r7, #4]
40101afc:	f7ff ffd6 	bl	40101aac <fdt_node_depth>
40101b00:	60f8      	str	r0, [r7, #12]
/home/zhangxiang/Downloads/op-tee2/OP-TEE/bios_qemu_tz_arm/libfdt/fdt_ro.c:460
40101b02:	68fb      	ldr	r3, [r7, #12]
40101b04:	2b00      	cmp	r3, #0
40101b06:	da01      	bge.n	40101b0c <fdt_parent_offset+0x20>
/home/zhangxiang/Downloads/op-tee2/OP-TEE/bios_qemu_tz_arm/libfdt/fdt_ro.c:461
40101b08:	68fb      	ldr	r3, [r7, #12]
40101b0a:	e009      	b.n	40101b20 <fdt_parent_offset+0x34>
/home/zhangxiang/Downloads/op-tee2/OP-TEE/bios_qemu_tz_arm/libfdt/fdt_ro.c:462
40101b0c:	68fb      	ldr	r3, [r7, #12]
40101b0e:	f103 32ff 	add.w	r2, r3, #4294967295	; 0xffffffff
40101b12:	f04f 0300 	mov.w	r3, #0
40101b16:	6839      	ldr	r1, [r7, #0]
40101b18:	6878      	ldr	r0, [r7, #4]
40101b1a:	f7ff ff61 	bl	401019e0 <fdt_supernode_atdepth_offset>
40101b1e:	4603      	mov	r3, r0
/home/zhangxiang/Downloads/op-tee2/OP-TEE/bios_qemu_tz_arm/libfdt/fdt_ro.c:464
40101b20:	4618      	mov	r0, r3
40101b22:	f107 0710 	add.w	r7, r7, #16
40101b26:	46bd      	mov	sp, r7
40101b28:	bd80      	pop	{r7, pc}

40101b2a <fdt_node_offset_by_prop_value>:
fdt_node_offset_by_prop_value():
/home/zhangxiang/Downloads/op-tee2/OP-TEE/bios_qemu_tz_arm/libfdt/fdt_ro.c:469
40101b2a:	e96d 7e02 	strd	r7, lr, [sp, #-8]!
40101b2e:	b088      	sub	sp, #32
40101b30:	af00      	add	r7, sp, #0
40101b32:	60f8      	str	r0, [r7, #12]
40101b34:	60b9      	str	r1, [r7, #8]
40101b36:	607a      	str	r2, [r7, #4]
40101b38:	603b      	str	r3, [r7, #0]
/home/zhangxiang/Downloads/op-tee2/OP-TEE/bios_qemu_tz_arm/libfdt/fdt_ro.c:474
40101b3a:	68f8      	ldr	r0, [r7, #12]
40101b3c:	f243 23ab 	movw	r3, #12971	; 0x32ab
40101b40:	f2c4 0310 	movt	r3, #16400	; 0x4010
40101b44:	4798      	blx	r3
40101b46:	61b8      	str	r0, [r7, #24]
40101b48:	69bb      	ldr	r3, [r7, #24]
40101b4a:	2b00      	cmp	r3, #0
40101b4c:	d001      	beq.n	40101b52 <fdt_node_offset_by_prop_value+0x28>
/home/zhangxiang/Downloads/op-tee2/OP-TEE/bios_qemu_tz_arm/libfdt/fdt_ro.c:474 (discriminator 1)
40101b4e:	69bb      	ldr	r3, [r7, #24]
40101b50:	e035      	b.n	40101bbe <fdt_node_offset_by_prop_value+0x94>
/home/zhangxiang/Downloads/op-tee2/OP-TEE/bios_qemu_tz_arm/libfdt/fdt_ro.c:481
40101b52:	f04f 0200 	mov.w	r2, #0
40101b56:	68b9      	ldr	r1, [r7, #8]
40101b58:	68f8      	ldr	r0, [r7, #12]
40101b5a:	f243 5363 	movw	r3, #13667	; 0x3563
40101b5e:	f2c4 0310 	movt	r3, #16400	; 0x4010
40101b62:	4798      	blx	r3
40101b64:	61f8      	str	r0, [r7, #28]
40101b66:	e026      	b.n	40101bb6 <fdt_node_offset_by_prop_value+0x8c>
/home/zhangxiang/Downloads/op-tee2/OP-TEE/bios_qemu_tz_arm/libfdt/fdt_ro.c:484
40101b68:	f107 0310 	add.w	r3, r7, #16
40101b6c:	687a      	ldr	r2, [r7, #4]
40101b6e:	69f9      	ldr	r1, [r7, #28]
40101b70:	68f8      	ldr	r0, [r7, #12]
40101b72:	f7ff fdee 	bl	40101752 <fdt_getprop>
40101b76:	6178      	str	r0, [r7, #20]
/home/zhangxiang/Downloads/op-tee2/OP-TEE/bios_qemu_tz_arm/libfdt/fdt_ro.c:485
40101b78:	697b      	ldr	r3, [r7, #20]
40101b7a:	2b00      	cmp	r3, #0
40101b7c:	d011      	beq.n	40101ba2 <fdt_node_offset_by_prop_value+0x78>
/home/zhangxiang/Downloads/op-tee2/OP-TEE/bios_qemu_tz_arm/libfdt/fdt_ro.c:485 (discriminator 1)
40101b7e:	693a      	ldr	r2, [r7, #16]
40101b80:	6abb      	ldr	r3, [r7, #40]	; 0x28
40101b82:	429a      	cmp	r2, r3
40101b84:	d10d      	bne.n	40101ba2 <fdt_node_offset_by_prop_value+0x78>
/home/zhangxiang/Downloads/op-tee2/OP-TEE/bios_qemu_tz_arm/libfdt/fdt_ro.c:486
40101b86:	693b      	ldr	r3, [r7, #16]
40101b88:	461a      	mov	r2, r3
40101b8a:	6839      	ldr	r1, [r7, #0]
40101b8c:	6978      	ldr	r0, [r7, #20]
40101b8e:	f244 6399 	movw	r3, #18073	; 0x4699
40101b92:	f2c4 0310 	movt	r3, #16400	; 0x4010
40101b96:	4798      	blx	r3
40101b98:	4603      	mov	r3, r0
40101b9a:	2b00      	cmp	r3, #0
40101b9c:	d101      	bne.n	40101ba2 <fdt_node_offset_by_prop_value+0x78>
/home/zhangxiang/Downloads/op-tee2/OP-TEE/bios_qemu_tz_arm/libfdt/fdt_ro.c:487
40101b9e:	69fb      	ldr	r3, [r7, #28]
40101ba0:	e00d      	b.n	40101bbe <fdt_node_offset_by_prop_value+0x94>
/home/zhangxiang/Downloads/op-tee2/OP-TEE/bios_qemu_tz_arm/libfdt/fdt_ro.c:483
40101ba2:	f04f 0200 	mov.w	r2, #0
40101ba6:	69f9      	ldr	r1, [r7, #28]
40101ba8:	68f8      	ldr	r0, [r7, #12]
40101baa:	f243 5363 	movw	r3, #13667	; 0x3563
40101bae:	f2c4 0310 	movt	r3, #16400	; 0x4010
40101bb2:	4798      	blx	r3
40101bb4:	61f8      	str	r0, [r7, #28]
/home/zhangxiang/Downloads/op-tee2/OP-TEE/bios_qemu_tz_arm/libfdt/fdt_ro.c:481 (discriminator 1)
40101bb6:	69fb      	ldr	r3, [r7, #28]
40101bb8:	2b00      	cmp	r3, #0
40101bba:	dad5      	bge.n	40101b68 <fdt_node_offset_by_prop_value+0x3e>
/home/zhangxiang/Downloads/op-tee2/OP-TEE/bios_qemu_tz_arm/libfdt/fdt_ro.c:490
40101bbc:	69fb      	ldr	r3, [r7, #28]
/home/zhangxiang/Downloads/op-tee2/OP-TEE/bios_qemu_tz_arm/libfdt/fdt_ro.c:491 (discriminator 1)
40101bbe:	4618      	mov	r0, r3
40101bc0:	f107 0720 	add.w	r7, r7, #32
40101bc4:	46bd      	mov	sp, r7
40101bc6:	bd80      	pop	{r7, pc}

40101bc8 <fdt_node_offset_by_phandle>:
fdt_node_offset_by_phandle():
/home/zhangxiang/Downloads/op-tee2/OP-TEE/bios_qemu_tz_arm/libfdt/fdt_ro.c:494
40101bc8:	e96d 7e02 	strd	r7, lr, [sp, #-8]!
40101bcc:	b084      	sub	sp, #16
40101bce:	af00      	add	r7, sp, #0
40101bd0:	6078      	str	r0, [r7, #4]
40101bd2:	6039      	str	r1, [r7, #0]
/home/zhangxiang/Downloads/op-tee2/OP-TEE/bios_qemu_tz_arm/libfdt/fdt_ro.c:497
40101bd4:	683b      	ldr	r3, [r7, #0]
40101bd6:	2b00      	cmp	r3, #0
40101bd8:	d003      	beq.n	40101be2 <fdt_node_offset_by_phandle+0x1a>
/home/zhangxiang/Downloads/op-tee2/OP-TEE/bios_qemu_tz_arm/libfdt/fdt_ro.c:497 (discriminator 1)
40101bda:	683b      	ldr	r3, [r7, #0]
40101bdc:	f1b3 3fff 	cmp.w	r3, #4294967295	; 0xffffffff
40101be0:	d102      	bne.n	40101be8 <fdt_node_offset_by_phandle+0x20>
/home/zhangxiang/Downloads/op-tee2/OP-TEE/bios_qemu_tz_arm/libfdt/fdt_ro.c:498
40101be2:	f06f 0305 	mvn.w	r3, #5
40101be6:	e02f      	b.n	40101c48 <fdt_node_offset_by_phandle+0x80>
/home/zhangxiang/Downloads/op-tee2/OP-TEE/bios_qemu_tz_arm/libfdt/fdt_ro.c:500
40101be8:	6878      	ldr	r0, [r7, #4]
40101bea:	f243 23ab 	movw	r3, #12971	; 0x32ab
40101bee:	f2c4 0310 	movt	r3, #16400	; 0x4010
40101bf2:	4798      	blx	r3
40101bf4:	60b8      	str	r0, [r7, #8]
40101bf6:	68bb      	ldr	r3, [r7, #8]
40101bf8:	2b00      	cmp	r3, #0
40101bfa:	d001      	beq.n	40101c00 <fdt_node_offset_by_phandle+0x38>
/home/zhangxiang/Downloads/op-tee2/OP-TEE/bios_qemu_tz_arm/libfdt/fdt_ro.c:500 (discriminator 1)
40101bfc:	68bb      	ldr	r3, [r7, #8]
40101bfe:	e023      	b.n	40101c48 <fdt_node_offset_by_phandle+0x80>
/home/zhangxiang/Downloads/op-tee2/OP-TEE/bios_qemu_tz_arm/libfdt/fdt_ro.c:508
40101c00:	f04f 0200 	mov.w	r2, #0
40101c04:	f04f 31ff 	mov.w	r1, #4294967295	; 0xffffffff
40101c08:	6878      	ldr	r0, [r7, #4]
40101c0a:	f243 5363 	movw	r3, #13667	; 0x3563
40101c0e:	f2c4 0310 	movt	r3, #16400	; 0x4010
40101c12:	4798      	blx	r3
40101c14:	60f8      	str	r0, [r7, #12]
40101c16:	e013      	b.n	40101c40 <fdt_node_offset_by_phandle+0x78>
/home/zhangxiang/Downloads/op-tee2/OP-TEE/bios_qemu_tz_arm/libfdt/fdt_ro.c:511
40101c18:	68f9      	ldr	r1, [r7, #12]
40101c1a:	6878      	ldr	r0, [r7, #4]
40101c1c:	f7ff fdb7 	bl	4010178e <fdt_get_phandle>
40101c20:	4602      	mov	r2, r0
40101c22:	683b      	ldr	r3, [r7, #0]
40101c24:	429a      	cmp	r2, r3
40101c26:	d101      	bne.n	40101c2c <fdt_node_offset_by_phandle+0x64>
/home/zhangxiang/Downloads/op-tee2/OP-TEE/bios_qemu_tz_arm/libfdt/fdt_ro.c:512
40101c28:	68fb      	ldr	r3, [r7, #12]
40101c2a:	e00d      	b.n	40101c48 <fdt_node_offset_by_phandle+0x80>
/home/zhangxiang/Downloads/op-tee2/OP-TEE/bios_qemu_tz_arm/libfdt/fdt_ro.c:510
40101c2c:	f04f 0200 	mov.w	r2, #0
40101c30:	68f9      	ldr	r1, [r7, #12]
40101c32:	6878      	ldr	r0, [r7, #4]
40101c34:	f243 5363 	movw	r3, #13667	; 0x3563
40101c38:	f2c4 0310 	movt	r3, #16400	; 0x4010
40101c3c:	4798      	blx	r3
40101c3e:	60f8      	str	r0, [r7, #12]
/home/zhangxiang/Downloads/op-tee2/OP-TEE/bios_qemu_tz_arm/libfdt/fdt_ro.c:508 (discriminator 1)
40101c40:	68fb      	ldr	r3, [r7, #12]
40101c42:	2b00      	cmp	r3, #0
40101c44:	dae8      	bge.n	40101c18 <fdt_node_offset_by_phandle+0x50>
/home/zhangxiang/Downloads/op-tee2/OP-TEE/bios_qemu_tz_arm/libfdt/fdt_ro.c:515
40101c46:	68fb      	ldr	r3, [r7, #12]
/home/zhangxiang/Downloads/op-tee2/OP-TEE/bios_qemu_tz_arm/libfdt/fdt_ro.c:516
40101c48:	4618      	mov	r0, r3
40101c4a:	f107 0710 	add.w	r7, r7, #16
40101c4e:	46bd      	mov	sp, r7
40101c50:	bd80      	pop	{r7, pc}

40101c52 <fdt_stringlist_contains>:
fdt_stringlist_contains():
/home/zhangxiang/Downloads/op-tee2/OP-TEE/bios_qemu_tz_arm/libfdt/fdt_ro.c:519
40101c52:	e96d 7e02 	strd	r7, lr, [sp, #-8]!
40101c56:	b086      	sub	sp, #24
40101c58:	af00      	add	r7, sp, #0
40101c5a:	60f8      	str	r0, [r7, #12]
40101c5c:	60b9      	str	r1, [r7, #8]
40101c5e:	607a      	str	r2, [r7, #4]
/home/zhangxiang/Downloads/op-tee2/OP-TEE/bios_qemu_tz_arm/libfdt/fdt_ro.c:520
40101c60:	6878      	ldr	r0, [r7, #4]
40101c62:	f644 239d 	movw	r3, #19101	; 0x4a9d
40101c66:	f2c4 0310 	movt	r3, #16400	; 0x4010
40101c6a:	4798      	blx	r3
40101c6c:	4603      	mov	r3, r0
40101c6e:	617b      	str	r3, [r7, #20]
/home/zhangxiang/Downloads/op-tee2/OP-TEE/bios_qemu_tz_arm/libfdt/fdt_ro.c:523
40101c70:	e02f      	b.n	40101cd2 <fdt_stringlist_contains+0x80>
/home/zhangxiang/Downloads/op-tee2/OP-TEE/bios_qemu_tz_arm/libfdt/fdt_ro.c:524
40101c72:	697b      	ldr	r3, [r7, #20]
40101c74:	f103 0301 	add.w	r3, r3, #1
40101c78:	461a      	mov	r2, r3
40101c7a:	68f9      	ldr	r1, [r7, #12]
40101c7c:	6878      	ldr	r0, [r7, #4]
40101c7e:	f244 6399 	movw	r3, #18073	; 0x4699
40101c82:	f2c4 0310 	movt	r3, #16400	; 0x4010
40101c86:	4798      	blx	r3
40101c88:	4603      	mov	r3, r0
40101c8a:	2b00      	cmp	r3, #0
40101c8c:	d102      	bne.n	40101c94 <fdt_stringlist_contains+0x42>
/home/zhangxiang/Downloads/op-tee2/OP-TEE/bios_qemu_tz_arm/libfdt/fdt_ro.c:525
40101c8e:	f04f 0301 	mov.w	r3, #1
40101c92:	e024      	b.n	40101cde <fdt_stringlist_contains+0x8c>
/home/zhangxiang/Downloads/op-tee2/OP-TEE/bios_qemu_tz_arm/libfdt/fdt_ro.c:526
40101c94:	68bb      	ldr	r3, [r7, #8]
40101c96:	461a      	mov	r2, r3
40101c98:	f04f 0100 	mov.w	r1, #0
40101c9c:	68f8      	ldr	r0, [r7, #12]
40101c9e:	f244 5385 	movw	r3, #17797	; 0x4585
40101ca2:	f2c4 0310 	movt	r3, #16400	; 0x4010
40101ca6:	4798      	blx	r3
40101ca8:	6138      	str	r0, [r7, #16]
/home/zhangxiang/Downloads/op-tee2/OP-TEE/bios_qemu_tz_arm/libfdt/fdt_ro.c:527
40101caa:	693b      	ldr	r3, [r7, #16]
40101cac:	2b00      	cmp	r3, #0
40101cae:	d102      	bne.n	40101cb6 <fdt_stringlist_contains+0x64>
/home/zhangxiang/Downloads/op-tee2/OP-TEE/bios_qemu_tz_arm/libfdt/fdt_ro.c:528
40101cb0:	f04f 0300 	mov.w	r3, #0
40101cb4:	e013      	b.n	40101cde <fdt_stringlist_contains+0x8c>
/home/zhangxiang/Downloads/op-tee2/OP-TEE/bios_qemu_tz_arm/libfdt/fdt_ro.c:529
40101cb6:	693a      	ldr	r2, [r7, #16]
40101cb8:	68fb      	ldr	r3, [r7, #12]
40101cba:	eba2 0303 	sub.w	r3, r2, r3
40101cbe:	f103 0301 	add.w	r3, r3, #1
40101cc2:	68ba      	ldr	r2, [r7, #8]
40101cc4:	eba2 0303 	sub.w	r3, r2, r3
40101cc8:	60bb      	str	r3, [r7, #8]
/home/zhangxiang/Downloads/op-tee2/OP-TEE/bios_qemu_tz_arm/libfdt/fdt_ro.c:530
40101cca:	693b      	ldr	r3, [r7, #16]
40101ccc:	f103 0301 	add.w	r3, r3, #1
40101cd0:	60fb      	str	r3, [r7, #12]
/home/zhangxiang/Downloads/op-tee2/OP-TEE/bios_qemu_tz_arm/libfdt/fdt_ro.c:523
40101cd2:	68ba      	ldr	r2, [r7, #8]
40101cd4:	697b      	ldr	r3, [r7, #20]
40101cd6:	429a      	cmp	r2, r3
40101cd8:	dacb      	bge.n	40101c72 <fdt_stringlist_contains+0x20>
/home/zhangxiang/Downloads/op-tee2/OP-TEE/bios_qemu_tz_arm/libfdt/fdt_ro.c:532
40101cda:	f04f 0300 	mov.w	r3, #0
/home/zhangxiang/Downloads/op-tee2/OP-TEE/bios_qemu_tz_arm/libfdt/fdt_ro.c:533
40101cde:	4618      	mov	r0, r3
40101ce0:	f107 0718 	add.w	r7, r7, #24
40101ce4:	46bd      	mov	sp, r7
40101ce6:	bd80      	pop	{r7, pc}

40101ce8 <fdt_node_check_compatible>:
fdt_node_check_compatible():
/home/zhangxiang/Downloads/op-tee2/OP-TEE/bios_qemu_tz_arm/libfdt/fdt_ro.c:537
40101ce8:	e96d 7e02 	strd	r7, lr, [sp, #-8]!
40101cec:	b086      	sub	sp, #24
40101cee:	af00      	add	r7, sp, #0
40101cf0:	60f8      	str	r0, [r7, #12]
40101cf2:	60b9      	str	r1, [r7, #8]
40101cf4:	607a      	str	r2, [r7, #4]
/home/zhangxiang/Downloads/op-tee2/OP-TEE/bios_qemu_tz_arm/libfdt/fdt_ro.c:541
40101cf6:	f107 0310 	add.w	r3, r7, #16
40101cfa:	f245 22f0 	movw	r2, #21232	; 0x52f0
40101cfe:	f2c4 0210 	movt	r2, #16400	; 0x4010
40101d02:	68b9      	ldr	r1, [r7, #8]
40101d04:	68f8      	ldr	r0, [r7, #12]
40101d06:	f7ff fd24 	bl	40101752 <fdt_getprop>
40101d0a:	6178      	str	r0, [r7, #20]
/home/zhangxiang/Downloads/op-tee2/OP-TEE/bios_qemu_tz_arm/libfdt/fdt_ro.c:542
40101d0c:	697b      	ldr	r3, [r7, #20]
40101d0e:	2b00      	cmp	r3, #0
40101d10:	d101      	bne.n	40101d16 <fdt_node_check_compatible+0x2e>
/home/zhangxiang/Downloads/op-tee2/OP-TEE/bios_qemu_tz_arm/libfdt/fdt_ro.c:543
40101d12:	693b      	ldr	r3, [r7, #16]
40101d14:	e00d      	b.n	40101d32 <fdt_node_check_compatible+0x4a>
/home/zhangxiang/Downloads/op-tee2/OP-TEE/bios_qemu_tz_arm/libfdt/fdt_ro.c:544
40101d16:	693b      	ldr	r3, [r7, #16]
40101d18:	687a      	ldr	r2, [r7, #4]
40101d1a:	4619      	mov	r1, r3
40101d1c:	6978      	ldr	r0, [r7, #20]
40101d1e:	f7ff ff98 	bl	40101c52 <fdt_stringlist_contains>
40101d22:	4603      	mov	r3, r0
40101d24:	2b00      	cmp	r3, #0
40101d26:	d002      	beq.n	40101d2e <fdt_node_check_compatible+0x46>
/home/zhangxiang/Downloads/op-tee2/OP-TEE/bios_qemu_tz_arm/libfdt/fdt_ro.c:545
40101d28:	f04f 0300 	mov.w	r3, #0
40101d2c:	e001      	b.n	40101d32 <fdt_node_check_compatible+0x4a>
/home/zhangxiang/Downloads/op-tee2/OP-TEE/bios_qemu_tz_arm/libfdt/fdt_ro.c:547
40101d2e:	f04f 0301 	mov.w	r3, #1
/home/zhangxiang/Downloads/op-tee2/OP-TEE/bios_qemu_tz_arm/libfdt/fdt_ro.c:548 (discriminator 1)
40101d32:	4618      	mov	r0, r3
40101d34:	f107 0718 	add.w	r7, r7, #24
40101d38:	46bd      	mov	sp, r7
40101d3a:	bd80      	pop	{r7, pc}

40101d3c <fdt_node_offset_by_compatible>:
fdt_node_offset_by_compatible():
/home/zhangxiang/Downloads/op-tee2/OP-TEE/bios_qemu_tz_arm/libfdt/fdt_ro.c:552
40101d3c:	e96d 7e02 	strd	r7, lr, [sp, #-8]!
40101d40:	b088      	sub	sp, #32
40101d42:	af00      	add	r7, sp, #0
40101d44:	60f8      	str	r0, [r7, #12]
40101d46:	60b9      	str	r1, [r7, #8]
40101d48:	607a      	str	r2, [r7, #4]
/home/zhangxiang/Downloads/op-tee2/OP-TEE/bios_qemu_tz_arm/libfdt/fdt_ro.c:555
40101d4a:	68f8      	ldr	r0, [r7, #12]
40101d4c:	f243 23ab 	movw	r3, #12971	; 0x32ab
40101d50:	f2c4 0310 	movt	r3, #16400	; 0x4010
40101d54:	4798      	blx	r3
40101d56:	61b8      	str	r0, [r7, #24]
40101d58:	69bb      	ldr	r3, [r7, #24]
40101d5a:	2b00      	cmp	r3, #0
40101d5c:	d001      	beq.n	40101d62 <fdt_node_offset_by_compatible+0x26>
/home/zhangxiang/Downloads/op-tee2/OP-TEE/bios_qemu_tz_arm/libfdt/fdt_ro.c:555 (discriminator 1)
40101d5e:	69bb      	ldr	r3, [r7, #24]
40101d60:	e02c      	b.n	40101dbc <fdt_node_offset_by_compatible+0x80>
/home/zhangxiang/Downloads/op-tee2/OP-TEE/bios_qemu_tz_arm/libfdt/fdt_ro.c:562
40101d62:	f04f 0200 	mov.w	r2, #0
40101d66:	68b9      	ldr	r1, [r7, #8]
40101d68:	68f8      	ldr	r0, [r7, #12]
40101d6a:	f243 5363 	movw	r3, #13667	; 0x3563
40101d6e:	f2c4 0310 	movt	r3, #16400	; 0x4010
40101d72:	4798      	blx	r3
40101d74:	61f8      	str	r0, [r7, #28]
40101d76:	e01d      	b.n	40101db4 <fdt_node_offset_by_compatible+0x78>
/home/zhangxiang/Downloads/op-tee2/OP-TEE/bios_qemu_tz_arm/libfdt/fdt_ro.c:565
40101d78:	687a      	ldr	r2, [r7, #4]
40101d7a:	69f9      	ldr	r1, [r7, #28]
40101d7c:	68f8      	ldr	r0, [r7, #12]
40101d7e:	f7ff ffb3 	bl	40101ce8 <fdt_node_check_compatible>
40101d82:	6178      	str	r0, [r7, #20]
/home/zhangxiang/Downloads/op-tee2/OP-TEE/bios_qemu_tz_arm/libfdt/fdt_ro.c:566
40101d84:	697b      	ldr	r3, [r7, #20]
40101d86:	2b00      	cmp	r3, #0
40101d88:	da05      	bge.n	40101d96 <fdt_node_offset_by_compatible+0x5a>
/home/zhangxiang/Downloads/op-tee2/OP-TEE/bios_qemu_tz_arm/libfdt/fdt_ro.c:566 (discriminator 1)
40101d8a:	697b      	ldr	r3, [r7, #20]
40101d8c:	f1b3 3fff 	cmp.w	r3, #4294967295	; 0xffffffff
40101d90:	d001      	beq.n	40101d96 <fdt_node_offset_by_compatible+0x5a>
/home/zhangxiang/Downloads/op-tee2/OP-TEE/bios_qemu_tz_arm/libfdt/fdt_ro.c:567
40101d92:	697b      	ldr	r3, [r7, #20]
40101d94:	e012      	b.n	40101dbc <fdt_node_offset_by_compatible+0x80>
/home/zhangxiang/Downloads/op-tee2/OP-TEE/bios_qemu_tz_arm/libfdt/fdt_ro.c:568
40101d96:	697b      	ldr	r3, [r7, #20]
40101d98:	2b00      	cmp	r3, #0
40101d9a:	d101      	bne.n	40101da0 <fdt_node_offset_by_compatible+0x64>
/home/zhangxiang/Downloads/op-tee2/OP-TEE/bios_qemu_tz_arm/libfdt/fdt_ro.c:569
40101d9c:	69fb      	ldr	r3, [r7, #28]
40101d9e:	e00d      	b.n	40101dbc <fdt_node_offset_by_compatible+0x80>
/home/zhangxiang/Downloads/op-tee2/OP-TEE/bios_qemu_tz_arm/libfdt/fdt_ro.c:564
40101da0:	f04f 0200 	mov.w	r2, #0
40101da4:	69f9      	ldr	r1, [r7, #28]
40101da6:	68f8      	ldr	r0, [r7, #12]
40101da8:	f243 5363 	movw	r3, #13667	; 0x3563
40101dac:	f2c4 0310 	movt	r3, #16400	; 0x4010
40101db0:	4798      	blx	r3
40101db2:	61f8      	str	r0, [r7, #28]
/home/zhangxiang/Downloads/op-tee2/OP-TEE/bios_qemu_tz_arm/libfdt/fdt_ro.c:562 (discriminator 1)
40101db4:	69fb      	ldr	r3, [r7, #28]
40101db6:	2b00      	cmp	r3, #0
40101db8:	dade      	bge.n	40101d78 <fdt_node_offset_by_compatible+0x3c>
/home/zhangxiang/Downloads/op-tee2/OP-TEE/bios_qemu_tz_arm/libfdt/fdt_ro.c:572
40101dba:	69fb      	ldr	r3, [r7, #28]
/home/zhangxiang/Downloads/op-tee2/OP-TEE/bios_qemu_tz_arm/libfdt/fdt_ro.c:573
40101dbc:	4618      	mov	r0, r3
40101dbe:	f107 0720 	add.w	r7, r7, #32
40101dc2:	46bd      	mov	sp, r7
40101dc4:	bd80      	pop	{r7, pc}

40101dc6 <fdt32_to_cpu>:
fdt32_to_cpu():
/home/zhangxiang/Downloads/op-tee2/OP-TEE/bios_qemu_tz_arm/libfdt/include/./libfdt_env.h:90
40101dc6:	f84d 7d04 	str.w	r7, [sp, #-4]!
40101dca:	b083      	sub	sp, #12
40101dcc:	af00      	add	r7, sp, #0
40101dce:	6078      	str	r0, [r7, #4]
/home/zhangxiang/Downloads/op-tee2/OP-TEE/bios_qemu_tz_arm/libfdt/include/./libfdt_env.h:91
40101dd0:	f107 0304 	add.w	r3, r7, #4
40101dd4:	781b      	ldrb	r3, [r3, #0]
40101dd6:	ea4f 6203 	mov.w	r2, r3, lsl #24
40101dda:	f107 0304 	add.w	r3, r7, #4
40101dde:	f103 0301 	add.w	r3, r3, #1
40101de2:	781b      	ldrb	r3, [r3, #0]
40101de4:	ea4f 4303 	mov.w	r3, r3, lsl #16
40101de8:	ea42 0203 	orr.w	r2, r2, r3
40101dec:	f107 0304 	add.w	r3, r7, #4
40101df0:	f103 0302 	add.w	r3, r3, #2
40101df4:	781b      	ldrb	r3, [r3, #0]
40101df6:	ea4f 2303 	mov.w	r3, r3, lsl #8
40101dfa:	ea42 0203 	orr.w	r2, r2, r3
40101dfe:	f107 0304 	add.w	r3, r7, #4
40101e02:	f103 0303 	add.w	r3, r3, #3
40101e06:	781b      	ldrb	r3, [r3, #0]
40101e08:	ea43 0302 	orr.w	r3, r3, r2
/home/zhangxiang/Downloads/op-tee2/OP-TEE/bios_qemu_tz_arm/libfdt/include/./libfdt_env.h:92
40101e0c:	4618      	mov	r0, r3
40101e0e:	f107 070c 	add.w	r7, r7, #12
40101e12:	46bd      	mov	sp, r7
40101e14:	f85d 7b04 	ldr.w	r7, [sp], #4
40101e18:	4770      	bx	lr

40101e1a <cpu_to_fdt32>:
cpu_to_fdt32():
/home/zhangxiang/Downloads/op-tee2/OP-TEE/bios_qemu_tz_arm/libfdt/include/./libfdt_env.h:94
40101e1a:	f84d 7d04 	str.w	r7, [sp, #-4]!
40101e1e:	b083      	sub	sp, #12
40101e20:	af00      	add	r7, sp, #0
40101e22:	6078      	str	r0, [r7, #4]
/home/zhangxiang/Downloads/op-tee2/OP-TEE/bios_qemu_tz_arm/libfdt/include/./libfdt_env.h:95
40101e24:	f107 0304 	add.w	r3, r7, #4
40101e28:	781b      	ldrb	r3, [r3, #0]
40101e2a:	ea4f 6203 	mov.w	r2, r3, lsl #24
40101e2e:	f107 0304 	add.w	r3, r7, #4
40101e32:	f103 0301 	add.w	r3, r3, #1
40101e36:	781b      	ldrb	r3, [r3, #0]
40101e38:	ea4f 4303 	mov.w	r3, r3, lsl #16
40101e3c:	ea42 0203 	orr.w	r2, r2, r3
40101e40:	f107 0304 	add.w	r3, r7, #4
40101e44:	f103 0302 	add.w	r3, r3, #2
40101e48:	781b      	ldrb	r3, [r3, #0]
40101e4a:	ea4f 2303 	mov.w	r3, r3, lsl #8
40101e4e:	ea42 0203 	orr.w	r2, r2, r3
40101e52:	f107 0304 	add.w	r3, r7, #4
40101e56:	f103 0303 	add.w	r3, r3, #3
40101e5a:	781b      	ldrb	r3, [r3, #0]
40101e5c:	ea43 0302 	orr.w	r3, r3, r2
/home/zhangxiang/Downloads/op-tee2/OP-TEE/bios_qemu_tz_arm/libfdt/include/./libfdt_env.h:96
40101e60:	4618      	mov	r0, r3
40101e62:	f107 070c 	add.w	r7, r7, #12
40101e66:	46bd      	mov	sp, r7
40101e68:	f85d 7b04 	ldr.w	r7, [sp], #4
40101e6c:	4770      	bx	lr

40101e6e <cpu_to_fdt64>:
cpu_to_fdt64():
/home/zhangxiang/Downloads/op-tee2/OP-TEE/bios_qemu_tz_arm/libfdt/include/./libfdt_env.h:103
40101e6e:	e96d 4508 	strd	r4, r5, [sp, #-32]!
40101e72:	e9cd 6702 	strd	r6, r7, [sp, #8]
40101e76:	e9cd 8904 	strd	r8, r9, [sp, #16]
40101e7a:	e9cd ab06 	strd	sl, fp, [sp, #24]
40101e7e:	b08a      	sub	sp, #40	; 0x28
40101e80:	af00      	add	r7, sp, #0
40101e82:	e9c7 0108 	strd	r0, r1, [r7, #32]
/home/zhangxiang/Downloads/op-tee2/OP-TEE/bios_qemu_tz_arm/libfdt/include/./libfdt_env.h:104
40101e86:	f107 0320 	add.w	r3, r7, #32
40101e8a:	781b      	ldrb	r3, [r3, #0]
40101e8c:	b2db      	uxtb	r3, r3
40101e8e:	f04f 0400 	mov.w	r4, #0
40101e92:	ea4f 6303 	mov.w	r3, r3, lsl #24
40101e96:	61fb      	str	r3, [r7, #28]
40101e98:	f04f 0300 	mov.w	r3, #0
40101e9c:	61bb      	str	r3, [r7, #24]
40101e9e:	f107 0320 	add.w	r3, r7, #32
40101ea2:	f103 0301 	add.w	r3, r3, #1
40101ea6:	781b      	ldrb	r3, [r3, #0]
40101ea8:	b2db      	uxtb	r3, r3
40101eaa:	f04f 0400 	mov.w	r4, #0
40101eae:	ea4f 4303 	mov.w	r3, r3, lsl #16
40101eb2:	617b      	str	r3, [r7, #20]
40101eb4:	f04f 0300 	mov.w	r3, #0
40101eb8:	613b      	str	r3, [r7, #16]
40101eba:	e9d7 1206 	ldrd	r1, r2, [r7, #24]
40101ebe:	e9d7 3404 	ldrd	r3, r4, [r7, #16]
40101ec2:	ea41 0103 	orr.w	r1, r1, r3
40101ec6:	ea42 0204 	orr.w	r2, r2, r4
40101eca:	f107 0320 	add.w	r3, r7, #32
40101ece:	f103 0302 	add.w	r3, r3, #2
40101ed2:	781b      	ldrb	r3, [r3, #0]
40101ed4:	b2db      	uxtb	r3, r3
40101ed6:	f04f 0400 	mov.w	r4, #0
40101eda:	ea4f 2303 	mov.w	r3, r3, lsl #8
40101ede:	60fb      	str	r3, [r7, #12]
40101ee0:	f04f 0300 	mov.w	r3, #0
40101ee4:	60bb      	str	r3, [r7, #8]
40101ee6:	e9d7 3402 	ldrd	r3, r4, [r7, #8]
40101eea:	ea43 0301 	orr.w	r3, r3, r1
40101eee:	ea44 0402 	orr.w	r4, r4, r2
40101ef2:	4619      	mov	r1, r3
40101ef4:	4622      	mov	r2, r4
40101ef6:	f107 0320 	add.w	r3, r7, #32
40101efa:	f103 0303 	add.w	r3, r3, #3
40101efe:	781b      	ldrb	r3, [r3, #0]
40101f00:	b2db      	uxtb	r3, r3
40101f02:	f04f 0400 	mov.w	r4, #0
40101f06:	461b      	mov	r3, r3
40101f08:	607b      	str	r3, [r7, #4]
40101f0a:	f04f 0300 	mov.w	r3, #0
40101f0e:	603b      	str	r3, [r7, #0]
40101f10:	e9d7 3400 	ldrd	r3, r4, [r7]
40101f14:	ea43 0301 	orr.w	r3, r3, r1
40101f18:	ea44 0402 	orr.w	r4, r4, r2
40101f1c:	4619      	mov	r1, r3
40101f1e:	4622      	mov	r2, r4
40101f20:	f107 0320 	add.w	r3, r7, #32
40101f24:	f103 0304 	add.w	r3, r3, #4
40101f28:	781b      	ldrb	r3, [r3, #0]
40101f2a:	b2db      	uxtb	r3, r3
40101f2c:	f04f 0400 	mov.w	r4, #0
40101f30:	ea4f 6b04 	mov.w	fp, r4, lsl #24
40101f34:	ea4b 2b13 	orr.w	fp, fp, r3, lsr #8
40101f38:	ea4f 6a03 	mov.w	sl, r3, lsl #24
40101f3c:	ea41 010a 	orr.w	r1, r1, sl
40101f40:	ea42 020b 	orr.w	r2, r2, fp
40101f44:	f107 0320 	add.w	r3, r7, #32
40101f48:	f103 0305 	add.w	r3, r3, #5
40101f4c:	781b      	ldrb	r3, [r3, #0]
40101f4e:	b2db      	uxtb	r3, r3
40101f50:	f04f 0400 	mov.w	r4, #0
40101f54:	ea4f 4904 	mov.w	r9, r4, lsl #16
40101f58:	ea49 4913 	orr.w	r9, r9, r3, lsr #16
40101f5c:	ea4f 4803 	mov.w	r8, r3, lsl #16
40101f60:	ea41 0108 	orr.w	r1, r1, r8
40101f64:	ea42 0209 	orr.w	r2, r2, r9
40101f68:	f107 0320 	add.w	r3, r7, #32
40101f6c:	f103 0306 	add.w	r3, r3, #6
40101f70:	781b      	ldrb	r3, [r3, #0]
40101f72:	b2db      	uxtb	r3, r3
40101f74:	f04f 0400 	mov.w	r4, #0
40101f78:	ea4f 2604 	mov.w	r6, r4, lsl #8
40101f7c:	ea46 6613 	orr.w	r6, r6, r3, lsr #24
40101f80:	ea4f 2503 	mov.w	r5, r3, lsl #8
40101f84:	ea41 0105 	orr.w	r1, r1, r5
40101f88:	ea42 0206 	orr.w	r2, r2, r6
40101f8c:	f107 0320 	add.w	r3, r7, #32
40101f90:	f103 0307 	add.w	r3, r3, #7
40101f94:	781b      	ldrb	r3, [r3, #0]
40101f96:	b2db      	uxtb	r3, r3
40101f98:	f04f 0400 	mov.w	r4, #0
40101f9c:	ea43 0301 	orr.w	r3, r3, r1
40101fa0:	ea44 0402 	orr.w	r4, r4, r2
/home/zhangxiang/Downloads/op-tee2/OP-TEE/bios_qemu_tz_arm/libfdt/include/./libfdt_env.h:105
40101fa4:	4618      	mov	r0, r3
40101fa6:	4621      	mov	r1, r4
40101fa8:	f107 0728 	add.w	r7, r7, #40	; 0x28
40101fac:	46bd      	mov	sp, r7
40101fae:	e9dd 4500 	ldrd	r4, r5, [sp]
40101fb2:	e9dd 6702 	ldrd	r6, r7, [sp, #8]
40101fb6:	e9dd 8904 	ldrd	r8, r9, [sp, #16]
40101fba:	e9dd ab06 	ldrd	sl, fp, [sp, #24]
40101fbe:	b008      	add	sp, #32
40101fc0:	4770      	bx	lr

40101fc2 <fdt_set_magic>:
fdt_set_magic():
/home/zhangxiang/Downloads/op-tee2/OP-TEE/bios_qemu_tz_arm/libfdt/include/./libfdt.h:184
40101fc2:	e96d 7e02 	strd	r7, lr, [sp, #-8]!
40101fc6:	b084      	sub	sp, #16
40101fc8:	af00      	add	r7, sp, #0
40101fca:	6078      	str	r0, [r7, #4]
40101fcc:	6039      	str	r1, [r7, #0]
40101fce:	687b      	ldr	r3, [r7, #4]
40101fd0:	60fb      	str	r3, [r7, #12]
40101fd2:	6838      	ldr	r0, [r7, #0]
40101fd4:	f7ff ff21 	bl	40101e1a <cpu_to_fdt32>
40101fd8:	4602      	mov	r2, r0
40101fda:	68fb      	ldr	r3, [r7, #12]
40101fdc:	601a      	str	r2, [r3, #0]
40101fde:	bf00      	nop
40101fe0:	f107 0710 	add.w	r7, r7, #16
40101fe4:	46bd      	mov	sp, r7
40101fe6:	bd80      	pop	{r7, pc}

40101fe8 <fdt_set_totalsize>:
fdt_set_totalsize():
/home/zhangxiang/Downloads/op-tee2/OP-TEE/bios_qemu_tz_arm/libfdt/include/./libfdt.h:185
40101fe8:	e96d 7e02 	strd	r7, lr, [sp, #-8]!
40101fec:	b084      	sub	sp, #16
40101fee:	af00      	add	r7, sp, #0
40101ff0:	6078      	str	r0, [r7, #4]
40101ff2:	6039      	str	r1, [r7, #0]
40101ff4:	687b      	ldr	r3, [r7, #4]
40101ff6:	60fb      	str	r3, [r7, #12]
40101ff8:	6838      	ldr	r0, [r7, #0]
40101ffa:	f7ff ff0e 	bl	40101e1a <cpu_to_fdt32>
40101ffe:	4602      	mov	r2, r0
40102000:	68fb      	ldr	r3, [r7, #12]
40102002:	605a      	str	r2, [r3, #4]
40102004:	bf00      	nop
40102006:	f107 0710 	add.w	r7, r7, #16
4010200a:	46bd      	mov	sp, r7
4010200c:	bd80      	pop	{r7, pc}

4010200e <fdt_set_off_dt_struct>:
fdt_set_off_dt_struct():
/home/zhangxiang/Downloads/op-tee2/OP-TEE/bios_qemu_tz_arm/libfdt/include/./libfdt.h:186
4010200e:	e96d 7e02 	strd	r7, lr, [sp, #-8]!
40102012:	b084      	sub	sp, #16
40102014:	af00      	add	r7, sp, #0
40102016:	6078      	str	r0, [r7, #4]
40102018:	6039      	str	r1, [r7, #0]
4010201a:	687b      	ldr	r3, [r7, #4]
4010201c:	60fb      	str	r3, [r7, #12]
4010201e:	6838      	ldr	r0, [r7, #0]
40102020:	f7ff fefb 	bl	40101e1a <cpu_to_fdt32>
40102024:	4602      	mov	r2, r0
40102026:	68fb      	ldr	r3, [r7, #12]
40102028:	609a      	str	r2, [r3, #8]
4010202a:	bf00      	nop
4010202c:	f107 0710 	add.w	r7, r7, #16
40102030:	46bd      	mov	sp, r7
40102032:	bd80      	pop	{r7, pc}

40102034 <fdt_set_off_dt_strings>:
fdt_set_off_dt_strings():
/home/zhangxiang/Downloads/op-tee2/OP-TEE/bios_qemu_tz_arm/libfdt/include/./libfdt.h:187
40102034:	e96d 7e02 	strd	r7, lr, [sp, #-8]!
40102038:	b084      	sub	sp, #16
4010203a:	af00      	add	r7, sp, #0
4010203c:	6078      	str	r0, [r7, #4]
4010203e:	6039      	str	r1, [r7, #0]
40102040:	687b      	ldr	r3, [r7, #4]
40102042:	60fb      	str	r3, [r7, #12]
40102044:	6838      	ldr	r0, [r7, #0]
40102046:	f7ff fee8 	bl	40101e1a <cpu_to_fdt32>
4010204a:	4602      	mov	r2, r0
4010204c:	68fb      	ldr	r3, [r7, #12]
4010204e:	60da      	str	r2, [r3, #12]
40102050:	bf00      	nop
40102052:	f107 0710 	add.w	r7, r7, #16
40102056:	46bd      	mov	sp, r7
40102058:	bd80      	pop	{r7, pc}

4010205a <fdt_set_off_mem_rsvmap>:
fdt_set_off_mem_rsvmap():
/home/zhangxiang/Downloads/op-tee2/OP-TEE/bios_qemu_tz_arm/libfdt/include/./libfdt.h:188
4010205a:	e96d 7e02 	strd	r7, lr, [sp, #-8]!
4010205e:	b084      	sub	sp, #16
40102060:	af00      	add	r7, sp, #0
40102062:	6078      	str	r0, [r7, #4]
40102064:	6039      	str	r1, [r7, #0]
40102066:	687b      	ldr	r3, [r7, #4]
40102068:	60fb      	str	r3, [r7, #12]
4010206a:	6838      	ldr	r0, [r7, #0]
4010206c:	f7ff fed5 	bl	40101e1a <cpu_to_fdt32>
40102070:	4602      	mov	r2, r0
40102072:	68fb      	ldr	r3, [r7, #12]
40102074:	611a      	str	r2, [r3, #16]
40102076:	bf00      	nop
40102078:	f107 0710 	add.w	r7, r7, #16
4010207c:	46bd      	mov	sp, r7
4010207e:	bd80      	pop	{r7, pc}

40102080 <fdt_set_version>:
fdt_set_version():
/home/zhangxiang/Downloads/op-tee2/OP-TEE/bios_qemu_tz_arm/libfdt/include/./libfdt.h:189
40102080:	e96d 7e02 	strd	r7, lr, [sp, #-8]!
40102084:	b084      	sub	sp, #16
40102086:	af00      	add	r7, sp, #0
40102088:	6078      	str	r0, [r7, #4]
4010208a:	6039      	str	r1, [r7, #0]
4010208c:	687b      	ldr	r3, [r7, #4]
4010208e:	60fb      	str	r3, [r7, #12]
40102090:	6838      	ldr	r0, [r7, #0]
40102092:	f7ff fec2 	bl	40101e1a <cpu_to_fdt32>
40102096:	4602      	mov	r2, r0
40102098:	68fb      	ldr	r3, [r7, #12]
4010209a:	615a      	str	r2, [r3, #20]
4010209c:	bf00      	nop
4010209e:	f107 0710 	add.w	r7, r7, #16
401020a2:	46bd      	mov	sp, r7
401020a4:	bd80      	pop	{r7, pc}

401020a6 <fdt_set_last_comp_version>:
fdt_set_last_comp_version():
/home/zhangxiang/Downloads/op-tee2/OP-TEE/bios_qemu_tz_arm/libfdt/include/./libfdt.h:190
401020a6:	e96d 7e02 	strd	r7, lr, [sp, #-8]!
401020aa:	b084      	sub	sp, #16
401020ac:	af00      	add	r7, sp, #0
401020ae:	6078      	str	r0, [r7, #4]
401020b0:	6039      	str	r1, [r7, #0]
401020b2:	687b      	ldr	r3, [r7, #4]
401020b4:	60fb      	str	r3, [r7, #12]
401020b6:	6838      	ldr	r0, [r7, #0]
401020b8:	f7ff feaf 	bl	40101e1a <cpu_to_fdt32>
401020bc:	4602      	mov	r2, r0
401020be:	68fb      	ldr	r3, [r7, #12]
401020c0:	619a      	str	r2, [r3, #24]
401020c2:	bf00      	nop
401020c4:	f107 0710 	add.w	r7, r7, #16
401020c8:	46bd      	mov	sp, r7
401020ca:	bd80      	pop	{r7, pc}

401020cc <fdt_set_boot_cpuid_phys>:
fdt_set_boot_cpuid_phys():
/home/zhangxiang/Downloads/op-tee2/OP-TEE/bios_qemu_tz_arm/libfdt/include/./libfdt.h:191
401020cc:	e96d 7e02 	strd	r7, lr, [sp, #-8]!
401020d0:	b084      	sub	sp, #16
401020d2:	af00      	add	r7, sp, #0
401020d4:	6078      	str	r0, [r7, #4]
401020d6:	6039      	str	r1, [r7, #0]
401020d8:	687b      	ldr	r3, [r7, #4]
401020da:	60fb      	str	r3, [r7, #12]
401020dc:	6838      	ldr	r0, [r7, #0]
401020de:	f7ff fe9c 	bl	40101e1a <cpu_to_fdt32>
401020e2:	4602      	mov	r2, r0
401020e4:	68fb      	ldr	r3, [r7, #12]
401020e6:	61da      	str	r2, [r3, #28]
401020e8:	bf00      	nop
401020ea:	f107 0710 	add.w	r7, r7, #16
401020ee:	46bd      	mov	sp, r7
401020f0:	bd80      	pop	{r7, pc}

401020f2 <fdt_set_size_dt_strings>:
fdt_set_size_dt_strings():
/home/zhangxiang/Downloads/op-tee2/OP-TEE/bios_qemu_tz_arm/libfdt/include/./libfdt.h:192
401020f2:	e96d 7e02 	strd	r7, lr, [sp, #-8]!
401020f6:	b084      	sub	sp, #16
401020f8:	af00      	add	r7, sp, #0
401020fa:	6078      	str	r0, [r7, #4]
401020fc:	6039      	str	r1, [r7, #0]
401020fe:	687b      	ldr	r3, [r7, #4]
40102100:	60fb      	str	r3, [r7, #12]
40102102:	6838      	ldr	r0, [r7, #0]
40102104:	f7ff fe89 	bl	40101e1a <cpu_to_fdt32>
40102108:	4602      	mov	r2, r0
4010210a:	68fb      	ldr	r3, [r7, #12]
4010210c:	621a      	str	r2, [r3, #32]
4010210e:	bf00      	nop
40102110:	f107 0710 	add.w	r7, r7, #16
40102114:	46bd      	mov	sp, r7
40102116:	bd80      	pop	{r7, pc}

40102118 <fdt_set_size_dt_struct>:
fdt_set_size_dt_struct():
/home/zhangxiang/Downloads/op-tee2/OP-TEE/bios_qemu_tz_arm/libfdt/include/./libfdt.h:193
40102118:	e96d 7e02 	strd	r7, lr, [sp, #-8]!
4010211c:	b084      	sub	sp, #16
4010211e:	af00      	add	r7, sp, #0
40102120:	6078      	str	r0, [r7, #4]
40102122:	6039      	str	r1, [r7, #0]
40102124:	687b      	ldr	r3, [r7, #4]
40102126:	60fb      	str	r3, [r7, #12]
40102128:	6838      	ldr	r0, [r7, #0]
4010212a:	f7ff fe76 	bl	40101e1a <cpu_to_fdt32>
4010212e:	4602      	mov	r2, r0
40102130:	68fb      	ldr	r3, [r7, #12]
40102132:	625a      	str	r2, [r3, #36]	; 0x24
40102134:	bf00      	nop
40102136:	f107 0710 	add.w	r7, r7, #16
4010213a:	46bd      	mov	sp, r7
4010213c:	bd80      	pop	{r7, pc}

4010213e <fdt_get_property_w>:
fdt_get_property_w():
/home/zhangxiang/Downloads/op-tee2/OP-TEE/bios_qemu_tz_arm/libfdt/include/./libfdt.h:484
4010213e:	f84d 4d0c 	str.w	r4, [sp, #-12]!
40102142:	e9cd 7e01 	strd	r7, lr, [sp, #4]
40102146:	b085      	sub	sp, #20
40102148:	af00      	add	r7, sp, #0
4010214a:	60f8      	str	r0, [r7, #12]
4010214c:	60b9      	str	r1, [r7, #8]
4010214e:	607a      	str	r2, [r7, #4]
40102150:	603b      	str	r3, [r7, #0]
/home/zhangxiang/Downloads/op-tee2/OP-TEE/bios_qemu_tz_arm/libfdt/include/./libfdt.h:485
40102152:	683b      	ldr	r3, [r7, #0]
40102154:	687a      	ldr	r2, [r7, #4]
40102156:	68b9      	ldr	r1, [r7, #8]
40102158:	68f8      	ldr	r0, [r7, #12]
4010215a:	f241 6481 	movw	r4, #5761	; 0x1681
4010215e:	f2c4 0410 	movt	r4, #16400	; 0x4010
40102162:	47a0      	blx	r4
40102164:	4603      	mov	r3, r0
/home/zhangxiang/Downloads/op-tee2/OP-TEE/bios_qemu_tz_arm/libfdt/include/./libfdt.h:487
40102166:	4618      	mov	r0, r3
40102168:	f107 0714 	add.w	r7, r7, #20
4010216c:	46bd      	mov	sp, r7
4010216e:	e9dd 4700 	ldrd	r4, r7, [sp]
40102172:	b002      	add	sp, #8
40102174:	f85d fb04 	ldr.w	pc, [sp], #4

40102178 <_fdt_offset_ptr>:
_fdt_offset_ptr():
/home/zhangxiang/Downloads/op-tee2/OP-TEE/bios_qemu_tz_arm/libfdt/libfdt_internal.h:71
40102178:	e96d 7e02 	strd	r7, lr, [sp, #-8]!
4010217c:	b082      	sub	sp, #8
4010217e:	af00      	add	r7, sp, #0
40102180:	6078      	str	r0, [r7, #4]
40102182:	6039      	str	r1, [r7, #0]
/home/zhangxiang/Downloads/op-tee2/OP-TEE/bios_qemu_tz_arm/libfdt/libfdt_internal.h:72
40102184:	687b      	ldr	r3, [r7, #4]
40102186:	689b      	ldr	r3, [r3, #8]
40102188:	4618      	mov	r0, r3
4010218a:	f7ff fe1c 	bl	40101dc6 <fdt32_to_cpu>
4010218e:	4602      	mov	r2, r0
40102190:	683b      	ldr	r3, [r7, #0]
40102192:	4413      	add	r3, r2
40102194:	687a      	ldr	r2, [r7, #4]
40102196:	4413      	add	r3, r2
/home/zhangxiang/Downloads/op-tee2/OP-TEE/bios_qemu_tz_arm/libfdt/libfdt_internal.h:73
40102198:	4618      	mov	r0, r3
4010219a:	f107 0708 	add.w	r7, r7, #8
4010219e:	46bd      	mov	sp, r7
401021a0:	bd80      	pop	{r7, pc}

401021a2 <_fdt_offset_ptr_w>:
_fdt_offset_ptr_w():
/home/zhangxiang/Downloads/op-tee2/OP-TEE/bios_qemu_tz_arm/libfdt/libfdt_internal.h:76
401021a2:	e96d 7e02 	strd	r7, lr, [sp, #-8]!
401021a6:	b082      	sub	sp, #8
401021a8:	af00      	add	r7, sp, #0
401021aa:	6078      	str	r0, [r7, #4]
401021ac:	6039      	str	r1, [r7, #0]
/home/zhangxiang/Downloads/op-tee2/OP-TEE/bios_qemu_tz_arm/libfdt/libfdt_internal.h:77
401021ae:	6839      	ldr	r1, [r7, #0]
401021b0:	6878      	ldr	r0, [r7, #4]
401021b2:	f7ff ffe1 	bl	40102178 <_fdt_offset_ptr>
401021b6:	4603      	mov	r3, r0
/home/zhangxiang/Downloads/op-tee2/OP-TEE/bios_qemu_tz_arm/libfdt/libfdt_internal.h:78
401021b8:	4618      	mov	r0, r3
401021ba:	f107 0708 	add.w	r7, r7, #8
401021be:	46bd      	mov	sp, r7
401021c0:	bd80      	pop	{r7, pc}

401021c2 <_fdt_mem_rsv>:
_fdt_mem_rsv():
/home/zhangxiang/Downloads/op-tee2/OP-TEE/bios_qemu_tz_arm/libfdt/libfdt_internal.h:81
401021c2:	e96d 7e02 	strd	r7, lr, [sp, #-8]!
401021c6:	b084      	sub	sp, #16
401021c8:	af00      	add	r7, sp, #0
401021ca:	6078      	str	r0, [r7, #4]
401021cc:	6039      	str	r1, [r7, #0]
/home/zhangxiang/Downloads/op-tee2/OP-TEE/bios_qemu_tz_arm/libfdt/libfdt_internal.h:84
401021ce:	687b      	ldr	r3, [r7, #4]
401021d0:	691b      	ldr	r3, [r3, #16]
401021d2:	4618      	mov	r0, r3
401021d4:	f7ff fdf7 	bl	40101dc6 <fdt32_to_cpu>
401021d8:	4602      	mov	r2, r0
/home/zhangxiang/Downloads/op-tee2/OP-TEE/bios_qemu_tz_arm/libfdt/libfdt_internal.h:82
401021da:	687b      	ldr	r3, [r7, #4]
401021dc:	4413      	add	r3, r2
401021de:	60fb      	str	r3, [r7, #12]
/home/zhangxiang/Downloads/op-tee2/OP-TEE/bios_qemu_tz_arm/libfdt/libfdt_internal.h:86
401021e0:	683b      	ldr	r3, [r7, #0]
401021e2:	ea4f 1303 	mov.w	r3, r3, lsl #4
401021e6:	68fa      	ldr	r2, [r7, #12]
401021e8:	4413      	add	r3, r2
/home/zhangxiang/Downloads/op-tee2/OP-TEE/bios_qemu_tz_arm/libfdt/libfdt_internal.h:87
401021ea:	4618      	mov	r0, r3
401021ec:	f107 0710 	add.w	r7, r7, #16
401021f0:	46bd      	mov	sp, r7
401021f2:	bd80      	pop	{r7, pc}

401021f4 <_fdt_mem_rsv_w>:
_fdt_mem_rsv_w():
/home/zhangxiang/Downloads/op-tee2/OP-TEE/bios_qemu_tz_arm/libfdt/libfdt_internal.h:89
401021f4:	e96d 7e02 	strd	r7, lr, [sp, #-8]!
401021f8:	b082      	sub	sp, #8
401021fa:	af00      	add	r7, sp, #0
401021fc:	6078      	str	r0, [r7, #4]
401021fe:	6039      	str	r1, [r7, #0]
/home/zhangxiang/Downloads/op-tee2/OP-TEE/bios_qemu_tz_arm/libfdt/libfdt_internal.h:90
40102200:	6839      	ldr	r1, [r7, #0]
40102202:	6878      	ldr	r0, [r7, #4]
40102204:	f7ff ffdd 	bl	401021c2 <_fdt_mem_rsv>
40102208:	4603      	mov	r3, r0
/home/zhangxiang/Downloads/op-tee2/OP-TEE/bios_qemu_tz_arm/libfdt/libfdt_internal.h:91
4010220a:	4618      	mov	r0, r3
4010220c:	f107 0708 	add.w	r7, r7, #8
40102210:	46bd      	mov	sp, r7
40102212:	bd80      	pop	{r7, pc}

40102214 <_fdt_blocks_misordered>:
_fdt_blocks_misordered():
/home/zhangxiang/Downloads/op-tee2/OP-TEE/bios_qemu_tz_arm/libfdt/fdt_rw.c:60
40102214:	e96d 4504 	strd	r4, r5, [sp, #-16]!
40102218:	e9cd 7e02 	strd	r7, lr, [sp, #8]
4010221c:	b084      	sub	sp, #16
4010221e:	af00      	add	r7, sp, #0
40102220:	60f8      	str	r0, [r7, #12]
40102222:	60b9      	str	r1, [r7, #8]
40102224:	607a      	str	r2, [r7, #4]
/home/zhangxiang/Downloads/op-tee2/OP-TEE/bios_qemu_tz_arm/libfdt/fdt_rw.c:61
40102226:	68fb      	ldr	r3, [r7, #12]
40102228:	691b      	ldr	r3, [r3, #16]
4010222a:	4618      	mov	r0, r3
4010222c:	f7ff fdcb 	bl	40101dc6 <fdt32_to_cpu>
40102230:	4603      	mov	r3, r0
/home/zhangxiang/Downloads/op-tee2/OP-TEE/bios_qemu_tz_arm/libfdt/fdt_rw.c:66
40102232:	2b27      	cmp	r3, #39	; 0x27
40102234:	d934      	bls.n	401022a0 <_fdt_blocks_misordered+0x8c>
/home/zhangxiang/Downloads/op-tee2/OP-TEE/bios_qemu_tz_arm/libfdt/fdt_rw.c:62
40102236:	68fb      	ldr	r3, [r7, #12]
40102238:	689b      	ldr	r3, [r3, #8]
4010223a:	4618      	mov	r0, r3
4010223c:	f7ff fdc3 	bl	40101dc6 <fdt32_to_cpu>
40102240:	4604      	mov	r4, r0
/home/zhangxiang/Downloads/op-tee2/OP-TEE/bios_qemu_tz_arm/libfdt/fdt_rw.c:63
40102242:	68fb      	ldr	r3, [r7, #12]
40102244:	691b      	ldr	r3, [r3, #16]
40102246:	4618      	mov	r0, r3
40102248:	f7ff fdbd 	bl	40101dc6 <fdt32_to_cpu>
4010224c:	4602      	mov	r2, r0
4010224e:	68bb      	ldr	r3, [r7, #8]
40102250:	4413      	add	r3, r2
/home/zhangxiang/Downloads/op-tee2/OP-TEE/bios_qemu_tz_arm/libfdt/fdt_rw.c:62
40102252:	429c      	cmp	r4, r3
40102254:	d324      	bcc.n	401022a0 <_fdt_blocks_misordered+0x8c>
/home/zhangxiang/Downloads/op-tee2/OP-TEE/bios_qemu_tz_arm/libfdt/fdt_rw.c:64
40102256:	68fb      	ldr	r3, [r7, #12]
40102258:	68db      	ldr	r3, [r3, #12]
4010225a:	4618      	mov	r0, r3
4010225c:	f7ff fdb3 	bl	40101dc6 <fdt32_to_cpu>
40102260:	4604      	mov	r4, r0
/home/zhangxiang/Downloads/op-tee2/OP-TEE/bios_qemu_tz_arm/libfdt/fdt_rw.c:65
40102262:	68fb      	ldr	r3, [r7, #12]
40102264:	689b      	ldr	r3, [r3, #8]
40102266:	4618      	mov	r0, r3
40102268:	f7ff fdad 	bl	40101dc6 <fdt32_to_cpu>
4010226c:	4602      	mov	r2, r0
4010226e:	687b      	ldr	r3, [r7, #4]
40102270:	4413      	add	r3, r2
/home/zhangxiang/Downloads/op-tee2/OP-TEE/bios_qemu_tz_arm/libfdt/fdt_rw.c:64
40102272:	429c      	cmp	r4, r3
40102274:	d314      	bcc.n	401022a0 <_fdt_blocks_misordered+0x8c>
/home/zhangxiang/Downloads/op-tee2/OP-TEE/bios_qemu_tz_arm/libfdt/fdt_rw.c:66 (discriminator 2)
40102276:	68fb      	ldr	r3, [r7, #12]
40102278:	685b      	ldr	r3, [r3, #4]
4010227a:	4618      	mov	r0, r3
4010227c:	f7ff fda3 	bl	40101dc6 <fdt32_to_cpu>
40102280:	4604      	mov	r4, r0
/home/zhangxiang/Downloads/op-tee2/OP-TEE/bios_qemu_tz_arm/libfdt/fdt_rw.c:67 (discriminator 2)
40102282:	68fb      	ldr	r3, [r7, #12]
40102284:	68db      	ldr	r3, [r3, #12]
40102286:	4618      	mov	r0, r3
40102288:	f7ff fd9d 	bl	40101dc6 <fdt32_to_cpu>
4010228c:	4605      	mov	r5, r0
4010228e:	68fb      	ldr	r3, [r7, #12]
40102290:	6a1b      	ldr	r3, [r3, #32]
40102292:	4618      	mov	r0, r3
40102294:	f7ff fd97 	bl	40101dc6 <fdt32_to_cpu>
40102298:	4603      	mov	r3, r0
4010229a:	442b      	add	r3, r5
/home/zhangxiang/Downloads/op-tee2/OP-TEE/bios_qemu_tz_arm/libfdt/fdt_rw.c:66 (discriminator 2)
4010229c:	429c      	cmp	r4, r3
4010229e:	d202      	bcs.n	401022a6 <_fdt_blocks_misordered+0x92>
/home/zhangxiang/Downloads/op-tee2/OP-TEE/bios_qemu_tz_arm/libfdt/fdt_rw.c:66 (discriminator 1)
401022a0:	f04f 0301 	mov.w	r3, #1
401022a4:	e001      	b.n	401022aa <_fdt_blocks_misordered+0x96>
/home/zhangxiang/Downloads/op-tee2/OP-TEE/bios_qemu_tz_arm/libfdt/fdt_rw.c:66 (discriminator 3)
401022a6:	f04f 0300 	mov.w	r3, #0
/home/zhangxiang/Downloads/op-tee2/OP-TEE/bios_qemu_tz_arm/libfdt/fdt_rw.c:68 (discriminator 6)
401022aa:	4618      	mov	r0, r3
401022ac:	f107 0710 	add.w	r7, r7, #16
401022b0:	46bd      	mov	sp, r7
401022b2:	e9dd 4500 	ldrd	r4, r5, [sp]
401022b6:	b002      	add	sp, #8
401022b8:	bd80      	pop	{r7, pc}

401022ba <_fdt_rw_check_header>:
_fdt_rw_check_header():
/home/zhangxiang/Downloads/op-tee2/OP-TEE/bios_qemu_tz_arm/libfdt/fdt_rw.c:71
401022ba:	e96d 7e02 	strd	r7, lr, [sp, #-8]!
401022be:	b084      	sub	sp, #16
401022c0:	af00      	add	r7, sp, #0
401022c2:	6078      	str	r0, [r7, #4]
/home/zhangxiang/Downloads/op-tee2/OP-TEE/bios_qemu_tz_arm/libfdt/fdt_rw.c:72
401022c4:	6878      	ldr	r0, [r7, #4]
401022c6:	f243 23ab 	movw	r3, #12971	; 0x32ab
401022ca:	f2c4 0310 	movt	r3, #16400	; 0x4010
401022ce:	4798      	blx	r3
401022d0:	60f8      	str	r0, [r7, #12]
401022d2:	68fb      	ldr	r3, [r7, #12]
401022d4:	2b00      	cmp	r3, #0
401022d6:	d001      	beq.n	401022dc <_fdt_rw_check_header+0x22>
/home/zhangxiang/Downloads/op-tee2/OP-TEE/bios_qemu_tz_arm/libfdt/fdt_rw.c:72 (discriminator 1)
401022d8:	68fb      	ldr	r3, [r7, #12]
401022da:	e02b      	b.n	40102334 <_fdt_rw_check_header+0x7a>
/home/zhangxiang/Downloads/op-tee2/OP-TEE/bios_qemu_tz_arm/libfdt/fdt_rw.c:74
401022dc:	687b      	ldr	r3, [r7, #4]
401022de:	695b      	ldr	r3, [r3, #20]
401022e0:	4618      	mov	r0, r3
401022e2:	f7ff fd70 	bl	40101dc6 <fdt32_to_cpu>
401022e6:	4603      	mov	r3, r0
401022e8:	2b10      	cmp	r3, #16
401022ea:	d802      	bhi.n	401022f2 <_fdt_rw_check_header+0x38>
/home/zhangxiang/Downloads/op-tee2/OP-TEE/bios_qemu_tz_arm/libfdt/fdt_rw.c:75
401022ec:	f06f 0309 	mvn.w	r3, #9
401022f0:	e020      	b.n	40102334 <_fdt_rw_check_header+0x7a>
/home/zhangxiang/Downloads/op-tee2/OP-TEE/bios_qemu_tz_arm/libfdt/fdt_rw.c:77
401022f2:	687b      	ldr	r3, [r7, #4]
401022f4:	6a5b      	ldr	r3, [r3, #36]	; 0x24
401022f6:	4618      	mov	r0, r3
401022f8:	f7ff fd65 	bl	40101dc6 <fdt32_to_cpu>
401022fc:	4603      	mov	r3, r0
/home/zhangxiang/Downloads/op-tee2/OP-TEE/bios_qemu_tz_arm/libfdt/fdt_rw.c:76
401022fe:	461a      	mov	r2, r3
40102300:	f04f 0110 	mov.w	r1, #16
40102304:	6878      	ldr	r0, [r7, #4]
40102306:	f7ff ff85 	bl	40102214 <_fdt_blocks_misordered>
4010230a:	4603      	mov	r3, r0
4010230c:	2b00      	cmp	r3, #0
4010230e:	d002      	beq.n	40102316 <_fdt_rw_check_header+0x5c>
/home/zhangxiang/Downloads/op-tee2/OP-TEE/bios_qemu_tz_arm/libfdt/fdt_rw.c:78
40102310:	f06f 030b 	mvn.w	r3, #11
40102314:	e00e      	b.n	40102334 <_fdt_rw_check_header+0x7a>
/home/zhangxiang/Downloads/op-tee2/OP-TEE/bios_qemu_tz_arm/libfdt/fdt_rw.c:79
40102316:	687b      	ldr	r3, [r7, #4]
40102318:	695b      	ldr	r3, [r3, #20]
4010231a:	4618      	mov	r0, r3
4010231c:	f7ff fd53 	bl	40101dc6 <fdt32_to_cpu>
40102320:	4603      	mov	r3, r0
40102322:	2b11      	cmp	r3, #17
40102324:	d904      	bls.n	40102330 <_fdt_rw_check_header+0x76>
/home/zhangxiang/Downloads/op-tee2/OP-TEE/bios_qemu_tz_arm/libfdt/fdt_rw.c:80
40102326:	f04f 0111 	mov.w	r1, #17
4010232a:	6878      	ldr	r0, [r7, #4]
4010232c:	f7ff fea8 	bl	40102080 <fdt_set_version>
/home/zhangxiang/Downloads/op-tee2/OP-TEE/bios_qemu_tz_arm/libfdt/fdt_rw.c:82
40102330:	f04f 0300 	mov.w	r3, #0
/home/zhangxiang/Downloads/op-tee2/OP-TEE/bios_qemu_tz_arm/libfdt/fdt_rw.c:83
40102334:	4618      	mov	r0, r3
40102336:	f107 0710 	add.w	r7, r7, #16
4010233a:	46bd      	mov	sp, r7
4010233c:	bd80      	pop	{r7, pc}

4010233e <_fdt_data_size>:
_fdt_data_size():
/home/zhangxiang/Downloads/op-tee2/OP-TEE/bios_qemu_tz_arm/libfdt/fdt_rw.c:93
4010233e:	f84d 4d0c 	str.w	r4, [sp, #-12]!
40102342:	e9cd 7e01 	strd	r7, lr, [sp, #4]
40102346:	b083      	sub	sp, #12
40102348:	af00      	add	r7, sp, #0
4010234a:	6078      	str	r0, [r7, #4]
/home/zhangxiang/Downloads/op-tee2/OP-TEE/bios_qemu_tz_arm/libfdt/fdt_rw.c:94
4010234c:	687b      	ldr	r3, [r7, #4]
4010234e:	68db      	ldr	r3, [r3, #12]
40102350:	4618      	mov	r0, r3
40102352:	f7ff fd38 	bl	40101dc6 <fdt32_to_cpu>
40102356:	4604      	mov	r4, r0
40102358:	687b      	ldr	r3, [r7, #4]
4010235a:	6a1b      	ldr	r3, [r3, #32]
4010235c:	4618      	mov	r0, r3
4010235e:	f7ff fd32 	bl	40101dc6 <fdt32_to_cpu>
40102362:	4603      	mov	r3, r0
40102364:	4423      	add	r3, r4
/home/zhangxiang/Downloads/op-tee2/OP-TEE/bios_qemu_tz_arm/libfdt/fdt_rw.c:95
40102366:	4618      	mov	r0, r3
40102368:	f107 070c 	add.w	r7, r7, #12
4010236c:	46bd      	mov	sp, r7
4010236e:	e9dd 4700 	ldrd	r4, r7, [sp]
40102372:	b002      	add	sp, #8
40102374:	f85d fb04 	ldr.w	pc, [sp], #4

40102378 <_fdt_splice>:
_fdt_splice():
/home/zhangxiang/Downloads/op-tee2/OP-TEE/bios_qemu_tz_arm/libfdt/fdt_rw.c:98
40102378:	f84d 4d0c 	str.w	r4, [sp, #-12]!
4010237c:	e9cd 7e01 	strd	r7, lr, [sp, #4]
40102380:	b087      	sub	sp, #28
40102382:	af00      	add	r7, sp, #0
40102384:	60f8      	str	r0, [r7, #12]
40102386:	60b9      	str	r1, [r7, #8]
40102388:	607a      	str	r2, [r7, #4]
4010238a:	603b      	str	r3, [r7, #0]
/home/zhangxiang/Downloads/op-tee2/OP-TEE/bios_qemu_tz_arm/libfdt/fdt_rw.c:99
4010238c:	68bb      	ldr	r3, [r7, #8]
4010238e:	617b      	str	r3, [r7, #20]
/home/zhangxiang/Downloads/op-tee2/OP-TEE/bios_qemu_tz_arm/libfdt/fdt_rw.c:100
40102390:	68f8      	ldr	r0, [r7, #12]
40102392:	f7ff ffd4 	bl	4010233e <_fdt_data_size>
40102396:	4603      	mov	r3, r0
40102398:	461a      	mov	r2, r3
4010239a:	68fb      	ldr	r3, [r7, #12]
4010239c:	4413      	add	r3, r2
4010239e:	613b      	str	r3, [r7, #16]
/home/zhangxiang/Downloads/op-tee2/OP-TEE/bios_qemu_tz_arm/libfdt/fdt_rw.c:102
401023a0:	687b      	ldr	r3, [r7, #4]
401023a2:	697a      	ldr	r2, [r7, #20]
401023a4:	441a      	add	r2, r3
401023a6:	697b      	ldr	r3, [r7, #20]
401023a8:	429a      	cmp	r2, r3
401023aa:	d305      	bcc.n	401023b8 <_fdt_splice+0x40>
/home/zhangxiang/Downloads/op-tee2/OP-TEE/bios_qemu_tz_arm/libfdt/fdt_rw.c:102 (discriminator 1)
401023ac:	687b      	ldr	r3, [r7, #4]
401023ae:	697a      	ldr	r2, [r7, #20]
401023b0:	441a      	add	r2, r3
401023b2:	693b      	ldr	r3, [r7, #16]
401023b4:	429a      	cmp	r2, r3
401023b6:	d902      	bls.n	401023be <_fdt_splice+0x46>
/home/zhangxiang/Downloads/op-tee2/OP-TEE/bios_qemu_tz_arm/libfdt/fdt_rw.c:103
401023b8:	f06f 0303 	mvn.w	r3, #3
401023bc:	e02a      	b.n	40102414 <_fdt_splice+0x9c>
/home/zhangxiang/Downloads/op-tee2/OP-TEE/bios_qemu_tz_arm/libfdt/fdt_rw.c:104
401023be:	683a      	ldr	r2, [r7, #0]
401023c0:	687b      	ldr	r3, [r7, #4]
401023c2:	eba2 0303 	sub.w	r3, r2, r3
401023c6:	693a      	ldr	r2, [r7, #16]
401023c8:	eb02 0403 	add.w	r4, r2, r3
401023cc:	68fb      	ldr	r3, [r7, #12]
401023ce:	685b      	ldr	r3, [r3, #4]
401023d0:	4618      	mov	r0, r3
401023d2:	f7ff fcf8 	bl	40101dc6 <fdt32_to_cpu>
401023d6:	4602      	mov	r2, r0
401023d8:	68fb      	ldr	r3, [r7, #12]
401023da:	4413      	add	r3, r2
401023dc:	429c      	cmp	r4, r3
401023de:	d902      	bls.n	401023e6 <_fdt_splice+0x6e>
/home/zhangxiang/Downloads/op-tee2/OP-TEE/bios_qemu_tz_arm/libfdt/fdt_rw.c:105
401023e0:	f06f 0302 	mvn.w	r3, #2
401023e4:	e016      	b.n	40102414 <_fdt_splice+0x9c>
/home/zhangxiang/Downloads/op-tee2/OP-TEE/bios_qemu_tz_arm/libfdt/fdt_rw.c:106
401023e6:	683b      	ldr	r3, [r7, #0]
401023e8:	697a      	ldr	r2, [r7, #20]
401023ea:	eb02 0003 	add.w	r0, r2, r3
401023ee:	687b      	ldr	r3, [r7, #4]
401023f0:	697a      	ldr	r2, [r7, #20]
401023f2:	eb02 0103 	add.w	r1, r2, r3
401023f6:	693a      	ldr	r2, [r7, #16]
401023f8:	697b      	ldr	r3, [r7, #20]
401023fa:	eba2 0203 	sub.w	r2, r2, r3
401023fe:	687b      	ldr	r3, [r7, #4]
40102400:	eba2 0303 	sub.w	r3, r2, r3
40102404:	461a      	mov	r2, r3
40102406:	f644 0343 	movw	r3, #18499	; 0x4843
4010240a:	f2c4 0310 	movt	r3, #16400	; 0x4010
4010240e:	4798      	blx	r3
/home/zhangxiang/Downloads/op-tee2/OP-TEE/bios_qemu_tz_arm/libfdt/fdt_rw.c:107
40102410:	f04f 0300 	mov.w	r3, #0
/home/zhangxiang/Downloads/op-tee2/OP-TEE/bios_qemu_tz_arm/libfdt/fdt_rw.c:108
40102414:	4618      	mov	r0, r3
40102416:	f107 071c 	add.w	r7, r7, #28
4010241a:	46bd      	mov	sp, r7
4010241c:	e9dd 4700 	ldrd	r4, r7, [sp]
40102420:	b002      	add	sp, #8
40102422:	f85d fb04 	ldr.w	pc, [sp], #4

40102426 <_fdt_splice_mem_rsv>:
_fdt_splice_mem_rsv():
/home/zhangxiang/Downloads/op-tee2/OP-TEE/bios_qemu_tz_arm/libfdt/fdt_rw.c:112
40102426:	e96d 7e02 	strd	r7, lr, [sp, #-8]!
4010242a:	b086      	sub	sp, #24
4010242c:	af00      	add	r7, sp, #0
4010242e:	60f8      	str	r0, [r7, #12]
40102430:	60b9      	str	r1, [r7, #8]
40102432:	607a      	str	r2, [r7, #4]
40102434:	603b      	str	r3, [r7, #0]
/home/zhangxiang/Downloads/op-tee2/OP-TEE/bios_qemu_tz_arm/libfdt/fdt_rw.c:113
40102436:	683a      	ldr	r2, [r7, #0]
40102438:	687b      	ldr	r3, [r7, #4]
4010243a:	eba2 0303 	sub.w	r3, r2, r3
4010243e:	ea4f 1303 	mov.w	r3, r3, lsl #4
40102442:	617b      	str	r3, [r7, #20]
/home/zhangxiang/Downloads/op-tee2/OP-TEE/bios_qemu_tz_arm/libfdt/fdt_rw.c:115
40102444:	687b      	ldr	r3, [r7, #4]
40102446:	ea4f 1303 	mov.w	r3, r3, lsl #4
4010244a:	461a      	mov	r2, r3
4010244c:	683b      	ldr	r3, [r7, #0]
4010244e:	ea4f 1303 	mov.w	r3, r3, lsl #4
40102452:	68b9      	ldr	r1, [r7, #8]
40102454:	68f8      	ldr	r0, [r7, #12]
40102456:	f7ff ff8f 	bl	40102378 <_fdt_splice>
4010245a:	6138      	str	r0, [r7, #16]
/home/zhangxiang/Downloads/op-tee2/OP-TEE/bios_qemu_tz_arm/libfdt/fdt_rw.c:116
4010245c:	693b      	ldr	r3, [r7, #16]
4010245e:	2b00      	cmp	r3, #0
40102460:	d001      	beq.n	40102466 <_fdt_splice_mem_rsv+0x40>
/home/zhangxiang/Downloads/op-tee2/OP-TEE/bios_qemu_tz_arm/libfdt/fdt_rw.c:117
40102462:	693b      	ldr	r3, [r7, #16]
40102464:	e019      	b.n	4010249a <_fdt_splice_mem_rsv+0x74>
/home/zhangxiang/Downloads/op-tee2/OP-TEE/bios_qemu_tz_arm/libfdt/fdt_rw.c:118
40102466:	68fb      	ldr	r3, [r7, #12]
40102468:	689b      	ldr	r3, [r3, #8]
4010246a:	4618      	mov	r0, r3
4010246c:	f7ff fcab 	bl	40101dc6 <fdt32_to_cpu>
40102470:	4602      	mov	r2, r0
40102472:	697b      	ldr	r3, [r7, #20]
40102474:	4413      	add	r3, r2
40102476:	4619      	mov	r1, r3
40102478:	68f8      	ldr	r0, [r7, #12]
4010247a:	f7ff fdc8 	bl	4010200e <fdt_set_off_dt_struct>
/home/zhangxiang/Downloads/op-tee2/OP-TEE/bios_qemu_tz_arm/libfdt/fdt_rw.c:119
4010247e:	68fb      	ldr	r3, [r7, #12]
40102480:	68db      	ldr	r3, [r3, #12]
40102482:	4618      	mov	r0, r3
40102484:	f7ff fc9f 	bl	40101dc6 <fdt32_to_cpu>
40102488:	4602      	mov	r2, r0
4010248a:	697b      	ldr	r3, [r7, #20]
4010248c:	4413      	add	r3, r2
4010248e:	4619      	mov	r1, r3
40102490:	68f8      	ldr	r0, [r7, #12]
40102492:	f7ff fdcf 	bl	40102034 <fdt_set_off_dt_strings>
/home/zhangxiang/Downloads/op-tee2/OP-TEE/bios_qemu_tz_arm/libfdt/fdt_rw.c:120
40102496:	f04f 0300 	mov.w	r3, #0
/home/zhangxiang/Downloads/op-tee2/OP-TEE/bios_qemu_tz_arm/libfdt/fdt_rw.c:121
4010249a:	4618      	mov	r0, r3
4010249c:	f107 0718 	add.w	r7, r7, #24
401024a0:	46bd      	mov	sp, r7
401024a2:	bd80      	pop	{r7, pc}

401024a4 <_fdt_splice_struct>:
_fdt_splice_struct():
/home/zhangxiang/Downloads/op-tee2/OP-TEE/bios_qemu_tz_arm/libfdt/fdt_rw.c:125
401024a4:	e96d 7e02 	strd	r7, lr, [sp, #-8]!
401024a8:	b086      	sub	sp, #24
401024aa:	af00      	add	r7, sp, #0
401024ac:	60f8      	str	r0, [r7, #12]
401024ae:	60b9      	str	r1, [r7, #8]
401024b0:	607a      	str	r2, [r7, #4]
401024b2:	603b      	str	r3, [r7, #0]
/home/zhangxiang/Downloads/op-tee2/OP-TEE/bios_qemu_tz_arm/libfdt/fdt_rw.c:126
401024b4:	683a      	ldr	r2, [r7, #0]
401024b6:	687b      	ldr	r3, [r7, #4]
401024b8:	eba2 0303 	sub.w	r3, r2, r3
401024bc:	617b      	str	r3, [r7, #20]
/home/zhangxiang/Downloads/op-tee2/OP-TEE/bios_qemu_tz_arm/libfdt/fdt_rw.c:129
401024be:	683b      	ldr	r3, [r7, #0]
401024c0:	687a      	ldr	r2, [r7, #4]
401024c2:	68b9      	ldr	r1, [r7, #8]
401024c4:	68f8      	ldr	r0, [r7, #12]
401024c6:	f7ff ff57 	bl	40102378 <_fdt_splice>
401024ca:	6138      	str	r0, [r7, #16]
401024cc:	693b      	ldr	r3, [r7, #16]
401024ce:	2b00      	cmp	r3, #0
401024d0:	d001      	beq.n	401024d6 <_fdt_splice_struct+0x32>
/home/zhangxiang/Downloads/op-tee2/OP-TEE/bios_qemu_tz_arm/libfdt/fdt_rw.c:130
401024d2:	693b      	ldr	r3, [r7, #16]
401024d4:	e019      	b.n	4010250a <_fdt_splice_struct+0x66>
/home/zhangxiang/Downloads/op-tee2/OP-TEE/bios_qemu_tz_arm/libfdt/fdt_rw.c:132
401024d6:	68fb      	ldr	r3, [r7, #12]
401024d8:	6a5b      	ldr	r3, [r3, #36]	; 0x24
401024da:	4618      	mov	r0, r3
401024dc:	f7ff fc73 	bl	40101dc6 <fdt32_to_cpu>
401024e0:	4602      	mov	r2, r0
401024e2:	697b      	ldr	r3, [r7, #20]
401024e4:	4413      	add	r3, r2
401024e6:	4619      	mov	r1, r3
401024e8:	68f8      	ldr	r0, [r7, #12]
401024ea:	f7ff fe15 	bl	40102118 <fdt_set_size_dt_struct>
/home/zhangxiang/Downloads/op-tee2/OP-TEE/bios_qemu_tz_arm/libfdt/fdt_rw.c:133
401024ee:	68fb      	ldr	r3, [r7, #12]
401024f0:	68db      	ldr	r3, [r3, #12]
401024f2:	4618      	mov	r0, r3
401024f4:	f7ff fc67 	bl	40101dc6 <fdt32_to_cpu>
401024f8:	4602      	mov	r2, r0
401024fa:	697b      	ldr	r3, [r7, #20]
401024fc:	4413      	add	r3, r2
401024fe:	4619      	mov	r1, r3
40102500:	68f8      	ldr	r0, [r7, #12]
40102502:	f7ff fd97 	bl	40102034 <fdt_set_off_dt_strings>
/home/zhangxiang/Downloads/op-tee2/OP-TEE/bios_qemu_tz_arm/libfdt/fdt_rw.c:134
40102506:	f04f 0300 	mov.w	r3, #0
/home/zhangxiang/Downloads/op-tee2/OP-TEE/bios_qemu_tz_arm/libfdt/fdt_rw.c:135
4010250a:	4618      	mov	r0, r3
4010250c:	f107 0718 	add.w	r7, r7, #24
40102510:	46bd      	mov	sp, r7
40102512:	bd80      	pop	{r7, pc}

40102514 <_fdt_splice_string>:
_fdt_splice_string():
/home/zhangxiang/Downloads/op-tee2/OP-TEE/bios_qemu_tz_arm/libfdt/fdt_rw.c:138
40102514:	f84d 4d0c 	str.w	r4, [sp, #-12]!
40102518:	e9cd 7e01 	strd	r7, lr, [sp, #4]
4010251c:	b085      	sub	sp, #20
4010251e:	af00      	add	r7, sp, #0
40102520:	6078      	str	r0, [r7, #4]
40102522:	6039      	str	r1, [r7, #0]
/home/zhangxiang/Downloads/op-tee2/OP-TEE/bios_qemu_tz_arm/libfdt/fdt_rw.c:140
40102524:	687b      	ldr	r3, [r7, #4]
40102526:	68db      	ldr	r3, [r3, #12]
40102528:	4618      	mov	r0, r3
4010252a:	f7ff fc4c 	bl	40101dc6 <fdt32_to_cpu>
4010252e:	4604      	mov	r4, r0
40102530:	687b      	ldr	r3, [r7, #4]
40102532:	6a1b      	ldr	r3, [r3, #32]
40102534:	4618      	mov	r0, r3
40102536:	f7ff fc46 	bl	40101dc6 <fdt32_to_cpu>
4010253a:	4603      	mov	r3, r0
4010253c:	4423      	add	r3, r4
/home/zhangxiang/Downloads/op-tee2/OP-TEE/bios_qemu_tz_arm/libfdt/fdt_rw.c:139
4010253e:	687a      	ldr	r2, [r7, #4]
40102540:	4413      	add	r3, r2
40102542:	60fb      	str	r3, [r7, #12]
/home/zhangxiang/Downloads/op-tee2/OP-TEE/bios_qemu_tz_arm/libfdt/fdt_rw.c:143
40102544:	683b      	ldr	r3, [r7, #0]
40102546:	f04f 0200 	mov.w	r2, #0
4010254a:	68f9      	ldr	r1, [r7, #12]
4010254c:	6878      	ldr	r0, [r7, #4]
4010254e:	f7ff ff13 	bl	40102378 <_fdt_splice>
40102552:	60b8      	str	r0, [r7, #8]
40102554:	68bb      	ldr	r3, [r7, #8]
40102556:	2b00      	cmp	r3, #0
40102558:	d001      	beq.n	4010255e <_fdt_splice_string+0x4a>
/home/zhangxiang/Downloads/op-tee2/OP-TEE/bios_qemu_tz_arm/libfdt/fdt_rw.c:144
4010255a:	68bb      	ldr	r3, [r7, #8]
4010255c:	e00d      	b.n	4010257a <_fdt_splice_string+0x66>
/home/zhangxiang/Downloads/op-tee2/OP-TEE/bios_qemu_tz_arm/libfdt/fdt_rw.c:146
4010255e:	687b      	ldr	r3, [r7, #4]
40102560:	6a1b      	ldr	r3, [r3, #32]
40102562:	4618      	mov	r0, r3
40102564:	f7ff fc2f 	bl	40101dc6 <fdt32_to_cpu>
40102568:	4602      	mov	r2, r0
4010256a:	683b      	ldr	r3, [r7, #0]
4010256c:	4413      	add	r3, r2
4010256e:	4619      	mov	r1, r3
40102570:	6878      	ldr	r0, [r7, #4]
40102572:	f7ff fdbe 	bl	401020f2 <fdt_set_size_dt_strings>
/home/zhangxiang/Downloads/op-tee2/OP-TEE/bios_qemu_tz_arm/libfdt/fdt_rw.c:147
40102576:	f04f 0300 	mov.w	r3, #0
/home/zhangxiang/Downloads/op-tee2/OP-TEE/bios_qemu_tz_arm/libfdt/fdt_rw.c:148
4010257a:	4618      	mov	r0, r3
4010257c:	f107 0714 	add.w	r7, r7, #20
40102580:	46bd      	mov	sp, r7
40102582:	e9dd 4700 	ldrd	r4, r7, [sp]
40102586:	b002      	add	sp, #8
40102588:	f85d fb04 	ldr.w	pc, [sp], #4

4010258c <_fdt_find_add_string>:
_fdt_find_add_string():
/home/zhangxiang/Downloads/op-tee2/OP-TEE/bios_qemu_tz_arm/libfdt/fdt_rw.c:151
4010258c:	e96d 7e02 	strd	r7, lr, [sp, #-8]!
40102590:	b088      	sub	sp, #32
40102592:	af00      	add	r7, sp, #0
40102594:	6078      	str	r0, [r7, #4]
40102596:	6039      	str	r1, [r7, #0]
/home/zhangxiang/Downloads/op-tee2/OP-TEE/bios_qemu_tz_arm/libfdt/fdt_rw.c:152
40102598:	687b      	ldr	r3, [r7, #4]
4010259a:	68db      	ldr	r3, [r3, #12]
4010259c:	4618      	mov	r0, r3
4010259e:	f7ff fc12 	bl	40101dc6 <fdt32_to_cpu>
401025a2:	4602      	mov	r2, r0
401025a4:	687b      	ldr	r3, [r7, #4]
401025a6:	4413      	add	r3, r2
401025a8:	61fb      	str	r3, [r7, #28]
/home/zhangxiang/Downloads/op-tee2/OP-TEE/bios_qemu_tz_arm/libfdt/fdt_rw.c:155
401025aa:	6838      	ldr	r0, [r7, #0]
401025ac:	f644 239d 	movw	r3, #19101	; 0x4a9d
401025b0:	f2c4 0310 	movt	r3, #16400	; 0x4010
401025b4:	4798      	blx	r3
401025b6:	4603      	mov	r3, r0
401025b8:	f103 0301 	add.w	r3, r3, #1
401025bc:	61bb      	str	r3, [r7, #24]
/home/zhangxiang/Downloads/op-tee2/OP-TEE/bios_qemu_tz_arm/libfdt/fdt_rw.c:158
401025be:	687b      	ldr	r3, [r7, #4]
401025c0:	6a1b      	ldr	r3, [r3, #32]
401025c2:	4618      	mov	r0, r3
401025c4:	f7ff fbff 	bl	40101dc6 <fdt32_to_cpu>
401025c8:	4603      	mov	r3, r0
401025ca:	683a      	ldr	r2, [r7, #0]
401025cc:	4619      	mov	r1, r3
401025ce:	69f8      	ldr	r0, [r7, #28]
401025d0:	f243 63cb 	movw	r3, #14027	; 0x36cb
401025d4:	f2c4 0310 	movt	r3, #16400	; 0x4010
401025d8:	4798      	blx	r3
401025da:	6178      	str	r0, [r7, #20]
/home/zhangxiang/Downloads/op-tee2/OP-TEE/bios_qemu_tz_arm/libfdt/fdt_rw.c:159
401025dc:	697b      	ldr	r3, [r7, #20]
401025de:	2b00      	cmp	r3, #0
401025e0:	d004      	beq.n	401025ec <_fdt_find_add_string+0x60>
/home/zhangxiang/Downloads/op-tee2/OP-TEE/bios_qemu_tz_arm/libfdt/fdt_rw.c:161
401025e2:	697a      	ldr	r2, [r7, #20]
401025e4:	69fb      	ldr	r3, [r7, #28]
401025e6:	eba2 0303 	sub.w	r3, r2, r3
401025ea:	e01f      	b.n	4010262c <_fdt_find_add_string+0xa0>
/home/zhangxiang/Downloads/op-tee2/OP-TEE/bios_qemu_tz_arm/libfdt/fdt_rw.c:163
401025ec:	687b      	ldr	r3, [r7, #4]
401025ee:	6a1b      	ldr	r3, [r3, #32]
401025f0:	4618      	mov	r0, r3
401025f2:	f7ff fbe8 	bl	40101dc6 <fdt32_to_cpu>
401025f6:	4602      	mov	r2, r0
401025f8:	69fb      	ldr	r3, [r7, #28]
401025fa:	4413      	add	r3, r2
401025fc:	613b      	str	r3, [r7, #16]
/home/zhangxiang/Downloads/op-tee2/OP-TEE/bios_qemu_tz_arm/libfdt/fdt_rw.c:164
401025fe:	69b9      	ldr	r1, [r7, #24]
40102600:	6878      	ldr	r0, [r7, #4]
40102602:	f7ff ff87 	bl	40102514 <_fdt_splice_string>
40102606:	60f8      	str	r0, [r7, #12]
/home/zhangxiang/Downloads/op-tee2/OP-TEE/bios_qemu_tz_arm/libfdt/fdt_rw.c:165
40102608:	68fb      	ldr	r3, [r7, #12]
4010260a:	2b00      	cmp	r3, #0
4010260c:	d001      	beq.n	40102612 <_fdt_find_add_string+0x86>
/home/zhangxiang/Downloads/op-tee2/OP-TEE/bios_qemu_tz_arm/libfdt/fdt_rw.c:166
4010260e:	68fb      	ldr	r3, [r7, #12]
40102610:	e00c      	b.n	4010262c <_fdt_find_add_string+0xa0>
/home/zhangxiang/Downloads/op-tee2/OP-TEE/bios_qemu_tz_arm/libfdt/fdt_rw.c:168
40102612:	69bb      	ldr	r3, [r7, #24]
40102614:	461a      	mov	r2, r3
40102616:	6839      	ldr	r1, [r7, #0]
40102618:	6938      	ldr	r0, [r7, #16]
4010261a:	f244 7351 	movw	r3, #18257	; 0x4751
4010261e:	f2c4 0310 	movt	r3, #16400	; 0x4010
40102622:	4798      	blx	r3
/home/zhangxiang/Downloads/op-tee2/OP-TEE/bios_qemu_tz_arm/libfdt/fdt_rw.c:169
40102624:	693a      	ldr	r2, [r7, #16]
40102626:	69fb      	ldr	r3, [r7, #28]
40102628:	eba2 0303 	sub.w	r3, r2, r3
/home/zhangxiang/Downloads/op-tee2/OP-TEE/bios_qemu_tz_arm/libfdt/fdt_rw.c:170
4010262c:	4618      	mov	r0, r3
4010262e:	f107 0720 	add.w	r7, r7, #32
40102632:	46bd      	mov	sp, r7
40102634:	bd80      	pop	{r7, pc}

40102636 <fdt_add_mem_rsv>:
fdt_add_mem_rsv():
/home/zhangxiang/Downloads/op-tee2/OP-TEE/bios_qemu_tz_arm/libfdt/fdt_rw.c:173
40102636:	f84d 4d0c 	str.w	r4, [sp, #-12]!
4010263a:	e9cd 7e01 	strd	r7, lr, [sp, #4]
4010263e:	b089      	sub	sp, #36	; 0x24
40102640:	af00      	add	r7, sp, #0
40102642:	60f8      	str	r0, [r7, #12]
40102644:	e9c7 2300 	strd	r2, r3, [r7]
/home/zhangxiang/Downloads/op-tee2/OP-TEE/bios_qemu_tz_arm/libfdt/fdt_rw.c:177
40102648:	68f8      	ldr	r0, [r7, #12]
4010264a:	f7ff fe36 	bl	401022ba <_fdt_rw_check_header>
4010264e:	61f8      	str	r0, [r7, #28]
40102650:	69fb      	ldr	r3, [r7, #28]
40102652:	2b00      	cmp	r3, #0
40102654:	d001      	beq.n	4010265a <fdt_add_mem_rsv+0x24>
/home/zhangxiang/Downloads/op-tee2/OP-TEE/bios_qemu_tz_arm/libfdt/fdt_rw.c:177 (discriminator 1)
40102656:	69fb      	ldr	r3, [r7, #28]
40102658:	e02d      	b.n	401026b6 <fdt_add_mem_rsv+0x80>
/home/zhangxiang/Downloads/op-tee2/OP-TEE/bios_qemu_tz_arm/libfdt/fdt_rw.c:179
4010265a:	68f8      	ldr	r0, [r7, #12]
4010265c:	f241 233f 	movw	r3, #4671	; 0x123f
40102660:	f2c4 0310 	movt	r3, #16400	; 0x4010
40102664:	4798      	blx	r3
40102666:	4603      	mov	r3, r0
40102668:	4619      	mov	r1, r3
4010266a:	68f8      	ldr	r0, [r7, #12]
4010266c:	f7ff fdc2 	bl	401021f4 <_fdt_mem_rsv_w>
40102670:	61b8      	str	r0, [r7, #24]
/home/zhangxiang/Downloads/op-tee2/OP-TEE/bios_qemu_tz_arm/libfdt/fdt_rw.c:180
40102672:	f04f 0301 	mov.w	r3, #1
40102676:	f04f 0200 	mov.w	r2, #0
4010267a:	69b9      	ldr	r1, [r7, #24]
4010267c:	68f8      	ldr	r0, [r7, #12]
4010267e:	f7ff fed2 	bl	40102426 <_fdt_splice_mem_rsv>
40102682:	6178      	str	r0, [r7, #20]
/home/zhangxiang/Downloads/op-tee2/OP-TEE/bios_qemu_tz_arm/libfdt/fdt_rw.c:181
40102684:	697b      	ldr	r3, [r7, #20]
40102686:	2b00      	cmp	r3, #0
40102688:	d001      	beq.n	4010268e <fdt_add_mem_rsv+0x58>
/home/zhangxiang/Downloads/op-tee2/OP-TEE/bios_qemu_tz_arm/libfdt/fdt_rw.c:182
4010268a:	697b      	ldr	r3, [r7, #20]
4010268c:	e013      	b.n	401026b6 <fdt_add_mem_rsv+0x80>
/home/zhangxiang/Downloads/op-tee2/OP-TEE/bios_qemu_tz_arm/libfdt/fdt_rw.c:184
4010268e:	e9d7 0100 	ldrd	r0, r1, [r7]
40102692:	f7ff fbec 	bl	40101e6e <cpu_to_fdt64>
40102696:	4603      	mov	r3, r0
40102698:	460c      	mov	r4, r1
4010269a:	69ba      	ldr	r2, [r7, #24]
4010269c:	e9c2 3400 	strd	r3, r4, [r2]
/home/zhangxiang/Downloads/op-tee2/OP-TEE/bios_qemu_tz_arm/libfdt/fdt_rw.c:185
401026a0:	e9d7 010c 	ldrd	r0, r1, [r7, #48]	; 0x30
401026a4:	f7ff fbe3 	bl	40101e6e <cpu_to_fdt64>
401026a8:	4603      	mov	r3, r0
401026aa:	460c      	mov	r4, r1
401026ac:	69ba      	ldr	r2, [r7, #24]
401026ae:	e9c2 3402 	strd	r3, r4, [r2, #8]
/home/zhangxiang/Downloads/op-tee2/OP-TEE/bios_qemu_tz_arm/libfdt/fdt_rw.c:186
401026b2:	f04f 0300 	mov.w	r3, #0
/home/zhangxiang/Downloads/op-tee2/OP-TEE/bios_qemu_tz_arm/libfdt/fdt_rw.c:187
401026b6:	4618      	mov	r0, r3
401026b8:	f107 0724 	add.w	r7, r7, #36	; 0x24
401026bc:	46bd      	mov	sp, r7
401026be:	e9dd 4700 	ldrd	r4, r7, [sp]
401026c2:	b002      	add	sp, #8
401026c4:	f85d fb04 	ldr.w	pc, [sp], #4

401026c8 <fdt_del_mem_rsv>:
fdt_del_mem_rsv():
/home/zhangxiang/Downloads/op-tee2/OP-TEE/bios_qemu_tz_arm/libfdt/fdt_rw.c:190
401026c8:	e96d 7e02 	strd	r7, lr, [sp, #-8]!
401026cc:	b086      	sub	sp, #24
401026ce:	af00      	add	r7, sp, #0
401026d0:	6078      	str	r0, [r7, #4]
401026d2:	6039      	str	r1, [r7, #0]
/home/zhangxiang/Downloads/op-tee2/OP-TEE/bios_qemu_tz_arm/libfdt/fdt_rw.c:191
401026d4:	6839      	ldr	r1, [r7, #0]
401026d6:	6878      	ldr	r0, [r7, #4]
401026d8:	f7ff fd8c 	bl	401021f4 <_fdt_mem_rsv_w>
401026dc:	6178      	str	r0, [r7, #20]
/home/zhangxiang/Downloads/op-tee2/OP-TEE/bios_qemu_tz_arm/libfdt/fdt_rw.c:194
401026de:	6878      	ldr	r0, [r7, #4]
401026e0:	f7ff fdeb 	bl	401022ba <_fdt_rw_check_header>
401026e4:	6138      	str	r0, [r7, #16]
401026e6:	693b      	ldr	r3, [r7, #16]
401026e8:	2b00      	cmp	r3, #0
401026ea:	d001      	beq.n	401026f0 <fdt_del_mem_rsv+0x28>
/home/zhangxiang/Downloads/op-tee2/OP-TEE/bios_qemu_tz_arm/libfdt/fdt_rw.c:194 (discriminator 1)
401026ec:	693b      	ldr	r3, [r7, #16]
401026ee:	e01c      	b.n	4010272a <fdt_del_mem_rsv+0x62>
/home/zhangxiang/Downloads/op-tee2/OP-TEE/bios_qemu_tz_arm/libfdt/fdt_rw.c:196
401026f0:	6878      	ldr	r0, [r7, #4]
401026f2:	f241 233f 	movw	r3, #4671	; 0x123f
401026f6:	f2c4 0310 	movt	r3, #16400	; 0x4010
401026fa:	4798      	blx	r3
401026fc:	4602      	mov	r2, r0
401026fe:	683b      	ldr	r3, [r7, #0]
40102700:	429a      	cmp	r2, r3
40102702:	dc02      	bgt.n	4010270a <fdt_del_mem_rsv+0x42>
/home/zhangxiang/Downloads/op-tee2/OP-TEE/bios_qemu_tz_arm/libfdt/fdt_rw.c:197
40102704:	f04f 33ff 	mov.w	r3, #4294967295	; 0xffffffff
40102708:	e00f      	b.n	4010272a <fdt_del_mem_rsv+0x62>
/home/zhangxiang/Downloads/op-tee2/OP-TEE/bios_qemu_tz_arm/libfdt/fdt_rw.c:199
4010270a:	f04f 0300 	mov.w	r3, #0
4010270e:	f04f 0201 	mov.w	r2, #1
40102712:	6979      	ldr	r1, [r7, #20]
40102714:	6878      	ldr	r0, [r7, #4]
40102716:	f7ff fe86 	bl	40102426 <_fdt_splice_mem_rsv>
4010271a:	60f8      	str	r0, [r7, #12]
/home/zhangxiang/Downloads/op-tee2/OP-TEE/bios_qemu_tz_arm/libfdt/fdt_rw.c:200
4010271c:	68fb      	ldr	r3, [r7, #12]
4010271e:	2b00      	cmp	r3, #0
40102720:	d001      	beq.n	40102726 <fdt_del_mem_rsv+0x5e>
/home/zhangxiang/Downloads/op-tee2/OP-TEE/bios_qemu_tz_arm/libfdt/fdt_rw.c:201
40102722:	68fb      	ldr	r3, [r7, #12]
40102724:	e001      	b.n	4010272a <fdt_del_mem_rsv+0x62>
/home/zhangxiang/Downloads/op-tee2/OP-TEE/bios_qemu_tz_arm/libfdt/fdt_rw.c:202
40102726:	f04f 0300 	mov.w	r3, #0
/home/zhangxiang/Downloads/op-tee2/OP-TEE/bios_qemu_tz_arm/libfdt/fdt_rw.c:203
4010272a:	4618      	mov	r0, r3
4010272c:	f107 0718 	add.w	r7, r7, #24
40102730:	46bd      	mov	sp, r7
40102732:	bd80      	pop	{r7, pc}

40102734 <_fdt_resize_property>:
_fdt_resize_property():
/home/zhangxiang/Downloads/op-tee2/OP-TEE/bios_qemu_tz_arm/libfdt/fdt_rw.c:207
40102734:	f84d 4d0c 	str.w	r4, [sp, #-12]!
40102738:	e9cd 7e01 	strd	r7, lr, [sp, #4]
4010273c:	b087      	sub	sp, #28
4010273e:	af00      	add	r7, sp, #0
40102740:	60f8      	str	r0, [r7, #12]
40102742:	60b9      	str	r1, [r7, #8]
40102744:	607a      	str	r2, [r7, #4]
40102746:	603b      	str	r3, [r7, #0]
/home/zhangxiang/Downloads/op-tee2/OP-TEE/bios_qemu_tz_arm/libfdt/fdt_rw.c:211
40102748:	f107 0310 	add.w	r3, r7, #16
4010274c:	687a      	ldr	r2, [r7, #4]
4010274e:	68b9      	ldr	r1, [r7, #8]
40102750:	68f8      	ldr	r0, [r7, #12]
40102752:	f7ff fcf4 	bl	4010213e <fdt_get_property_w>
40102756:	4602      	mov	r2, r0
40102758:	6abb      	ldr	r3, [r7, #40]	; 0x28
4010275a:	601a      	str	r2, [r3, #0]
/home/zhangxiang/Downloads/op-tee2/OP-TEE/bios_qemu_tz_arm/libfdt/fdt_rw.c:212
4010275c:	6abb      	ldr	r3, [r7, #40]	; 0x28
4010275e:	681b      	ldr	r3, [r3, #0]
40102760:	2b00      	cmp	r3, #0
40102762:	d101      	bne.n	40102768 <_fdt_resize_property+0x34>
/home/zhangxiang/Downloads/op-tee2/OP-TEE/bios_qemu_tz_arm/libfdt/fdt_rw.c:213
40102764:	693b      	ldr	r3, [r7, #16]
40102766:	e020      	b.n	401027aa <_fdt_resize_property+0x76>
/home/zhangxiang/Downloads/op-tee2/OP-TEE/bios_qemu_tz_arm/libfdt/fdt_rw.c:215
40102768:	6abb      	ldr	r3, [r7, #40]	; 0x28
4010276a:	681b      	ldr	r3, [r3, #0]
4010276c:	f103 010c 	add.w	r1, r3, #12
40102770:	693b      	ldr	r3, [r7, #16]
40102772:	f103 0303 	add.w	r3, r3, #3
40102776:	f023 0203 	bic.w	r2, r3, #3
/home/zhangxiang/Downloads/op-tee2/OP-TEE/bios_qemu_tz_arm/libfdt/fdt_rw.c:216
4010277a:	683b      	ldr	r3, [r7, #0]
4010277c:	f103 0303 	add.w	r3, r3, #3
/home/zhangxiang/Downloads/op-tee2/OP-TEE/bios_qemu_tz_arm/libfdt/fdt_rw.c:215
40102780:	f023 0303 	bic.w	r3, r3, #3
40102784:	68f8      	ldr	r0, [r7, #12]
40102786:	f7ff fe8d 	bl	401024a4 <_fdt_splice_struct>
4010278a:	6178      	str	r0, [r7, #20]
4010278c:	697b      	ldr	r3, [r7, #20]
4010278e:	2b00      	cmp	r3, #0
40102790:	d001      	beq.n	40102796 <_fdt_resize_property+0x62>
/home/zhangxiang/Downloads/op-tee2/OP-TEE/bios_qemu_tz_arm/libfdt/fdt_rw.c:217
40102792:	697b      	ldr	r3, [r7, #20]
40102794:	e009      	b.n	401027aa <_fdt_resize_property+0x76>
/home/zhangxiang/Downloads/op-tee2/OP-TEE/bios_qemu_tz_arm/libfdt/fdt_rw.c:219
40102796:	6abb      	ldr	r3, [r7, #40]	; 0x28
40102798:	681c      	ldr	r4, [r3, #0]
4010279a:	683b      	ldr	r3, [r7, #0]
4010279c:	4618      	mov	r0, r3
4010279e:	f7ff fb3c 	bl	40101e1a <cpu_to_fdt32>
401027a2:	4603      	mov	r3, r0
401027a4:	6063      	str	r3, [r4, #4]
/home/zhangxiang/Downloads/op-tee2/OP-TEE/bios_qemu_tz_arm/libfdt/fdt_rw.c:220
401027a6:	f04f 0300 	mov.w	r3, #0
/home/zhangxiang/Downloads/op-tee2/OP-TEE/bios_qemu_tz_arm/libfdt/fdt_rw.c:221 (discriminator 1)
401027aa:	4618      	mov	r0, r3
401027ac:	f107 071c 	add.w	r7, r7, #28
401027b0:	46bd      	mov	sp, r7
401027b2:	e9dd 4700 	ldrd	r4, r7, [sp]
401027b6:	b002      	add	sp, #8
401027b8:	f85d fb04 	ldr.w	pc, [sp], #4

401027bc <_fdt_add_property>:
_fdt_add_property():
/home/zhangxiang/Downloads/op-tee2/OP-TEE/bios_qemu_tz_arm/libfdt/fdt_rw.c:225
401027bc:	f84d 4d0c 	str.w	r4, [sp, #-12]!
401027c0:	e9cd 7e01 	strd	r7, lr, [sp, #4]
401027c4:	b089      	sub	sp, #36	; 0x24
401027c6:	af00      	add	r7, sp, #0
401027c8:	60f8      	str	r0, [r7, #12]
401027ca:	60b9      	str	r1, [r7, #8]
401027cc:	607a      	str	r2, [r7, #4]
401027ce:	603b      	str	r3, [r7, #0]
/home/zhangxiang/Downloads/op-tee2/OP-TEE/bios_qemu_tz_arm/libfdt/fdt_rw.c:231
401027d0:	68b9      	ldr	r1, [r7, #8]
401027d2:	68f8      	ldr	r0, [r7, #12]
401027d4:	f243 43e3 	movw	r3, #13539	; 0x34e3
401027d8:	f2c4 0310 	movt	r3, #16400	; 0x4010
401027dc:	4798      	blx	r3
401027de:	61f8      	str	r0, [r7, #28]
401027e0:	69fb      	ldr	r3, [r7, #28]
401027e2:	2b00      	cmp	r3, #0
401027e4:	da01      	bge.n	401027ea <_fdt_add_property+0x2e>
/home/zhangxiang/Downloads/op-tee2/OP-TEE/bios_qemu_tz_arm/libfdt/fdt_rw.c:232
401027e6:	69fb      	ldr	r3, [r7, #28]
401027e8:	e040      	b.n	4010286c <_fdt_add_property+0xb0>
/home/zhangxiang/Downloads/op-tee2/OP-TEE/bios_qemu_tz_arm/libfdt/fdt_rw.c:234
401027ea:	6879      	ldr	r1, [r7, #4]
401027ec:	68f8      	ldr	r0, [r7, #12]
401027ee:	f7ff fecd 	bl	4010258c <_fdt_find_add_string>
401027f2:	61b8      	str	r0, [r7, #24]
/home/zhangxiang/Downloads/op-tee2/OP-TEE/bios_qemu_tz_arm/libfdt/fdt_rw.c:235
401027f4:	69bb      	ldr	r3, [r7, #24]
401027f6:	2b00      	cmp	r3, #0
401027f8:	da01      	bge.n	401027fe <_fdt_add_property+0x42>
/home/zhangxiang/Downloads/op-tee2/OP-TEE/bios_qemu_tz_arm/libfdt/fdt_rw.c:236
401027fa:	69bb      	ldr	r3, [r7, #24]
401027fc:	e036      	b.n	4010286c <_fdt_add_property+0xb0>
/home/zhangxiang/Downloads/op-tee2/OP-TEE/bios_qemu_tz_arm/libfdt/fdt_rw.c:238
401027fe:	69f9      	ldr	r1, [r7, #28]
40102800:	68f8      	ldr	r0, [r7, #12]
40102802:	f7ff fcce 	bl	401021a2 <_fdt_offset_ptr_w>
40102806:	4602      	mov	r2, r0
40102808:	6b3b      	ldr	r3, [r7, #48]	; 0x30
4010280a:	601a      	str	r2, [r3, #0]
/home/zhangxiang/Downloads/op-tee2/OP-TEE/bios_qemu_tz_arm/libfdt/fdt_rw.c:239
4010280c:	683b      	ldr	r3, [r7, #0]
4010280e:	f103 0303 	add.w	r3, r3, #3
40102812:	f023 0303 	bic.w	r3, r3, #3
40102816:	f103 030c 	add.w	r3, r3, #12
4010281a:	617b      	str	r3, [r7, #20]
/home/zhangxiang/Downloads/op-tee2/OP-TEE/bios_qemu_tz_arm/libfdt/fdt_rw.c:241
4010281c:	6b3b      	ldr	r3, [r7, #48]	; 0x30
4010281e:	6819      	ldr	r1, [r3, #0]
40102820:	697b      	ldr	r3, [r7, #20]
40102822:	f04f 0200 	mov.w	r2, #0
40102826:	68f8      	ldr	r0, [r7, #12]
40102828:	f7ff fe3c 	bl	401024a4 <_fdt_splice_struct>
4010282c:	6138      	str	r0, [r7, #16]
/home/zhangxiang/Downloads/op-tee2/OP-TEE/bios_qemu_tz_arm/libfdt/fdt_rw.c:242
4010282e:	693b      	ldr	r3, [r7, #16]
40102830:	2b00      	cmp	r3, #0
40102832:	d001      	beq.n	40102838 <_fdt_add_property+0x7c>
/home/zhangxiang/Downloads/op-tee2/OP-TEE/bios_qemu_tz_arm/libfdt/fdt_rw.c:243
40102834:	693b      	ldr	r3, [r7, #16]
40102836:	e019      	b.n	4010286c <_fdt_add_property+0xb0>
/home/zhangxiang/Downloads/op-tee2/OP-TEE/bios_qemu_tz_arm/libfdt/fdt_rw.c:245
40102838:	6b3b      	ldr	r3, [r7, #48]	; 0x30
4010283a:	681c      	ldr	r4, [r3, #0]
4010283c:	f04f 0003 	mov.w	r0, #3
40102840:	f7ff faeb 	bl	40101e1a <cpu_to_fdt32>
40102844:	4603      	mov	r3, r0
40102846:	6023      	str	r3, [r4, #0]
/home/zhangxiang/Downloads/op-tee2/OP-TEE/bios_qemu_tz_arm/libfdt/fdt_rw.c:246
40102848:	6b3b      	ldr	r3, [r7, #48]	; 0x30
4010284a:	681c      	ldr	r4, [r3, #0]
4010284c:	69bb      	ldr	r3, [r7, #24]
4010284e:	4618      	mov	r0, r3
40102850:	f7ff fae3 	bl	40101e1a <cpu_to_fdt32>
40102854:	4603      	mov	r3, r0
40102856:	60a3      	str	r3, [r4, #8]
/home/zhangxiang/Downloads/op-tee2/OP-TEE/bios_qemu_tz_arm/libfdt/fdt_rw.c:247
40102858:	6b3b      	ldr	r3, [r7, #48]	; 0x30
4010285a:	681c      	ldr	r4, [r3, #0]
4010285c:	683b      	ldr	r3, [r7, #0]
4010285e:	4618      	mov	r0, r3
40102860:	f7ff fadb 	bl	40101e1a <cpu_to_fdt32>
40102864:	4603      	mov	r3, r0
40102866:	6063      	str	r3, [r4, #4]
/home/zhangxiang/Downloads/op-tee2/OP-TEE/bios_qemu_tz_arm/libfdt/fdt_rw.c:248
40102868:	f04f 0300 	mov.w	r3, #0
/home/zhangxiang/Downloads/op-tee2/OP-TEE/bios_qemu_tz_arm/libfdt/fdt_rw.c:249
4010286c:	4618      	mov	r0, r3
4010286e:	f107 0724 	add.w	r7, r7, #36	; 0x24
40102872:	46bd      	mov	sp, r7
40102874:	e9dd 4700 	ldrd	r4, r7, [sp]
40102878:	b002      	add	sp, #8
4010287a:	f85d fb04 	ldr.w	pc, [sp], #4

4010287e <fdt_set_name>:
fdt_set_name():
/home/zhangxiang/Downloads/op-tee2/OP-TEE/bios_qemu_tz_arm/libfdt/fdt_rw.c:252
4010287e:	e96d 7e02 	strd	r7, lr, [sp, #-8]!
40102882:	b08a      	sub	sp, #40	; 0x28
40102884:	af00      	add	r7, sp, #0
40102886:	60f8      	str	r0, [r7, #12]
40102888:	60b9      	str	r1, [r7, #8]
4010288a:	607a      	str	r2, [r7, #4]
/home/zhangxiang/Downloads/op-tee2/OP-TEE/bios_qemu_tz_arm/libfdt/fdt_rw.c:257
4010288c:	68f8      	ldr	r0, [r7, #12]
4010288e:	f7ff fd14 	bl	401022ba <_fdt_rw_check_header>
40102892:	6278      	str	r0, [r7, #36]	; 0x24
40102894:	6a7b      	ldr	r3, [r7, #36]	; 0x24
40102896:	2b00      	cmp	r3, #0
40102898:	d001      	beq.n	4010289e <fdt_set_name+0x20>
/home/zhangxiang/Downloads/op-tee2/OP-TEE/bios_qemu_tz_arm/libfdt/fdt_rw.c:257 (discriminator 1)
4010289a:	6a7b      	ldr	r3, [r7, #36]	; 0x24
4010289c:	e038      	b.n	40102910 <fdt_set_name+0x92>
/home/zhangxiang/Downloads/op-tee2/OP-TEE/bios_qemu_tz_arm/libfdt/fdt_rw.c:259
4010289e:	f107 0314 	add.w	r3, r7, #20
401028a2:	461a      	mov	r2, r3
401028a4:	68b9      	ldr	r1, [r7, #8]
401028a6:	68f8      	ldr	r0, [r7, #12]
401028a8:	f241 43a3 	movw	r3, #5283	; 0x14a3
401028ac:	f2c4 0310 	movt	r3, #16400	; 0x4010
401028b0:	4798      	blx	r3
401028b2:	6238      	str	r0, [r7, #32]
/home/zhangxiang/Downloads/op-tee2/OP-TEE/bios_qemu_tz_arm/libfdt/fdt_rw.c:260
401028b4:	6a3b      	ldr	r3, [r7, #32]
401028b6:	2b00      	cmp	r3, #0
401028b8:	d101      	bne.n	401028be <fdt_set_name+0x40>
/home/zhangxiang/Downloads/op-tee2/OP-TEE/bios_qemu_tz_arm/libfdt/fdt_rw.c:261
401028ba:	697b      	ldr	r3, [r7, #20]
401028bc:	e028      	b.n	40102910 <fdt_set_name+0x92>
/home/zhangxiang/Downloads/op-tee2/OP-TEE/bios_qemu_tz_arm/libfdt/fdt_rw.c:263
401028be:	6878      	ldr	r0, [r7, #4]
401028c0:	f644 239d 	movw	r3, #19101	; 0x4a9d
401028c4:	f2c4 0310 	movt	r3, #16400	; 0x4010
401028c8:	4798      	blx	r3
401028ca:	4603      	mov	r3, r0
401028cc:	61fb      	str	r3, [r7, #28]
/home/zhangxiang/Downloads/op-tee2/OP-TEE/bios_qemu_tz_arm/libfdt/fdt_rw.c:265
401028ce:	697b      	ldr	r3, [r7, #20]
401028d0:	f103 0304 	add.w	r3, r3, #4
401028d4:	f023 0203 	bic.w	r2, r3, #3
/home/zhangxiang/Downloads/op-tee2/OP-TEE/bios_qemu_tz_arm/libfdt/fdt_rw.c:266
401028d8:	69fb      	ldr	r3, [r7, #28]
401028da:	f103 0304 	add.w	r3, r3, #4
/home/zhangxiang/Downloads/op-tee2/OP-TEE/bios_qemu_tz_arm/libfdt/fdt_rw.c:265
401028de:	f023 0303 	bic.w	r3, r3, #3
401028e2:	6a39      	ldr	r1, [r7, #32]
401028e4:	68f8      	ldr	r0, [r7, #12]
401028e6:	f7ff fddd 	bl	401024a4 <_fdt_splice_struct>
401028ea:	61b8      	str	r0, [r7, #24]
/home/zhangxiang/Downloads/op-tee2/OP-TEE/bios_qemu_tz_arm/libfdt/fdt_rw.c:267
401028ec:	69bb      	ldr	r3, [r7, #24]
401028ee:	2b00      	cmp	r3, #0
401028f0:	d001      	beq.n	401028f6 <fdt_set_name+0x78>
/home/zhangxiang/Downloads/op-tee2/OP-TEE/bios_qemu_tz_arm/libfdt/fdt_rw.c:268
401028f2:	69bb      	ldr	r3, [r7, #24]
401028f4:	e00c      	b.n	40102910 <fdt_set_name+0x92>
/home/zhangxiang/Downloads/op-tee2/OP-TEE/bios_qemu_tz_arm/libfdt/fdt_rw.c:270
401028f6:	69fb      	ldr	r3, [r7, #28]
401028f8:	f103 0301 	add.w	r3, r3, #1
401028fc:	461a      	mov	r2, r3
401028fe:	6879      	ldr	r1, [r7, #4]
40102900:	6a38      	ldr	r0, [r7, #32]
40102902:	f244 7351 	movw	r3, #18257	; 0x4751
40102906:	f2c4 0310 	movt	r3, #16400	; 0x4010
4010290a:	4798      	blx	r3
/home/zhangxiang/Downloads/op-tee2/OP-TEE/bios_qemu_tz_arm/libfdt/fdt_rw.c:271
4010290c:	f04f 0300 	mov.w	r3, #0
/home/zhangxiang/Downloads/op-tee2/OP-TEE/bios_qemu_tz_arm/libfdt/fdt_rw.c:272 (discriminator 1)
40102910:	4618      	mov	r0, r3
40102912:	f107 0728 	add.w	r7, r7, #40	; 0x28
40102916:	46bd      	mov	sp, r7
40102918:	bd80      	pop	{r7, pc}

4010291a <fdt_setprop>:
fdt_setprop():
/home/zhangxiang/Downloads/op-tee2/OP-TEE/bios_qemu_tz_arm/libfdt/fdt_rw.c:276
4010291a:	e96d 7e02 	strd	r7, lr, [sp, #-8]!
4010291e:	b08a      	sub	sp, #40	; 0x28
40102920:	af02      	add	r7, sp, #8
40102922:	60f8      	str	r0, [r7, #12]
40102924:	60b9      	str	r1, [r7, #8]
40102926:	607a      	str	r2, [r7, #4]
40102928:	603b      	str	r3, [r7, #0]
/home/zhangxiang/Downloads/op-tee2/OP-TEE/bios_qemu_tz_arm/libfdt/fdt_rw.c:280
4010292a:	68f8      	ldr	r0, [r7, #12]
4010292c:	f7ff fcc5 	bl	401022ba <_fdt_rw_check_header>
40102930:	61b8      	str	r0, [r7, #24]
40102932:	69bb      	ldr	r3, [r7, #24]
40102934:	2b00      	cmp	r3, #0
40102936:	d001      	beq.n	4010293c <fdt_setprop+0x22>
/home/zhangxiang/Downloads/op-tee2/OP-TEE/bios_qemu_tz_arm/libfdt/fdt_rw.c:280 (discriminator 1)
40102938:	69bb      	ldr	r3, [r7, #24]
4010293a:	e029      	b.n	40102990 <fdt_setprop+0x76>
/home/zhangxiang/Downloads/op-tee2/OP-TEE/bios_qemu_tz_arm/libfdt/fdt_rw.c:282
4010293c:	f107 0314 	add.w	r3, r7, #20
40102940:	9300      	str	r3, [sp, #0]
40102942:	6abb      	ldr	r3, [r7, #40]	; 0x28
40102944:	687a      	ldr	r2, [r7, #4]
40102946:	68b9      	ldr	r1, [r7, #8]
40102948:	68f8      	ldr	r0, [r7, #12]
4010294a:	f7ff fef3 	bl	40102734 <_fdt_resize_property>
4010294e:	61f8      	str	r0, [r7, #28]
/home/zhangxiang/Downloads/op-tee2/OP-TEE/bios_qemu_tz_arm/libfdt/fdt_rw.c:283
40102950:	69fb      	ldr	r3, [r7, #28]
40102952:	f1b3 3fff 	cmp.w	r3, #4294967295	; 0xffffffff
40102956:	d109      	bne.n	4010296c <fdt_setprop+0x52>
/home/zhangxiang/Downloads/op-tee2/OP-TEE/bios_qemu_tz_arm/libfdt/fdt_rw.c:284
40102958:	f107 0314 	add.w	r3, r7, #20
4010295c:	9300      	str	r3, [sp, #0]
4010295e:	6abb      	ldr	r3, [r7, #40]	; 0x28
40102960:	687a      	ldr	r2, [r7, #4]
40102962:	68b9      	ldr	r1, [r7, #8]
40102964:	68f8      	ldr	r0, [r7, #12]
40102966:	f7ff ff29 	bl	401027bc <_fdt_add_property>
4010296a:	61f8      	str	r0, [r7, #28]
/home/zhangxiang/Downloads/op-tee2/OP-TEE/bios_qemu_tz_arm/libfdt/fdt_rw.c:285
4010296c:	69fb      	ldr	r3, [r7, #28]
4010296e:	2b00      	cmp	r3, #0
40102970:	d001      	beq.n	40102976 <fdt_setprop+0x5c>
/home/zhangxiang/Downloads/op-tee2/OP-TEE/bios_qemu_tz_arm/libfdt/fdt_rw.c:286
40102972:	69fb      	ldr	r3, [r7, #28]
40102974:	e00c      	b.n	40102990 <fdt_setprop+0x76>
/home/zhangxiang/Downloads/op-tee2/OP-TEE/bios_qemu_tz_arm/libfdt/fdt_rw.c:288
40102976:	697b      	ldr	r3, [r7, #20]
40102978:	f103 030c 	add.w	r3, r3, #12
4010297c:	6aba      	ldr	r2, [r7, #40]	; 0x28
4010297e:	6839      	ldr	r1, [r7, #0]
40102980:	4618      	mov	r0, r3
40102982:	f244 7351 	movw	r3, #18257	; 0x4751
40102986:	f2c4 0310 	movt	r3, #16400	; 0x4010
4010298a:	4798      	blx	r3
/home/zhangxiang/Downloads/op-tee2/OP-TEE/bios_qemu_tz_arm/libfdt/fdt_rw.c:289
4010298c:	f04f 0300 	mov.w	r3, #0
/home/zhangxiang/Downloads/op-tee2/OP-TEE/bios_qemu_tz_arm/libfdt/fdt_rw.c:290 (discriminator 1)
40102990:	4618      	mov	r0, r3
40102992:	f107 0720 	add.w	r7, r7, #32
40102996:	46bd      	mov	sp, r7
40102998:	bd80      	pop	{r7, pc}

4010299a <fdt_appendprop>:
fdt_appendprop():
/home/zhangxiang/Downloads/op-tee2/OP-TEE/bios_qemu_tz_arm/libfdt/fdt_rw.c:294
4010299a:	f84d 4d0c 	str.w	r4, [sp, #-12]!
4010299e:	e9cd 7e01 	strd	r7, lr, [sp, #4]
401029a2:	b08d      	sub	sp, #52	; 0x34
401029a4:	af02      	add	r7, sp, #8
401029a6:	60f8      	str	r0, [r7, #12]
401029a8:	60b9      	str	r1, [r7, #8]
401029aa:	607a      	str	r2, [r7, #4]
401029ac:	603b      	str	r3, [r7, #0]
/home/zhangxiang/Downloads/op-tee2/OP-TEE/bios_qemu_tz_arm/libfdt/fdt_rw.c:298
401029ae:	68f8      	ldr	r0, [r7, #12]
401029b0:	f7ff fc83 	bl	401022ba <_fdt_rw_check_header>
401029b4:	6278      	str	r0, [r7, #36]	; 0x24
401029b6:	6a7b      	ldr	r3, [r7, #36]	; 0x24
401029b8:	2b00      	cmp	r3, #0
401029ba:	d001      	beq.n	401029c0 <fdt_appendprop+0x26>
/home/zhangxiang/Downloads/op-tee2/OP-TEE/bios_qemu_tz_arm/libfdt/fdt_rw.c:298 (discriminator 1)
401029bc:	6a7b      	ldr	r3, [r7, #36]	; 0x24
401029be:	e056      	b.n	40102a6e <fdt_appendprop+0xd4>
/home/zhangxiang/Downloads/op-tee2/OP-TEE/bios_qemu_tz_arm/libfdt/fdt_rw.c:300
401029c0:	f107 0314 	add.w	r3, r7, #20
401029c4:	687a      	ldr	r2, [r7, #4]
401029c6:	68b9      	ldr	r1, [r7, #8]
401029c8:	68f8      	ldr	r0, [r7, #12]
401029ca:	f7ff fbb8 	bl	4010213e <fdt_get_property_w>
401029ce:	4603      	mov	r3, r0
401029d0:	61bb      	str	r3, [r7, #24]
/home/zhangxiang/Downloads/op-tee2/OP-TEE/bios_qemu_tz_arm/libfdt/fdt_rw.c:301
401029d2:	69bb      	ldr	r3, [r7, #24]
401029d4:	2b00      	cmp	r3, #0
401029d6:	d02e      	beq.n	40102a36 <fdt_appendprop+0x9c>
/home/zhangxiang/Downloads/op-tee2/OP-TEE/bios_qemu_tz_arm/libfdt/fdt_rw.c:302
401029d8:	697b      	ldr	r3, [r7, #20]
401029da:	6bba      	ldr	r2, [r7, #56]	; 0x38
401029dc:	4413      	add	r3, r2
401029de:	623b      	str	r3, [r7, #32]
/home/zhangxiang/Downloads/op-tee2/OP-TEE/bios_qemu_tz_arm/libfdt/fdt_rw.c:303
401029e0:	69bb      	ldr	r3, [r7, #24]
401029e2:	f103 010c 	add.w	r1, r3, #12
/home/zhangxiang/Downloads/op-tee2/OP-TEE/bios_qemu_tz_arm/libfdt/fdt_rw.c:304
401029e6:	697b      	ldr	r3, [r7, #20]
401029e8:	f103 0303 	add.w	r3, r3, #3
/home/zhangxiang/Downloads/op-tee2/OP-TEE/bios_qemu_tz_arm/libfdt/fdt_rw.c:303
401029ec:	f023 0203 	bic.w	r2, r3, #3
/home/zhangxiang/Downloads/op-tee2/OP-TEE/bios_qemu_tz_arm/libfdt/fdt_rw.c:305
401029f0:	6a3b      	ldr	r3, [r7, #32]
401029f2:	f103 0303 	add.w	r3, r3, #3
/home/zhangxiang/Downloads/op-tee2/OP-TEE/bios_qemu_tz_arm/libfdt/fdt_rw.c:303
401029f6:	f023 0303 	bic.w	r3, r3, #3
401029fa:	68f8      	ldr	r0, [r7, #12]
401029fc:	f7ff fd52 	bl	401024a4 <_fdt_splice_struct>
40102a00:	61f8      	str	r0, [r7, #28]
/home/zhangxiang/Downloads/op-tee2/OP-TEE/bios_qemu_tz_arm/libfdt/fdt_rw.c:306
40102a02:	69fb      	ldr	r3, [r7, #28]
40102a04:	2b00      	cmp	r3, #0
40102a06:	d001      	beq.n	40102a0c <fdt_appendprop+0x72>
/home/zhangxiang/Downloads/op-tee2/OP-TEE/bios_qemu_tz_arm/libfdt/fdt_rw.c:307
40102a08:	69fb      	ldr	r3, [r7, #28]
40102a0a:	e030      	b.n	40102a6e <fdt_appendprop+0xd4>
/home/zhangxiang/Downloads/op-tee2/OP-TEE/bios_qemu_tz_arm/libfdt/fdt_rw.c:308
40102a0c:	69bc      	ldr	r4, [r7, #24]
40102a0e:	6a3b      	ldr	r3, [r7, #32]
40102a10:	4618      	mov	r0, r3
40102a12:	f7ff fa02 	bl	40101e1a <cpu_to_fdt32>
40102a16:	4603      	mov	r3, r0
40102a18:	6063      	str	r3, [r4, #4]
/home/zhangxiang/Downloads/op-tee2/OP-TEE/bios_qemu_tz_arm/libfdt/fdt_rw.c:309
40102a1a:	69bb      	ldr	r3, [r7, #24]
40102a1c:	f103 030c 	add.w	r3, r3, #12
40102a20:	697a      	ldr	r2, [r7, #20]
40102a22:	4413      	add	r3, r2
40102a24:	6bba      	ldr	r2, [r7, #56]	; 0x38
40102a26:	6839      	ldr	r1, [r7, #0]
40102a28:	4618      	mov	r0, r3
40102a2a:	f244 7351 	movw	r3, #18257	; 0x4751
40102a2e:	f2c4 0310 	movt	r3, #16400	; 0x4010
40102a32:	4798      	blx	r3
40102a34:	e019      	b.n	40102a6a <fdt_appendprop+0xd0>
/home/zhangxiang/Downloads/op-tee2/OP-TEE/bios_qemu_tz_arm/libfdt/fdt_rw.c:311
40102a36:	f107 0318 	add.w	r3, r7, #24
40102a3a:	9300      	str	r3, [sp, #0]
40102a3c:	6bbb      	ldr	r3, [r7, #56]	; 0x38
40102a3e:	687a      	ldr	r2, [r7, #4]
40102a40:	68b9      	ldr	r1, [r7, #8]
40102a42:	68f8      	ldr	r0, [r7, #12]
40102a44:	f7ff feba 	bl	401027bc <_fdt_add_property>
40102a48:	61f8      	str	r0, [r7, #28]
/home/zhangxiang/Downloads/op-tee2/OP-TEE/bios_qemu_tz_arm/libfdt/fdt_rw.c:312
40102a4a:	69fb      	ldr	r3, [r7, #28]
40102a4c:	2b00      	cmp	r3, #0
40102a4e:	d001      	beq.n	40102a54 <fdt_appendprop+0xba>
/home/zhangxiang/Downloads/op-tee2/OP-TEE/bios_qemu_tz_arm/libfdt/fdt_rw.c:313
40102a50:	69fb      	ldr	r3, [r7, #28]
40102a52:	e00c      	b.n	40102a6e <fdt_appendprop+0xd4>
/home/zhangxiang/Downloads/op-tee2/OP-TEE/bios_qemu_tz_arm/libfdt/fdt_rw.c:314
40102a54:	69bb      	ldr	r3, [r7, #24]
40102a56:	f103 030c 	add.w	r3, r3, #12
40102a5a:	6bba      	ldr	r2, [r7, #56]	; 0x38
40102a5c:	6839      	ldr	r1, [r7, #0]
40102a5e:	4618      	mov	r0, r3
40102a60:	f244 7351 	movw	r3, #18257	; 0x4751
40102a64:	f2c4 0310 	movt	r3, #16400	; 0x4010
40102a68:	4798      	blx	r3
/home/zhangxiang/Downloads/op-tee2/OP-TEE/bios_qemu_tz_arm/libfdt/fdt_rw.c:316
40102a6a:	f04f 0300 	mov.w	r3, #0
/home/zhangxiang/Downloads/op-tee2/OP-TEE/bios_qemu_tz_arm/libfdt/fdt_rw.c:317 (discriminator 1)
40102a6e:	4618      	mov	r0, r3
40102a70:	f107 072c 	add.w	r7, r7, #44	; 0x2c
40102a74:	46bd      	mov	sp, r7
40102a76:	e9dd 4700 	ldrd	r4, r7, [sp]
40102a7a:	b002      	add	sp, #8
40102a7c:	f85d fb04 	ldr.w	pc, [sp], #4

40102a80 <fdt_delprop>:
fdt_delprop():
/home/zhangxiang/Downloads/op-tee2/OP-TEE/bios_qemu_tz_arm/libfdt/fdt_rw.c:320
40102a80:	e96d 7e02 	strd	r7, lr, [sp, #-8]!
40102a84:	b088      	sub	sp, #32
40102a86:	af00      	add	r7, sp, #0
40102a88:	60f8      	str	r0, [r7, #12]
40102a8a:	60b9      	str	r1, [r7, #8]
40102a8c:	607a      	str	r2, [r7, #4]
/home/zhangxiang/Downloads/op-tee2/OP-TEE/bios_qemu_tz_arm/libfdt/fdt_rw.c:324
40102a8e:	68f8      	ldr	r0, [r7, #12]
40102a90:	f7ff fc13 	bl	401022ba <_fdt_rw_check_header>
40102a94:	61f8      	str	r0, [r7, #28]
40102a96:	69fb      	ldr	r3, [r7, #28]
40102a98:	2b00      	cmp	r3, #0
40102a9a:	d001      	beq.n	40102aa0 <fdt_delprop+0x20>
/home/zhangxiang/Downloads/op-tee2/OP-TEE/bios_qemu_tz_arm/libfdt/fdt_rw.c:324 (discriminator 1)
40102a9c:	69fb      	ldr	r3, [r7, #28]
40102a9e:	e01c      	b.n	40102ada <fdt_delprop+0x5a>
/home/zhangxiang/Downloads/op-tee2/OP-TEE/bios_qemu_tz_arm/libfdt/fdt_rw.c:326
40102aa0:	f107 0310 	add.w	r3, r7, #16
40102aa4:	687a      	ldr	r2, [r7, #4]
40102aa6:	68b9      	ldr	r1, [r7, #8]
40102aa8:	68f8      	ldr	r0, [r7, #12]
40102aaa:	f7ff fb48 	bl	4010213e <fdt_get_property_w>
40102aae:	61b8      	str	r0, [r7, #24]
/home/zhangxiang/Downloads/op-tee2/OP-TEE/bios_qemu_tz_arm/libfdt/fdt_rw.c:327
40102ab0:	69bb      	ldr	r3, [r7, #24]
40102ab2:	2b00      	cmp	r3, #0
40102ab4:	d101      	bne.n	40102aba <fdt_delprop+0x3a>
/home/zhangxiang/Downloads/op-tee2/OP-TEE/bios_qemu_tz_arm/libfdt/fdt_rw.c:328
40102ab6:	693b      	ldr	r3, [r7, #16]
40102ab8:	e00f      	b.n	40102ada <fdt_delprop+0x5a>
/home/zhangxiang/Downloads/op-tee2/OP-TEE/bios_qemu_tz_arm/libfdt/fdt_rw.c:330
40102aba:	693b      	ldr	r3, [r7, #16]
40102abc:	f103 0303 	add.w	r3, r3, #3
40102ac0:	f023 0303 	bic.w	r3, r3, #3
40102ac4:	f103 030c 	add.w	r3, r3, #12
40102ac8:	617b      	str	r3, [r7, #20]
/home/zhangxiang/Downloads/op-tee2/OP-TEE/bios_qemu_tz_arm/libfdt/fdt_rw.c:331
40102aca:	f04f 0300 	mov.w	r3, #0
40102ace:	697a      	ldr	r2, [r7, #20]
40102ad0:	69b9      	ldr	r1, [r7, #24]
40102ad2:	68f8      	ldr	r0, [r7, #12]
40102ad4:	f7ff fce6 	bl	401024a4 <_fdt_splice_struct>
40102ad8:	4603      	mov	r3, r0
/home/zhangxiang/Downloads/op-tee2/OP-TEE/bios_qemu_tz_arm/libfdt/fdt_rw.c:332 (discriminator 1)
40102ada:	4618      	mov	r0, r3
40102adc:	f107 0720 	add.w	r7, r7, #32
40102ae0:	46bd      	mov	sp, r7
40102ae2:	bd80      	pop	{r7, pc}

40102ae4 <fdt_add_subnode_namelen>:
fdt_add_subnode_namelen():
/home/zhangxiang/Downloads/op-tee2/OP-TEE/bios_qemu_tz_arm/libfdt/fdt_rw.c:336
40102ae4:	f84d 4d0c 	str.w	r4, [sp, #-12]!
40102ae8:	e9cd 7e01 	strd	r7, lr, [sp, #4]
40102aec:	b08d      	sub	sp, #52	; 0x34
40102aee:	af00      	add	r7, sp, #0
40102af0:	60f8      	str	r0, [r7, #12]
40102af2:	60b9      	str	r1, [r7, #8]
40102af4:	607a      	str	r2, [r7, #4]
40102af6:	603b      	str	r3, [r7, #0]
/home/zhangxiang/Downloads/op-tee2/OP-TEE/bios_qemu_tz_arm/libfdt/fdt_rw.c:344
40102af8:	68f8      	ldr	r0, [r7, #12]
40102afa:	f7ff fbde 	bl	401022ba <_fdt_rw_check_header>
40102afe:	62f8      	str	r0, [r7, #44]	; 0x2c
40102b00:	6afb      	ldr	r3, [r7, #44]	; 0x2c
40102b02:	2b00      	cmp	r3, #0
40102b04:	d001      	beq.n	40102b0a <fdt_add_subnode_namelen+0x26>
/home/zhangxiang/Downloads/op-tee2/OP-TEE/bios_qemu_tz_arm/libfdt/fdt_rw.c:344 (discriminator 1)
40102b06:	6afb      	ldr	r3, [r7, #44]	; 0x2c
40102b08:	e07c      	b.n	40102c04 <fdt_add_subnode_namelen+0x120>
/home/zhangxiang/Downloads/op-tee2/OP-TEE/bios_qemu_tz_arm/libfdt/fdt_rw.c:346
40102b0a:	683b      	ldr	r3, [r7, #0]
40102b0c:	687a      	ldr	r2, [r7, #4]
40102b0e:	68b9      	ldr	r1, [r7, #8]
40102b10:	68f8      	ldr	r0, [r7, #12]
40102b12:	f241 24e7 	movw	r4, #4839	; 0x12e7
40102b16:	f2c4 0410 	movt	r4, #16400	; 0x4010
40102b1a:	47a0      	blx	r4
40102b1c:	62b8      	str	r0, [r7, #40]	; 0x28
/home/zhangxiang/Downloads/op-tee2/OP-TEE/bios_qemu_tz_arm/libfdt/fdt_rw.c:347
40102b1e:	6abb      	ldr	r3, [r7, #40]	; 0x28
40102b20:	2b00      	cmp	r3, #0
40102b22:	db02      	blt.n	40102b2a <fdt_add_subnode_namelen+0x46>
/home/zhangxiang/Downloads/op-tee2/OP-TEE/bios_qemu_tz_arm/libfdt/fdt_rw.c:348
40102b24:	f06f 0301 	mvn.w	r3, #1
40102b28:	e06c      	b.n	40102c04 <fdt_add_subnode_namelen+0x120>
/home/zhangxiang/Downloads/op-tee2/OP-TEE/bios_qemu_tz_arm/libfdt/fdt_rw.c:349
40102b2a:	6abb      	ldr	r3, [r7, #40]	; 0x28
40102b2c:	f1b3 3fff 	cmp.w	r3, #4294967295	; 0xffffffff
40102b30:	d001      	beq.n	40102b36 <fdt_add_subnode_namelen+0x52>
/home/zhangxiang/Downloads/op-tee2/OP-TEE/bios_qemu_tz_arm/libfdt/fdt_rw.c:350
40102b32:	6abb      	ldr	r3, [r7, #40]	; 0x28
40102b34:	e066      	b.n	40102c04 <fdt_add_subnode_namelen+0x120>
/home/zhangxiang/Downloads/op-tee2/OP-TEE/bios_qemu_tz_arm/libfdt/fdt_rw.c:353
40102b36:	f107 0310 	add.w	r3, r7, #16
40102b3a:	461a      	mov	r2, r3
40102b3c:	68b9      	ldr	r1, [r7, #8]
40102b3e:	68f8      	ldr	r0, [r7, #12]
40102b40:	f243 33b7 	movw	r3, #13239	; 0x33b7
40102b44:	f2c4 0310 	movt	r3, #16400	; 0x4010
40102b48:	4798      	blx	r3
/home/zhangxiang/Downloads/op-tee2/OP-TEE/bios_qemu_tz_arm/libfdt/fdt_rw.c:355 (discriminator 3)
40102b4a:	693b      	ldr	r3, [r7, #16]
40102b4c:	62bb      	str	r3, [r7, #40]	; 0x28
/home/zhangxiang/Downloads/op-tee2/OP-TEE/bios_qemu_tz_arm/libfdt/fdt_rw.c:356 (discriminator 3)
40102b4e:	f107 0310 	add.w	r3, r7, #16
40102b52:	461a      	mov	r2, r3
40102b54:	6ab9      	ldr	r1, [r7, #40]	; 0x28
40102b56:	68f8      	ldr	r0, [r7, #12]
40102b58:	f243 33b7 	movw	r3, #13239	; 0x33b7
40102b5c:	f2c4 0310 	movt	r3, #16400	; 0x4010
40102b60:	4798      	blx	r3
40102b62:	6278      	str	r0, [r7, #36]	; 0x24
/home/zhangxiang/Downloads/op-tee2/OP-TEE/bios_qemu_tz_arm/libfdt/fdt_rw.c:357 (discriminator 3)
40102b64:	6a7b      	ldr	r3, [r7, #36]	; 0x24
40102b66:	2b03      	cmp	r3, #3
40102b68:	d0ef      	beq.n	40102b4a <fdt_add_subnode_namelen+0x66>
/home/zhangxiang/Downloads/op-tee2/OP-TEE/bios_qemu_tz_arm/libfdt/fdt_rw.c:357 (discriminator 2)
40102b6a:	6a7b      	ldr	r3, [r7, #36]	; 0x24
40102b6c:	2b04      	cmp	r3, #4
40102b6e:	d0ec      	beq.n	40102b4a <fdt_add_subnode_namelen+0x66>
/home/zhangxiang/Downloads/op-tee2/OP-TEE/bios_qemu_tz_arm/libfdt/fdt_rw.c:359
40102b70:	6ab9      	ldr	r1, [r7, #40]	; 0x28
40102b72:	68f8      	ldr	r0, [r7, #12]
40102b74:	f7ff fb15 	bl	401021a2 <_fdt_offset_ptr_w>
40102b78:	6238      	str	r0, [r7, #32]
/home/zhangxiang/Downloads/op-tee2/OP-TEE/bios_qemu_tz_arm/libfdt/fdt_rw.c:360
40102b7a:	683b      	ldr	r3, [r7, #0]
40102b7c:	f103 0304 	add.w	r3, r3, #4
40102b80:	f023 0303 	bic.w	r3, r3, #3
40102b84:	f103 0308 	add.w	r3, r3, #8
40102b88:	61fb      	str	r3, [r7, #28]
/home/zhangxiang/Downloads/op-tee2/OP-TEE/bios_qemu_tz_arm/libfdt/fdt_rw.c:362
40102b8a:	69fb      	ldr	r3, [r7, #28]
40102b8c:	f04f 0200 	mov.w	r2, #0
40102b90:	6a39      	ldr	r1, [r7, #32]
40102b92:	68f8      	ldr	r0, [r7, #12]
40102b94:	f7ff fc86 	bl	401024a4 <_fdt_splice_struct>
40102b98:	61b8      	str	r0, [r7, #24]
/home/zhangxiang/Downloads/op-tee2/OP-TEE/bios_qemu_tz_arm/libfdt/fdt_rw.c:363
40102b9a:	69bb      	ldr	r3, [r7, #24]
40102b9c:	2b00      	cmp	r3, #0
40102b9e:	d001      	beq.n	40102ba4 <fdt_add_subnode_namelen+0xc0>
/home/zhangxiang/Downloads/op-tee2/OP-TEE/bios_qemu_tz_arm/libfdt/fdt_rw.c:364
40102ba0:	69bb      	ldr	r3, [r7, #24]
40102ba2:	e02f      	b.n	40102c04 <fdt_add_subnode_namelen+0x120>
/home/zhangxiang/Downloads/op-tee2/OP-TEE/bios_qemu_tz_arm/libfdt/fdt_rw.c:366
40102ba4:	f04f 0001 	mov.w	r0, #1
40102ba8:	f7ff f937 	bl	40101e1a <cpu_to_fdt32>
40102bac:	4602      	mov	r2, r0
40102bae:	6a3b      	ldr	r3, [r7, #32]
40102bb0:	601a      	str	r2, [r3, #0]
/home/zhangxiang/Downloads/op-tee2/OP-TEE/bios_qemu_tz_arm/libfdt/fdt_rw.c:367
40102bb2:	6a3b      	ldr	r3, [r7, #32]
40102bb4:	f103 0004 	add.w	r0, r3, #4
40102bb8:	683b      	ldr	r3, [r7, #0]
40102bba:	f103 0304 	add.w	r3, r3, #4
40102bbe:	f023 0303 	bic.w	r3, r3, #3
40102bc2:	461a      	mov	r2, r3
40102bc4:	f04f 0100 	mov.w	r1, #0
40102bc8:	f644 1381 	movw	r3, #18817	; 0x4981
40102bcc:	f2c4 0310 	movt	r3, #16400	; 0x4010
40102bd0:	4798      	blx	r3
/home/zhangxiang/Downloads/op-tee2/OP-TEE/bios_qemu_tz_arm/libfdt/fdt_rw.c:368
40102bd2:	6a3b      	ldr	r3, [r7, #32]
40102bd4:	f103 0304 	add.w	r3, r3, #4
40102bd8:	683a      	ldr	r2, [r7, #0]
40102bda:	6879      	ldr	r1, [r7, #4]
40102bdc:	4618      	mov	r0, r3
40102bde:	f244 7351 	movw	r3, #18257	; 0x4751
40102be2:	f2c4 0310 	movt	r3, #16400	; 0x4010
40102be6:	4798      	blx	r3
/home/zhangxiang/Downloads/op-tee2/OP-TEE/bios_qemu_tz_arm/libfdt/fdt_rw.c:369
40102be8:	69fb      	ldr	r3, [r7, #28]
40102bea:	f1a3 0304 	sub.w	r3, r3, #4
40102bee:	6a3a      	ldr	r2, [r7, #32]
40102bf0:	4413      	add	r3, r2
40102bf2:	617b      	str	r3, [r7, #20]
/home/zhangxiang/Downloads/op-tee2/OP-TEE/bios_qemu_tz_arm/libfdt/fdt_rw.c:370
40102bf4:	f04f 0002 	mov.w	r0, #2
40102bf8:	f7ff f90f 	bl	40101e1a <cpu_to_fdt32>
40102bfc:	4602      	mov	r2, r0
40102bfe:	697b      	ldr	r3, [r7, #20]
40102c00:	601a      	str	r2, [r3, #0]
/home/zhangxiang/Downloads/op-tee2/OP-TEE/bios_qemu_tz_arm/libfdt/fdt_rw.c:372
40102c02:	6abb      	ldr	r3, [r7, #40]	; 0x28
/home/zhangxiang/Downloads/op-tee2/OP-TEE/bios_qemu_tz_arm/libfdt/fdt_rw.c:373 (discriminator 1)
40102c04:	4618      	mov	r0, r3
40102c06:	f107 0734 	add.w	r7, r7, #52	; 0x34
40102c0a:	46bd      	mov	sp, r7
40102c0c:	e9dd 4700 	ldrd	r4, r7, [sp]
40102c10:	b002      	add	sp, #8
40102c12:	f85d fb04 	ldr.w	pc, [sp], #4

40102c16 <fdt_add_subnode>:
fdt_add_subnode():
/home/zhangxiang/Downloads/op-tee2/OP-TEE/bios_qemu_tz_arm/libfdt/fdt_rw.c:376
40102c16:	e96d 7e02 	strd	r7, lr, [sp, #-8]!
40102c1a:	b084      	sub	sp, #16
40102c1c:	af00      	add	r7, sp, #0
40102c1e:	60f8      	str	r0, [r7, #12]
40102c20:	60b9      	str	r1, [r7, #8]
40102c22:	607a      	str	r2, [r7, #4]
/home/zhangxiang/Downloads/op-tee2/OP-TEE/bios_qemu_tz_arm/libfdt/fdt_rw.c:377
40102c24:	6878      	ldr	r0, [r7, #4]
40102c26:	f644 239d 	movw	r3, #19101	; 0x4a9d
40102c2a:	f2c4 0310 	movt	r3, #16400	; 0x4010
40102c2e:	4798      	blx	r3
40102c30:	4603      	mov	r3, r0
40102c32:	687a      	ldr	r2, [r7, #4]
40102c34:	68b9      	ldr	r1, [r7, #8]
40102c36:	68f8      	ldr	r0, [r7, #12]
40102c38:	f7ff ff54 	bl	40102ae4 <fdt_add_subnode_namelen>
40102c3c:	4603      	mov	r3, r0
/home/zhangxiang/Downloads/op-tee2/OP-TEE/bios_qemu_tz_arm/libfdt/fdt_rw.c:378
40102c3e:	4618      	mov	r0, r3
40102c40:	f107 0710 	add.w	r7, r7, #16
40102c44:	46bd      	mov	sp, r7
40102c46:	bd80      	pop	{r7, pc}

40102c48 <fdt_del_node>:
fdt_del_node():
/home/zhangxiang/Downloads/op-tee2/OP-TEE/bios_qemu_tz_arm/libfdt/fdt_rw.c:381
40102c48:	e96d 7e02 	strd	r7, lr, [sp, #-8]!
40102c4c:	b084      	sub	sp, #16
40102c4e:	af00      	add	r7, sp, #0
40102c50:	6078      	str	r0, [r7, #4]
40102c52:	6039      	str	r1, [r7, #0]
/home/zhangxiang/Downloads/op-tee2/OP-TEE/bios_qemu_tz_arm/libfdt/fdt_rw.c:384
40102c54:	6878      	ldr	r0, [r7, #4]
40102c56:	f7ff fb30 	bl	401022ba <_fdt_rw_check_header>
40102c5a:	60f8      	str	r0, [r7, #12]
40102c5c:	68fb      	ldr	r3, [r7, #12]
40102c5e:	2b00      	cmp	r3, #0
40102c60:	d001      	beq.n	40102c66 <fdt_del_node+0x1e>
/home/zhangxiang/Downloads/op-tee2/OP-TEE/bios_qemu_tz_arm/libfdt/fdt_rw.c:384 (discriminator 1)
40102c62:	68fb      	ldr	r3, [r7, #12]
40102c64:	e01b      	b.n	40102c9e <fdt_del_node+0x56>
/home/zhangxiang/Downloads/op-tee2/OP-TEE/bios_qemu_tz_arm/libfdt/fdt_rw.c:386
40102c66:	6839      	ldr	r1, [r7, #0]
40102c68:	6878      	ldr	r0, [r7, #4]
40102c6a:	f243 13a1 	movw	r3, #12705	; 0x31a1
40102c6e:	f2c4 0310 	movt	r3, #16400	; 0x4010
40102c72:	4798      	blx	r3
40102c74:	60b8      	str	r0, [r7, #8]
/home/zhangxiang/Downloads/op-tee2/OP-TEE/bios_qemu_tz_arm/libfdt/fdt_rw.c:387
40102c76:	68bb      	ldr	r3, [r7, #8]
40102c78:	2b00      	cmp	r3, #0
40102c7a:	da01      	bge.n	40102c80 <fdt_del_node+0x38>
/home/zhangxiang/Downloads/op-tee2/OP-TEE/bios_qemu_tz_arm/libfdt/fdt_rw.c:388
40102c7c:	68bb      	ldr	r3, [r7, #8]
40102c7e:	e00e      	b.n	40102c9e <fdt_del_node+0x56>
/home/zhangxiang/Downloads/op-tee2/OP-TEE/bios_qemu_tz_arm/libfdt/fdt_rw.c:390
40102c80:	6839      	ldr	r1, [r7, #0]
40102c82:	6878      	ldr	r0, [r7, #4]
40102c84:	f7ff fa8d 	bl	401021a2 <_fdt_offset_ptr_w>
40102c88:	4601      	mov	r1, r0
40102c8a:	68ba      	ldr	r2, [r7, #8]
40102c8c:	683b      	ldr	r3, [r7, #0]
40102c8e:	eba2 0203 	sub.w	r2, r2, r3
40102c92:	f04f 0300 	mov.w	r3, #0
40102c96:	6878      	ldr	r0, [r7, #4]
40102c98:	f7ff fc04 	bl	401024a4 <_fdt_splice_struct>
40102c9c:	4603      	mov	r3, r0
/home/zhangxiang/Downloads/op-tee2/OP-TEE/bios_qemu_tz_arm/libfdt/fdt_rw.c:392
40102c9e:	4618      	mov	r0, r3
40102ca0:	f107 0710 	add.w	r7, r7, #16
40102ca4:	46bd      	mov	sp, r7
40102ca6:	bd80      	pop	{r7, pc}

40102ca8 <_fdt_packblocks>:
_fdt_packblocks():
/home/zhangxiang/Downloads/op-tee2/OP-TEE/bios_qemu_tz_arm/libfdt/fdt_rw.c:396
40102ca8:	e96d 4504 	strd	r4, r5, [sp, #-16]!
40102cac:	e9cd 7e02 	strd	r7, lr, [sp, #8]
40102cb0:	b088      	sub	sp, #32
40102cb2:	af00      	add	r7, sp, #0
40102cb4:	60f8      	str	r0, [r7, #12]
40102cb6:	60b9      	str	r1, [r7, #8]
40102cb8:	607a      	str	r2, [r7, #4]
40102cba:	603b      	str	r3, [r7, #0]
/home/zhangxiang/Downloads/op-tee2/OP-TEE/bios_qemu_tz_arm/libfdt/fdt_rw.c:399
40102cbc:	f04f 0328 	mov.w	r3, #40	; 0x28
40102cc0:	61fb      	str	r3, [r7, #28]
/home/zhangxiang/Downloads/op-tee2/OP-TEE/bios_qemu_tz_arm/libfdt/fdt_rw.c:400
40102cc2:	69fa      	ldr	r2, [r7, #28]
40102cc4:	687b      	ldr	r3, [r7, #4]
40102cc6:	4413      	add	r3, r2
40102cc8:	61bb      	str	r3, [r7, #24]
/home/zhangxiang/Downloads/op-tee2/OP-TEE/bios_qemu_tz_arm/libfdt/fdt_rw.c:401
40102cca:	69ba      	ldr	r2, [r7, #24]
40102ccc:	683b      	ldr	r3, [r7, #0]
40102cce:	4413      	add	r3, r2
40102cd0:	617b      	str	r3, [r7, #20]
/home/zhangxiang/Downloads/op-tee2/OP-TEE/bios_qemu_tz_arm/libfdt/fdt_rw.c:403
40102cd2:	69fb      	ldr	r3, [r7, #28]
40102cd4:	68ba      	ldr	r2, [r7, #8]
40102cd6:	eb02 0403 	add.w	r4, r2, r3
40102cda:	68fb      	ldr	r3, [r7, #12]
40102cdc:	691b      	ldr	r3, [r3, #16]
40102cde:	4618      	mov	r0, r3
40102ce0:	f7ff f871 	bl	40101dc6 <fdt32_to_cpu>
40102ce4:	4602      	mov	r2, r0
40102ce6:	68fb      	ldr	r3, [r7, #12]
40102ce8:	4413      	add	r3, r2
40102cea:	687a      	ldr	r2, [r7, #4]
40102cec:	4619      	mov	r1, r3
40102cee:	4620      	mov	r0, r4
40102cf0:	f644 0343 	movw	r3, #18499	; 0x4843
40102cf4:	f2c4 0310 	movt	r3, #16400	; 0x4010
40102cf8:	4798      	blx	r3
/home/zhangxiang/Downloads/op-tee2/OP-TEE/bios_qemu_tz_arm/libfdt/fdt_rw.c:404
40102cfa:	69fb      	ldr	r3, [r7, #28]
40102cfc:	4619      	mov	r1, r3
40102cfe:	68b8      	ldr	r0, [r7, #8]
40102d00:	f7ff f9ab 	bl	4010205a <fdt_set_off_mem_rsvmap>
/home/zhangxiang/Downloads/op-tee2/OP-TEE/bios_qemu_tz_arm/libfdt/fdt_rw.c:406
40102d04:	69bb      	ldr	r3, [r7, #24]
40102d06:	68ba      	ldr	r2, [r7, #8]
40102d08:	eb02 0403 	add.w	r4, r2, r3
40102d0c:	68fb      	ldr	r3, [r7, #12]
40102d0e:	689b      	ldr	r3, [r3, #8]
40102d10:	4618      	mov	r0, r3
40102d12:	f7ff f858 	bl	40101dc6 <fdt32_to_cpu>
40102d16:	4602      	mov	r2, r0
40102d18:	68fb      	ldr	r3, [r7, #12]
40102d1a:	4413      	add	r3, r2
40102d1c:	683a      	ldr	r2, [r7, #0]
40102d1e:	4619      	mov	r1, r3
40102d20:	4620      	mov	r0, r4
40102d22:	f644 0343 	movw	r3, #18499	; 0x4843
40102d26:	f2c4 0310 	movt	r3, #16400	; 0x4010
40102d2a:	4798      	blx	r3
/home/zhangxiang/Downloads/op-tee2/OP-TEE/bios_qemu_tz_arm/libfdt/fdt_rw.c:407
40102d2c:	69bb      	ldr	r3, [r7, #24]
40102d2e:	4619      	mov	r1, r3
40102d30:	68b8      	ldr	r0, [r7, #8]
40102d32:	f7ff f96c 	bl	4010200e <fdt_set_off_dt_struct>
/home/zhangxiang/Downloads/op-tee2/OP-TEE/bios_qemu_tz_arm/libfdt/fdt_rw.c:408
40102d36:	683b      	ldr	r3, [r7, #0]
40102d38:	4619      	mov	r1, r3
40102d3a:	68b8      	ldr	r0, [r7, #8]
40102d3c:	f7ff f9ec 	bl	40102118 <fdt_set_size_dt_struct>
/home/zhangxiang/Downloads/op-tee2/OP-TEE/bios_qemu_tz_arm/libfdt/fdt_rw.c:410
40102d40:	697b      	ldr	r3, [r7, #20]
40102d42:	68ba      	ldr	r2, [r7, #8]
40102d44:	eb02 0403 	add.w	r4, r2, r3
40102d48:	68fb      	ldr	r3, [r7, #12]
40102d4a:	68db      	ldr	r3, [r3, #12]
40102d4c:	4618      	mov	r0, r3
40102d4e:	f7ff f83a 	bl	40101dc6 <fdt32_to_cpu>
40102d52:	4602      	mov	r2, r0
40102d54:	68fb      	ldr	r3, [r7, #12]
40102d56:	eb03 0502 	add.w	r5, r3, r2
40102d5a:	68fb      	ldr	r3, [r7, #12]
40102d5c:	6a1b      	ldr	r3, [r3, #32]
40102d5e:	4618      	mov	r0, r3
40102d60:	f7ff f831 	bl	40101dc6 <fdt32_to_cpu>
40102d64:	4603      	mov	r3, r0
40102d66:	461a      	mov	r2, r3
40102d68:	4629      	mov	r1, r5
40102d6a:	4620      	mov	r0, r4
40102d6c:	f644 0343 	movw	r3, #18499	; 0x4843
40102d70:	f2c4 0310 	movt	r3, #16400	; 0x4010
40102d74:	4798      	blx	r3
/home/zhangxiang/Downloads/op-tee2/OP-TEE/bios_qemu_tz_arm/libfdt/fdt_rw.c:412
40102d76:	697b      	ldr	r3, [r7, #20]
40102d78:	4619      	mov	r1, r3
40102d7a:	68b8      	ldr	r0, [r7, #8]
40102d7c:	f7ff f95a 	bl	40102034 <fdt_set_off_dt_strings>
/home/zhangxiang/Downloads/op-tee2/OP-TEE/bios_qemu_tz_arm/libfdt/fdt_rw.c:413
40102d80:	68fb      	ldr	r3, [r7, #12]
40102d82:	6a1b      	ldr	r3, [r3, #32]
40102d84:	4618      	mov	r0, r3
40102d86:	f7ff f81e 	bl	40101dc6 <fdt32_to_cpu>
40102d8a:	4603      	mov	r3, r0
40102d8c:	4619      	mov	r1, r3
40102d8e:	68b8      	ldr	r0, [r7, #8]
40102d90:	f7ff f9af 	bl	401020f2 <fdt_set_size_dt_strings>
/home/zhangxiang/Downloads/op-tee2/OP-TEE/bios_qemu_tz_arm/libfdt/fdt_rw.c:414
40102d94:	bf00      	nop
40102d96:	f107 0720 	add.w	r7, r7, #32
40102d9a:	46bd      	mov	sp, r7
40102d9c:	e9dd 4500 	ldrd	r4, r5, [sp]
40102da0:	b002      	add	sp, #8
40102da2:	bd80      	pop	{r7, pc}

40102da4 <fdt_open_into>:
fdt_open_into():
/home/zhangxiang/Downloads/op-tee2/OP-TEE/bios_qemu_tz_arm/libfdt/fdt_rw.c:417
40102da4:	f84d 4d0c 	str.w	r4, [sp, #-12]!
40102da8:	e9cd 7e01 	strd	r7, lr, [sp, #4]
40102dac:	b08d      	sub	sp, #52	; 0x34
40102dae:	af00      	add	r7, sp, #0
40102db0:	60f8      	str	r0, [r7, #12]
40102db2:	60b9      	str	r1, [r7, #8]
40102db4:	607a      	str	r2, [r7, #4]
/home/zhangxiang/Downloads/op-tee2/OP-TEE/bios_qemu_tz_arm/libfdt/fdt_rw.c:421
40102db6:	68fb      	ldr	r3, [r7, #12]
40102db8:	62bb      	str	r3, [r7, #40]	; 0x28
/home/zhangxiang/Downloads/op-tee2/OP-TEE/bios_qemu_tz_arm/libfdt/fdt_rw.c:422
40102dba:	68fb      	ldr	r3, [r7, #12]
40102dbc:	685b      	ldr	r3, [r3, #4]
40102dbe:	4618      	mov	r0, r3
40102dc0:	f7ff f801 	bl	40101dc6 <fdt32_to_cpu>
40102dc4:	4602      	mov	r2, r0
40102dc6:	6abb      	ldr	r3, [r7, #40]	; 0x28
40102dc8:	4413      	add	r3, r2
40102dca:	627b      	str	r3, [r7, #36]	; 0x24
/home/zhangxiang/Downloads/op-tee2/OP-TEE/bios_qemu_tz_arm/libfdt/fdt_rw.c:425
40102dcc:	68f8      	ldr	r0, [r7, #12]
40102dce:	f243 23ab 	movw	r3, #12971	; 0x32ab
40102dd2:	f2c4 0310 	movt	r3, #16400	; 0x4010
40102dd6:	4798      	blx	r3
40102dd8:	6238      	str	r0, [r7, #32]
40102dda:	6a3b      	ldr	r3, [r7, #32]
40102ddc:	2b00      	cmp	r3, #0
40102dde:	d001      	beq.n	40102de4 <fdt_open_into+0x40>
/home/zhangxiang/Downloads/op-tee2/OP-TEE/bios_qemu_tz_arm/libfdt/fdt_rw.c:425 (discriminator 1)
40102de0:	6a3b      	ldr	r3, [r7, #32]
40102de2:	e0b9      	b.n	40102f58 <fdt_open_into+0x1b4>
/home/zhangxiang/Downloads/op-tee2/OP-TEE/bios_qemu_tz_arm/libfdt/fdt_rw.c:427
40102de4:	68f8      	ldr	r0, [r7, #12]
40102de6:	f241 233f 	movw	r3, #4671	; 0x123f
40102dea:	f2c4 0310 	movt	r3, #16400	; 0x4010
40102dee:	4798      	blx	r3
40102df0:	4603      	mov	r3, r0
40102df2:	f103 0301 	add.w	r3, r3, #1
/home/zhangxiang/Downloads/op-tee2/OP-TEE/bios_qemu_tz_arm/libfdt/fdt_rw.c:428
40102df6:	ea4f 1303 	mov.w	r3, r3, lsl #4
/home/zhangxiang/Downloads/op-tee2/OP-TEE/bios_qemu_tz_arm/libfdt/fdt_rw.c:427
40102dfa:	61fb      	str	r3, [r7, #28]
/home/zhangxiang/Downloads/op-tee2/OP-TEE/bios_qemu_tz_arm/libfdt/fdt_rw.c:430
40102dfc:	68fb      	ldr	r3, [r7, #12]
40102dfe:	695b      	ldr	r3, [r3, #20]
40102e00:	4618      	mov	r0, r3
40102e02:	f7fe ffe0 	bl	40101dc6 <fdt32_to_cpu>
40102e06:	4603      	mov	r3, r0
40102e08:	2b10      	cmp	r3, #16
40102e0a:	d907      	bls.n	40102e1c <fdt_open_into+0x78>
/home/zhangxiang/Downloads/op-tee2/OP-TEE/bios_qemu_tz_arm/libfdt/fdt_rw.c:431
40102e0c:	68fb      	ldr	r3, [r7, #12]
40102e0e:	6a5b      	ldr	r3, [r3, #36]	; 0x24
40102e10:	4618      	mov	r0, r3
40102e12:	f7fe ffd8 	bl	40101dc6 <fdt32_to_cpu>
40102e16:	4603      	mov	r3, r0
40102e18:	613b      	str	r3, [r7, #16]
40102e1a:	e015      	b.n	40102e48 <fdt_open_into+0xa4>
/home/zhangxiang/Downloads/op-tee2/OP-TEE/bios_qemu_tz_arm/libfdt/fdt_rw.c:433
40102e1c:	f04f 0300 	mov.w	r3, #0
40102e20:	613b      	str	r3, [r7, #16]
/home/zhangxiang/Downloads/op-tee2/OP-TEE/bios_qemu_tz_arm/libfdt/fdt_rw.c:434
40102e22:	bf00      	nop
/home/zhangxiang/Downloads/op-tee2/OP-TEE/bios_qemu_tz_arm/libfdt/fdt_rw.c:434 (discriminator 1)
40102e24:	693b      	ldr	r3, [r7, #16]
40102e26:	f107 0210 	add.w	r2, r7, #16
40102e2a:	4619      	mov	r1, r3
40102e2c:	68f8      	ldr	r0, [r7, #12]
40102e2e:	f243 33b7 	movw	r3, #13239	; 0x33b7
40102e32:	f2c4 0310 	movt	r3, #16400	; 0x4010
40102e36:	4798      	blx	r3
40102e38:	4603      	mov	r3, r0
40102e3a:	2b09      	cmp	r3, #9
40102e3c:	d1f2      	bne.n	40102e24 <fdt_open_into+0x80>
/home/zhangxiang/Downloads/op-tee2/OP-TEE/bios_qemu_tz_arm/libfdt/fdt_rw.c:436
40102e3e:	693b      	ldr	r3, [r7, #16]
40102e40:	2b00      	cmp	r3, #0
40102e42:	da01      	bge.n	40102e48 <fdt_open_into+0xa4>
/home/zhangxiang/Downloads/op-tee2/OP-TEE/bios_qemu_tz_arm/libfdt/fdt_rw.c:437
40102e44:	693b      	ldr	r3, [r7, #16]
40102e46:	e087      	b.n	40102f58 <fdt_open_into+0x1b4>
/home/zhangxiang/Downloads/op-tee2/OP-TEE/bios_qemu_tz_arm/libfdt/fdt_rw.c:440
40102e48:	693b      	ldr	r3, [r7, #16]
40102e4a:	461a      	mov	r2, r3
40102e4c:	69f9      	ldr	r1, [r7, #28]
40102e4e:	68f8      	ldr	r0, [r7, #12]
40102e50:	f7ff f9e0 	bl	40102214 <_fdt_blocks_misordered>
40102e54:	4603      	mov	r3, r0
40102e56:	2b00      	cmp	r3, #0
40102e58:	d11f      	bne.n	40102e9a <fdt_open_into+0xf6>
/home/zhangxiang/Downloads/op-tee2/OP-TEE/bios_qemu_tz_arm/libfdt/fdt_rw.c:442
40102e5a:	687a      	ldr	r2, [r7, #4]
40102e5c:	68b9      	ldr	r1, [r7, #8]
40102e5e:	68f8      	ldr	r0, [r7, #12]
40102e60:	f243 733b 	movw	r3, #14139	; 0x373b
40102e64:	f2c4 0310 	movt	r3, #16400	; 0x4010
40102e68:	4798      	blx	r3
40102e6a:	61b8      	str	r0, [r7, #24]
/home/zhangxiang/Downloads/op-tee2/OP-TEE/bios_qemu_tz_arm/libfdt/fdt_rw.c:443
40102e6c:	69bb      	ldr	r3, [r7, #24]
40102e6e:	2b00      	cmp	r3, #0
40102e70:	d001      	beq.n	40102e76 <fdt_open_into+0xd2>
/home/zhangxiang/Downloads/op-tee2/OP-TEE/bios_qemu_tz_arm/libfdt/fdt_rw.c:444
40102e72:	69bb      	ldr	r3, [r7, #24]
40102e74:	e070      	b.n	40102f58 <fdt_open_into+0x1b4>
/home/zhangxiang/Downloads/op-tee2/OP-TEE/bios_qemu_tz_arm/libfdt/fdt_rw.c:445
40102e76:	f04f 0111 	mov.w	r1, #17
40102e7a:	68b8      	ldr	r0, [r7, #8]
40102e7c:	f7ff f900 	bl	40102080 <fdt_set_version>
/home/zhangxiang/Downloads/op-tee2/OP-TEE/bios_qemu_tz_arm/libfdt/fdt_rw.c:446
40102e80:	693b      	ldr	r3, [r7, #16]
40102e82:	4619      	mov	r1, r3
40102e84:	68b8      	ldr	r0, [r7, #8]
40102e86:	f7ff f947 	bl	40102118 <fdt_set_size_dt_struct>
/home/zhangxiang/Downloads/op-tee2/OP-TEE/bios_qemu_tz_arm/libfdt/fdt_rw.c:447
40102e8a:	687b      	ldr	r3, [r7, #4]
40102e8c:	4619      	mov	r1, r3
40102e8e:	68b8      	ldr	r0, [r7, #8]
40102e90:	f7ff f8aa 	bl	40101fe8 <fdt_set_totalsize>
/home/zhangxiang/Downloads/op-tee2/OP-TEE/bios_qemu_tz_arm/libfdt/fdt_rw.c:448
40102e94:	f04f 0300 	mov.w	r3, #0
40102e98:	e05e      	b.n	40102f58 <fdt_open_into+0x1b4>
/home/zhangxiang/Downloads/op-tee2/OP-TEE/bios_qemu_tz_arm/libfdt/fdt_rw.c:453
40102e9a:	69fb      	ldr	r3, [r7, #28]
40102e9c:	693a      	ldr	r2, [r7, #16]
40102e9e:	eb03 0402 	add.w	r4, r3, r2
40102ea2:	68fb      	ldr	r3, [r7, #12]
40102ea4:	6a1b      	ldr	r3, [r3, #32]
40102ea6:	4618      	mov	r0, r3
40102ea8:	f7fe ff8d 	bl	40101dc6 <fdt32_to_cpu>
40102eac:	4603      	mov	r3, r0
40102eae:	4423      	add	r3, r4
40102eb0:	f103 0328 	add.w	r3, r3, #40	; 0x28
/home/zhangxiang/Downloads/op-tee2/OP-TEE/bios_qemu_tz_arm/libfdt/fdt_rw.c:452
40102eb4:	617b      	str	r3, [r7, #20]
/home/zhangxiang/Downloads/op-tee2/OP-TEE/bios_qemu_tz_arm/libfdt/fdt_rw.c:455
40102eb6:	687a      	ldr	r2, [r7, #4]
40102eb8:	697b      	ldr	r3, [r7, #20]
40102eba:	429a      	cmp	r2, r3
40102ebc:	da02      	bge.n	40102ec4 <fdt_open_into+0x120>
/home/zhangxiang/Downloads/op-tee2/OP-TEE/bios_qemu_tz_arm/libfdt/fdt_rw.c:456
40102ebe:	f06f 0302 	mvn.w	r3, #2
40102ec2:	e049      	b.n	40102f58 <fdt_open_into+0x1b4>
/home/zhangxiang/Downloads/op-tee2/OP-TEE/bios_qemu_tz_arm/libfdt/fdt_rw.c:459
40102ec4:	68bb      	ldr	r3, [r7, #8]
40102ec6:	62fb      	str	r3, [r7, #44]	; 0x2c
/home/zhangxiang/Downloads/op-tee2/OP-TEE/bios_qemu_tz_arm/libfdt/fdt_rw.c:461
40102ec8:	697b      	ldr	r3, [r7, #20]
40102eca:	6afa      	ldr	r2, [r7, #44]	; 0x2c
40102ecc:	441a      	add	r2, r3
40102ece:	6abb      	ldr	r3, [r7, #40]	; 0x28
40102ed0:	429a      	cmp	r2, r3
40102ed2:	d910      	bls.n	40102ef6 <fdt_open_into+0x152>
/home/zhangxiang/Downloads/op-tee2/OP-TEE/bios_qemu_tz_arm/libfdt/fdt_rw.c:461 (discriminator 1)
40102ed4:	6afa      	ldr	r2, [r7, #44]	; 0x2c
40102ed6:	6a7b      	ldr	r3, [r7, #36]	; 0x24
40102ed8:	429a      	cmp	r2, r3
40102eda:	d20c      	bcs.n	40102ef6 <fdt_open_into+0x152>
/home/zhangxiang/Downloads/op-tee2/OP-TEE/bios_qemu_tz_arm/libfdt/fdt_rw.c:463
40102edc:	6a7b      	ldr	r3, [r7, #36]	; 0x24
40102ede:	62fb      	str	r3, [r7, #44]	; 0x2c
/home/zhangxiang/Downloads/op-tee2/OP-TEE/bios_qemu_tz_arm/libfdt/fdt_rw.c:464
40102ee0:	697b      	ldr	r3, [r7, #20]
40102ee2:	6afa      	ldr	r2, [r7, #44]	; 0x2c
40102ee4:	441a      	add	r2, r3
40102ee6:	687b      	ldr	r3, [r7, #4]
40102ee8:	68b9      	ldr	r1, [r7, #8]
40102eea:	440b      	add	r3, r1
40102eec:	429a      	cmp	r2, r3
40102eee:	d902      	bls.n	40102ef6 <fdt_open_into+0x152>
/home/zhangxiang/Downloads/op-tee2/OP-TEE/bios_qemu_tz_arm/libfdt/fdt_rw.c:465
40102ef0:	f06f 0302 	mvn.w	r3, #2
40102ef4:	e030      	b.n	40102f58 <fdt_open_into+0x1b4>
/home/zhangxiang/Downloads/op-tee2/OP-TEE/bios_qemu_tz_arm/libfdt/fdt_rw.c:468
40102ef6:	693b      	ldr	r3, [r7, #16]
40102ef8:	69fa      	ldr	r2, [r7, #28]
40102efa:	6af9      	ldr	r1, [r7, #44]	; 0x2c
40102efc:	68f8      	ldr	r0, [r7, #12]
40102efe:	f7ff fed3 	bl	40102ca8 <_fdt_packblocks>
/home/zhangxiang/Downloads/op-tee2/OP-TEE/bios_qemu_tz_arm/libfdt/fdt_rw.c:469
40102f02:	697b      	ldr	r3, [r7, #20]
40102f04:	461a      	mov	r2, r3
40102f06:	6af9      	ldr	r1, [r7, #44]	; 0x2c
40102f08:	68b8      	ldr	r0, [r7, #8]
40102f0a:	f644 0343 	movw	r3, #18499	; 0x4843
40102f0e:	f2c4 0310 	movt	r3, #16400	; 0x4010
40102f12:	4798      	blx	r3
/home/zhangxiang/Downloads/op-tee2/OP-TEE/bios_qemu_tz_arm/libfdt/fdt_rw.c:471
40102f14:	f64f 61ed 	movw	r1, #65261	; 0xfeed
40102f18:	f2cd 010d 	movt	r1, #53261	; 0xd00d
40102f1c:	68b8      	ldr	r0, [r7, #8]
40102f1e:	f7ff f850 	bl	40101fc2 <fdt_set_magic>
/home/zhangxiang/Downloads/op-tee2/OP-TEE/bios_qemu_tz_arm/libfdt/fdt_rw.c:472
40102f22:	687b      	ldr	r3, [r7, #4]
40102f24:	4619      	mov	r1, r3
40102f26:	68b8      	ldr	r0, [r7, #8]
40102f28:	f7ff f85e 	bl	40101fe8 <fdt_set_totalsize>
/home/zhangxiang/Downloads/op-tee2/OP-TEE/bios_qemu_tz_arm/libfdt/fdt_rw.c:473
40102f2c:	f04f 0111 	mov.w	r1, #17
40102f30:	68b8      	ldr	r0, [r7, #8]
40102f32:	f7ff f8a5 	bl	40102080 <fdt_set_version>
/home/zhangxiang/Downloads/op-tee2/OP-TEE/bios_qemu_tz_arm/libfdt/fdt_rw.c:474
40102f36:	f04f 0110 	mov.w	r1, #16
40102f3a:	68b8      	ldr	r0, [r7, #8]
40102f3c:	f7ff f8b3 	bl	401020a6 <fdt_set_last_comp_version>
/home/zhangxiang/Downloads/op-tee2/OP-TEE/bios_qemu_tz_arm/libfdt/fdt_rw.c:475
40102f40:	68fb      	ldr	r3, [r7, #12]
40102f42:	69db      	ldr	r3, [r3, #28]
40102f44:	4618      	mov	r0, r3
40102f46:	f7fe ff3e 	bl	40101dc6 <fdt32_to_cpu>
40102f4a:	4603      	mov	r3, r0
40102f4c:	4619      	mov	r1, r3
40102f4e:	68b8      	ldr	r0, [r7, #8]
40102f50:	f7ff f8bc 	bl	401020cc <fdt_set_boot_cpuid_phys>
/home/zhangxiang/Downloads/op-tee2/OP-TEE/bios_qemu_tz_arm/libfdt/fdt_rw.c:477
40102f54:	f04f 0300 	mov.w	r3, #0
/home/zhangxiang/Downloads/op-tee2/OP-TEE/bios_qemu_tz_arm/libfdt/fdt_rw.c:478 (discriminator 1)
40102f58:	4618      	mov	r0, r3
40102f5a:	f107 0734 	add.w	r7, r7, #52	; 0x34
40102f5e:	46bd      	mov	sp, r7
40102f60:	e9dd 4700 	ldrd	r4, r7, [sp]
40102f64:	b002      	add	sp, #8
40102f66:	f85d fb04 	ldr.w	pc, [sp], #4

40102f6a <fdt_pack>:
fdt_pack():
/home/zhangxiang/Downloads/op-tee2/OP-TEE/bios_qemu_tz_arm/libfdt/fdt_rw.c:481
40102f6a:	e96d 7e02 	strd	r7, lr, [sp, #-8]!
40102f6e:	b084      	sub	sp, #16
40102f70:	af00      	add	r7, sp, #0
40102f72:	6078      	str	r0, [r7, #4]
/home/zhangxiang/Downloads/op-tee2/OP-TEE/bios_qemu_tz_arm/libfdt/fdt_rw.c:484
40102f74:	6878      	ldr	r0, [r7, #4]
40102f76:	f7ff f9a0 	bl	401022ba <_fdt_rw_check_header>
40102f7a:	60f8      	str	r0, [r7, #12]
40102f7c:	68fb      	ldr	r3, [r7, #12]
40102f7e:	2b00      	cmp	r3, #0
40102f80:	d001      	beq.n	40102f86 <fdt_pack+0x1c>
/home/zhangxiang/Downloads/op-tee2/OP-TEE/bios_qemu_tz_arm/libfdt/fdt_rw.c:484 (discriminator 1)
40102f82:	68fb      	ldr	r3, [r7, #12]
40102f84:	e020      	b.n	40102fc8 <fdt_pack+0x5e>
/home/zhangxiang/Downloads/op-tee2/OP-TEE/bios_qemu_tz_arm/libfdt/fdt_rw.c:486
40102f86:	6878      	ldr	r0, [r7, #4]
40102f88:	f241 233f 	movw	r3, #4671	; 0x123f
40102f8c:	f2c4 0310 	movt	r3, #16400	; 0x4010
40102f90:	4798      	blx	r3
40102f92:	4603      	mov	r3, r0
40102f94:	f103 0301 	add.w	r3, r3, #1
/home/zhangxiang/Downloads/op-tee2/OP-TEE/bios_qemu_tz_arm/libfdt/fdt_rw.c:487
40102f98:	ea4f 1303 	mov.w	r3, r3, lsl #4
/home/zhangxiang/Downloads/op-tee2/OP-TEE/bios_qemu_tz_arm/libfdt/fdt_rw.c:486
40102f9c:	60bb      	str	r3, [r7, #8]
/home/zhangxiang/Downloads/op-tee2/OP-TEE/bios_qemu_tz_arm/libfdt/fdt_rw.c:488
40102f9e:	687b      	ldr	r3, [r7, #4]
40102fa0:	6a5b      	ldr	r3, [r3, #36]	; 0x24
40102fa2:	4618      	mov	r0, r3
40102fa4:	f7fe ff0f 	bl	40101dc6 <fdt32_to_cpu>
40102fa8:	4603      	mov	r3, r0
40102faa:	68ba      	ldr	r2, [r7, #8]
40102fac:	6879      	ldr	r1, [r7, #4]
40102fae:	6878      	ldr	r0, [r7, #4]
40102fb0:	f7ff fe7a 	bl	40102ca8 <_fdt_packblocks>
/home/zhangxiang/Downloads/op-tee2/OP-TEE/bios_qemu_tz_arm/libfdt/fdt_rw.c:489
40102fb4:	6878      	ldr	r0, [r7, #4]
40102fb6:	f7ff f9c2 	bl	4010233e <_fdt_data_size>
40102fba:	4603      	mov	r3, r0
40102fbc:	4619      	mov	r1, r3
40102fbe:	6878      	ldr	r0, [r7, #4]
40102fc0:	f7ff f812 	bl	40101fe8 <fdt_set_totalsize>
/home/zhangxiang/Downloads/op-tee2/OP-TEE/bios_qemu_tz_arm/libfdt/fdt_rw.c:491
40102fc4:	f04f 0300 	mov.w	r3, #0
/home/zhangxiang/Downloads/op-tee2/OP-TEE/bios_qemu_tz_arm/libfdt/fdt_rw.c:492
40102fc8:	4618      	mov	r0, r3
40102fca:	f107 0710 	add.w	r7, r7, #16
40102fce:	46bd      	mov	sp, r7
40102fd0:	bd80      	pop	{r7, pc}

40102fd2 <cpu_to_fdt32>:
cpu_to_fdt32():
/home/zhangxiang/Downloads/op-tee2/OP-TEE/bios_qemu_tz_arm/libfdt/include/./libfdt_env.h:94
40102fd2:	f84d 7d04 	str.w	r7, [sp, #-4]!
40102fd6:	b083      	sub	sp, #12
40102fd8:	af00      	add	r7, sp, #0
40102fda:	6078      	str	r0, [r7, #4]
/home/zhangxiang/Downloads/op-tee2/OP-TEE/bios_qemu_tz_arm/libfdt/include/./libfdt_env.h:95
40102fdc:	f107 0304 	add.w	r3, r7, #4
40102fe0:	781b      	ldrb	r3, [r3, #0]
40102fe2:	ea4f 6203 	mov.w	r2, r3, lsl #24
40102fe6:	f107 0304 	add.w	r3, r7, #4
40102fea:	f103 0301 	add.w	r3, r3, #1
40102fee:	781b      	ldrb	r3, [r3, #0]
40102ff0:	ea4f 4303 	mov.w	r3, r3, lsl #16
40102ff4:	ea42 0203 	orr.w	r2, r2, r3
40102ff8:	f107 0304 	add.w	r3, r7, #4
40102ffc:	f103 0302 	add.w	r3, r3, #2
40103000:	781b      	ldrb	r3, [r3, #0]
40103002:	ea4f 2303 	mov.w	r3, r3, lsl #8
40103006:	ea42 0203 	orr.w	r2, r2, r3
4010300a:	f107 0304 	add.w	r3, r7, #4
4010300e:	f103 0303 	add.w	r3, r3, #3
40103012:	781b      	ldrb	r3, [r3, #0]
40103014:	ea43 0302 	orr.w	r3, r3, r2
/home/zhangxiang/Downloads/op-tee2/OP-TEE/bios_qemu_tz_arm/libfdt/include/./libfdt_env.h:96
40103018:	4618      	mov	r0, r3
4010301a:	f107 070c 	add.w	r7, r7, #12
4010301e:	46bd      	mov	sp, r7
40103020:	f85d 7b04 	ldr.w	r7, [sp], #4
40103024:	4770      	bx	lr

40103026 <fdt_offset_ptr_w>:
fdt_offset_ptr_w():
/home/zhangxiang/Downloads/op-tee2/OP-TEE/bios_qemu_tz_arm/libfdt/include/./libfdt.h:127
40103026:	e96d 7e02 	strd	r7, lr, [sp, #-8]!
4010302a:	b084      	sub	sp, #16
4010302c:	af00      	add	r7, sp, #0
4010302e:	60f8      	str	r0, [r7, #12]
40103030:	60b9      	str	r1, [r7, #8]
40103032:	607a      	str	r2, [r7, #4]
/home/zhangxiang/Downloads/op-tee2/OP-TEE/bios_qemu_tz_arm/libfdt/include/./libfdt.h:128
40103034:	687b      	ldr	r3, [r7, #4]
40103036:	461a      	mov	r2, r3
40103038:	68b9      	ldr	r1, [r7, #8]
4010303a:	68f8      	ldr	r0, [r7, #12]
4010303c:	f243 333b 	movw	r3, #13115	; 0x333b
40103040:	f2c4 0310 	movt	r3, #16400	; 0x4010
40103044:	4798      	blx	r3
40103046:	4603      	mov	r3, r0
/home/zhangxiang/Downloads/op-tee2/OP-TEE/bios_qemu_tz_arm/libfdt/include/./libfdt.h:129
40103048:	4618      	mov	r0, r3
4010304a:	f107 0710 	add.w	r7, r7, #16
4010304e:	46bd      	mov	sp, r7
40103050:	bd80      	pop	{r7, pc}

40103052 <fdt_get_property_w>:
fdt_get_property_w():
/home/zhangxiang/Downloads/op-tee2/OP-TEE/bios_qemu_tz_arm/libfdt/include/./libfdt.h:484
40103052:	f84d 4d0c 	str.w	r4, [sp, #-12]!
40103056:	e9cd 7e01 	strd	r7, lr, [sp, #4]
4010305a:	b085      	sub	sp, #20
4010305c:	af00      	add	r7, sp, #0
4010305e:	60f8      	str	r0, [r7, #12]
40103060:	60b9      	str	r1, [r7, #8]
40103062:	607a      	str	r2, [r7, #4]
40103064:	603b      	str	r3, [r7, #0]
/home/zhangxiang/Downloads/op-tee2/OP-TEE/bios_qemu_tz_arm/libfdt/include/./libfdt.h:485
40103066:	683b      	ldr	r3, [r7, #0]
40103068:	687a      	ldr	r2, [r7, #4]
4010306a:	68b9      	ldr	r1, [r7, #8]
4010306c:	68f8      	ldr	r0, [r7, #12]
4010306e:	f241 6481 	movw	r4, #5761	; 0x1681
40103072:	f2c4 0410 	movt	r4, #16400	; 0x4010
40103076:	47a0      	blx	r4
40103078:	4603      	mov	r3, r0
/home/zhangxiang/Downloads/op-tee2/OP-TEE/bios_qemu_tz_arm/libfdt/include/./libfdt.h:487
4010307a:	4618      	mov	r0, r3
4010307c:	f107 0714 	add.w	r7, r7, #20
40103080:	46bd      	mov	sp, r7
40103082:	e9dd 4700 	ldrd	r4, r7, [sp]
40103086:	b002      	add	sp, #8
40103088:	f85d fb04 	ldr.w	pc, [sp], #4

4010308c <fdt_getprop_w>:
fdt_getprop_w():
/home/zhangxiang/Downloads/op-tee2/OP-TEE/bios_qemu_tz_arm/libfdt/include/./libfdt.h:568
4010308c:	f84d 4d0c 	str.w	r4, [sp, #-12]!
40103090:	e9cd 7e01 	strd	r7, lr, [sp, #4]
40103094:	b085      	sub	sp, #20
40103096:	af00      	add	r7, sp, #0
40103098:	60f8      	str	r0, [r7, #12]
4010309a:	60b9      	str	r1, [r7, #8]
4010309c:	607a      	str	r2, [r7, #4]
4010309e:	603b      	str	r3, [r7, #0]
/home/zhangxiang/Downloads/op-tee2/OP-TEE/bios_qemu_tz_arm/libfdt/include/./libfdt.h:569
401030a0:	683b      	ldr	r3, [r7, #0]
401030a2:	687a      	ldr	r2, [r7, #4]
401030a4:	68b9      	ldr	r1, [r7, #8]
401030a6:	68f8      	ldr	r0, [r7, #12]
401030a8:	f241 7453 	movw	r4, #5971	; 0x1753
401030ac:	f2c4 0410 	movt	r4, #16400	; 0x4010
401030b0:	47a0      	blx	r4
401030b2:	4603      	mov	r3, r0
/home/zhangxiang/Downloads/op-tee2/OP-TEE/bios_qemu_tz_arm/libfdt/include/./libfdt.h:570
401030b4:	4618      	mov	r0, r3
401030b6:	f107 0714 	add.w	r7, r7, #20
401030ba:	46bd      	mov	sp, r7
401030bc:	e9dd 4700 	ldrd	r4, r7, [sp]
401030c0:	b002      	add	sp, #8
401030c2:	f85d fb04 	ldr.w	pc, [sp], #4

401030c6 <fdt_setprop_inplace>:
fdt_setprop_inplace():
/home/zhangxiang/Downloads/op-tee2/OP-TEE/bios_qemu_tz_arm/libfdt/fdt_wip.c:60
401030c6:	e96d 7e02 	strd	r7, lr, [sp, #-8]!
401030ca:	b086      	sub	sp, #24
401030cc:	af00      	add	r7, sp, #0
401030ce:	60f8      	str	r0, [r7, #12]
401030d0:	60b9      	str	r1, [r7, #8]
401030d2:	607a      	str	r2, [r7, #4]
401030d4:	603b      	str	r3, [r7, #0]
/home/zhangxiang/Downloads/op-tee2/OP-TEE/bios_qemu_tz_arm/libfdt/fdt_wip.c:64
401030d6:	f107 0310 	add.w	r3, r7, #16
401030da:	687a      	ldr	r2, [r7, #4]
401030dc:	68b9      	ldr	r1, [r7, #8]
401030de:	68f8      	ldr	r0, [r7, #12]
401030e0:	f7ff ffd4 	bl	4010308c <fdt_getprop_w>
401030e4:	6178      	str	r0, [r7, #20]
/home/zhangxiang/Downloads/op-tee2/OP-TEE/bios_qemu_tz_arm/libfdt/fdt_wip.c:65
401030e6:	697b      	ldr	r3, [r7, #20]
401030e8:	2b00      	cmp	r3, #0
401030ea:	d101      	bne.n	401030f0 <fdt_setprop_inplace+0x2a>
/home/zhangxiang/Downloads/op-tee2/OP-TEE/bios_qemu_tz_arm/libfdt/fdt_wip.c:66
401030ec:	693b      	ldr	r3, [r7, #16]
401030ee:	e011      	b.n	40103114 <fdt_setprop_inplace+0x4e>
/home/zhangxiang/Downloads/op-tee2/OP-TEE/bios_qemu_tz_arm/libfdt/fdt_wip.c:68
401030f0:	693a      	ldr	r2, [r7, #16]
401030f2:	6a3b      	ldr	r3, [r7, #32]
401030f4:	429a      	cmp	r2, r3
401030f6:	d002      	beq.n	401030fe <fdt_setprop_inplace+0x38>
/home/zhangxiang/Downloads/op-tee2/OP-TEE/bios_qemu_tz_arm/libfdt/fdt_wip.c:69
401030f8:	f06f 0302 	mvn.w	r3, #2
401030fc:	e00a      	b.n	40103114 <fdt_setprop_inplace+0x4e>
/home/zhangxiang/Downloads/op-tee2/OP-TEE/bios_qemu_tz_arm/libfdt/fdt_wip.c:71
401030fe:	6a3b      	ldr	r3, [r7, #32]
40103100:	461a      	mov	r2, r3
40103102:	6839      	ldr	r1, [r7, #0]
40103104:	6978      	ldr	r0, [r7, #20]
40103106:	f244 7351 	movw	r3, #18257	; 0x4751
4010310a:	f2c4 0310 	movt	r3, #16400	; 0x4010
4010310e:	4798      	blx	r3
/home/zhangxiang/Downloads/op-tee2/OP-TEE/bios_qemu_tz_arm/libfdt/fdt_wip.c:72
40103110:	f04f 0300 	mov.w	r3, #0
/home/zhangxiang/Downloads/op-tee2/OP-TEE/bios_qemu_tz_arm/libfdt/fdt_wip.c:73 (discriminator 1)
40103114:	4618      	mov	r0, r3
40103116:	f107 0718 	add.w	r7, r7, #24
4010311a:	46bd      	mov	sp, r7
4010311c:	bd80      	pop	{r7, pc}

4010311e <_fdt_nop_region>:
_fdt_nop_region():
/home/zhangxiang/Downloads/op-tee2/OP-TEE/bios_qemu_tz_arm/libfdt/fdt_wip.c:76
4010311e:	e96d 7e02 	strd	r7, lr, [sp, #-8]!
40103122:	b084      	sub	sp, #16
40103124:	af00      	add	r7, sp, #0
40103126:	6078      	str	r0, [r7, #4]
40103128:	6039      	str	r1, [r7, #0]
/home/zhangxiang/Downloads/op-tee2/OP-TEE/bios_qemu_tz_arm/libfdt/fdt_wip.c:79
4010312a:	687b      	ldr	r3, [r7, #4]
4010312c:	60fb      	str	r3, [r7, #12]
4010312e:	e00a      	b.n	40103146 <_fdt_nop_region+0x28>
/home/zhangxiang/Downloads/op-tee2/OP-TEE/bios_qemu_tz_arm/libfdt/fdt_wip.c:80 (discriminator 3)
40103130:	f04f 0004 	mov.w	r0, #4
40103134:	f7ff ff4d 	bl	40102fd2 <cpu_to_fdt32>
40103138:	4602      	mov	r2, r0
4010313a:	68fb      	ldr	r3, [r7, #12]
4010313c:	601a      	str	r2, [r3, #0]
/home/zhangxiang/Downloads/op-tee2/OP-TEE/bios_qemu_tz_arm/libfdt/fdt_wip.c:79 (discriminator 3)
4010313e:	68fb      	ldr	r3, [r7, #12]
40103140:	f103 0304 	add.w	r3, r3, #4
40103144:	60fb      	str	r3, [r7, #12]
/home/zhangxiang/Downloads/op-tee2/OP-TEE/bios_qemu_tz_arm/libfdt/fdt_wip.c:79 (discriminator 1)
40103146:	683b      	ldr	r3, [r7, #0]
40103148:	687a      	ldr	r2, [r7, #4]
4010314a:	441a      	add	r2, r3
4010314c:	68fb      	ldr	r3, [r7, #12]
4010314e:	429a      	cmp	r2, r3
40103150:	d8ee      	bhi.n	40103130 <_fdt_nop_region+0x12>
/home/zhangxiang/Downloads/op-tee2/OP-TEE/bios_qemu_tz_arm/libfdt/fdt_wip.c:81
40103152:	bf00      	nop
40103154:	f107 0710 	add.w	r7, r7, #16
40103158:	46bd      	mov	sp, r7
4010315a:	bd80      	pop	{r7, pc}

4010315c <fdt_nop_property>:
fdt_nop_property():
/home/zhangxiang/Downloads/op-tee2/OP-TEE/bios_qemu_tz_arm/libfdt/fdt_wip.c:84
4010315c:	e96d 7e02 	strd	r7, lr, [sp, #-8]!
40103160:	b086      	sub	sp, #24
40103162:	af00      	add	r7, sp, #0
40103164:	60f8      	str	r0, [r7, #12]
40103166:	60b9      	str	r1, [r7, #8]
40103168:	607a      	str	r2, [r7, #4]
/home/zhangxiang/Downloads/op-tee2/OP-TEE/bios_qemu_tz_arm/libfdt/fdt_wip.c:88
4010316a:	f107 0310 	add.w	r3, r7, #16
4010316e:	687a      	ldr	r2, [r7, #4]
40103170:	68b9      	ldr	r1, [r7, #8]
40103172:	68f8      	ldr	r0, [r7, #12]
40103174:	f7ff ff6d 	bl	40103052 <fdt_get_property_w>
40103178:	6178      	str	r0, [r7, #20]
/home/zhangxiang/Downloads/op-tee2/OP-TEE/bios_qemu_tz_arm/libfdt/fdt_wip.c:89
4010317a:	697b      	ldr	r3, [r7, #20]
4010317c:	2b00      	cmp	r3, #0
4010317e:	d101      	bne.n	40103184 <fdt_nop_property+0x28>
/home/zhangxiang/Downloads/op-tee2/OP-TEE/bios_qemu_tz_arm/libfdt/fdt_wip.c:90
40103180:	693b      	ldr	r3, [r7, #16]
40103182:	e008      	b.n	40103196 <fdt_nop_property+0x3a>
/home/zhangxiang/Downloads/op-tee2/OP-TEE/bios_qemu_tz_arm/libfdt/fdt_wip.c:92
40103184:	693b      	ldr	r3, [r7, #16]
40103186:	f103 030c 	add.w	r3, r3, #12
4010318a:	4619      	mov	r1, r3
4010318c:	6978      	ldr	r0, [r7, #20]
4010318e:	f7ff ffc6 	bl	4010311e <_fdt_nop_region>
/home/zhangxiang/Downloads/op-tee2/OP-TEE/bios_qemu_tz_arm/libfdt/fdt_wip.c:94
40103192:	f04f 0300 	mov.w	r3, #0
/home/zhangxiang/Downloads/op-tee2/OP-TEE/bios_qemu_tz_arm/libfdt/fdt_wip.c:95 (discriminator 1)
40103196:	4618      	mov	r0, r3
40103198:	f107 0718 	add.w	r7, r7, #24
4010319c:	46bd      	mov	sp, r7
4010319e:	bd80      	pop	{r7, pc}

401031a0 <_fdt_node_end_offset>:
_fdt_node_end_offset():
/home/zhangxiang/Downloads/op-tee2/OP-TEE/bios_qemu_tz_arm/libfdt/fdt_wip.c:98
401031a0:	e96d 7e02 	strd	r7, lr, [sp, #-8]!
401031a4:	b084      	sub	sp, #16
401031a6:	af00      	add	r7, sp, #0
401031a8:	6078      	str	r0, [r7, #4]
401031aa:	6039      	str	r1, [r7, #0]
/home/zhangxiang/Downloads/op-tee2/OP-TEE/bios_qemu_tz_arm/libfdt/fdt_wip.c:99
401031ac:	f04f 0300 	mov.w	r3, #0
401031b0:	60fb      	str	r3, [r7, #12]
/home/zhangxiang/Downloads/op-tee2/OP-TEE/bios_qemu_tz_arm/libfdt/fdt_wip.c:101
401031b2:	e00a      	b.n	401031ca <_fdt_node_end_offset+0x2a>
/home/zhangxiang/Downloads/op-tee2/OP-TEE/bios_qemu_tz_arm/libfdt/fdt_wip.c:102
401031b4:	f107 030c 	add.w	r3, r7, #12
401031b8:	461a      	mov	r2, r3
401031ba:	6839      	ldr	r1, [r7, #0]
401031bc:	6878      	ldr	r0, [r7, #4]
401031be:	f243 5363 	movw	r3, #13667	; 0x3563
401031c2:	f2c4 0310 	movt	r3, #16400	; 0x4010
401031c6:	4798      	blx	r3
401031c8:	6038      	str	r0, [r7, #0]
/home/zhangxiang/Downloads/op-tee2/OP-TEE/bios_qemu_tz_arm/libfdt/fdt_wip.c:101
401031ca:	683b      	ldr	r3, [r7, #0]
401031cc:	2b00      	cmp	r3, #0
401031ce:	db02      	blt.n	401031d6 <_fdt_node_end_offset+0x36>
/home/zhangxiang/Downloads/op-tee2/OP-TEE/bios_qemu_tz_arm/libfdt/fdt_wip.c:101 (discriminator 1)
401031d0:	68fb      	ldr	r3, [r7, #12]
401031d2:	2b00      	cmp	r3, #0
401031d4:	daee      	bge.n	401031b4 <_fdt_node_end_offset+0x14>
/home/zhangxiang/Downloads/op-tee2/OP-TEE/bios_qemu_tz_arm/libfdt/fdt_wip.c:104
401031d6:	683b      	ldr	r3, [r7, #0]
/home/zhangxiang/Downloads/op-tee2/OP-TEE/bios_qemu_tz_arm/libfdt/fdt_wip.c:105
401031d8:	4618      	mov	r0, r3
401031da:	f107 0710 	add.w	r7, r7, #16
401031de:	46bd      	mov	sp, r7
401031e0:	bd80      	pop	{r7, pc}

401031e2 <fdt_nop_node>:
fdt_nop_node():
/home/zhangxiang/Downloads/op-tee2/OP-TEE/bios_qemu_tz_arm/libfdt/fdt_wip.c:108
401031e2:	e96d 7e02 	strd	r7, lr, [sp, #-8]!
401031e6:	b084      	sub	sp, #16
401031e8:	af00      	add	r7, sp, #0
401031ea:	6078      	str	r0, [r7, #4]
401031ec:	6039      	str	r1, [r7, #0]
/home/zhangxiang/Downloads/op-tee2/OP-TEE/bios_qemu_tz_arm/libfdt/fdt_wip.c:111
401031ee:	6839      	ldr	r1, [r7, #0]
401031f0:	6878      	ldr	r0, [r7, #4]
401031f2:	f7ff ffd5 	bl	401031a0 <_fdt_node_end_offset>
401031f6:	60f8      	str	r0, [r7, #12]
/home/zhangxiang/Downloads/op-tee2/OP-TEE/bios_qemu_tz_arm/libfdt/fdt_wip.c:112
401031f8:	68fb      	ldr	r3, [r7, #12]
401031fa:	2b00      	cmp	r3, #0
401031fc:	da01      	bge.n	40103202 <fdt_nop_node+0x20>
/home/zhangxiang/Downloads/op-tee2/OP-TEE/bios_qemu_tz_arm/libfdt/fdt_wip.c:113
401031fe:	68fb      	ldr	r3, [r7, #12]
40103200:	e00e      	b.n	40103220 <fdt_nop_node+0x3e>
/home/zhangxiang/Downloads/op-tee2/OP-TEE/bios_qemu_tz_arm/libfdt/fdt_wip.c:115
40103202:	f04f 0200 	mov.w	r2, #0
40103206:	6839      	ldr	r1, [r7, #0]
40103208:	6878      	ldr	r0, [r7, #4]
4010320a:	f7ff ff0c 	bl	40103026 <fdt_offset_ptr_w>
4010320e:	68fa      	ldr	r2, [r7, #12]
40103210:	683b      	ldr	r3, [r7, #0]
40103212:	eba2 0303 	sub.w	r3, r2, r3
40103216:	4619      	mov	r1, r3
40103218:	f7ff ff81 	bl	4010311e <_fdt_nop_region>
/home/zhangxiang/Downloads/op-tee2/OP-TEE/bios_qemu_tz_arm/libfdt/fdt_wip.c:117
4010321c:	f04f 0300 	mov.w	r3, #0
/home/zhangxiang/Downloads/op-tee2/OP-TEE/bios_qemu_tz_arm/libfdt/fdt_wip.c:118
40103220:	4618      	mov	r0, r3
40103222:	f107 0710 	add.w	r7, r7, #16
40103226:	46bd      	mov	sp, r7
40103228:	bd80      	pop	{r7, pc}
	...

4010322c <fdt32_to_cpu>:
fdt32_to_cpu():
/home/zhangxiang/Downloads/op-tee2/OP-TEE/bios_qemu_tz_arm/libfdt/include/./libfdt_env.h:90
4010322c:	f84d 7d04 	str.w	r7, [sp, #-4]!
40103230:	b083      	sub	sp, #12
40103232:	af00      	add	r7, sp, #0
40103234:	6078      	str	r0, [r7, #4]
/home/zhangxiang/Downloads/op-tee2/OP-TEE/bios_qemu_tz_arm/libfdt/include/./libfdt_env.h:91
40103236:	f107 0304 	add.w	r3, r7, #4
4010323a:	781b      	ldrb	r3, [r3, #0]
4010323c:	ea4f 6203 	mov.w	r2, r3, lsl #24
40103240:	f107 0304 	add.w	r3, r7, #4
40103244:	f103 0301 	add.w	r3, r3, #1
40103248:	781b      	ldrb	r3, [r3, #0]
4010324a:	ea4f 4303 	mov.w	r3, r3, lsl #16
4010324e:	ea42 0203 	orr.w	r2, r2, r3
40103252:	f107 0304 	add.w	r3, r7, #4
40103256:	f103 0302 	add.w	r3, r3, #2
4010325a:	781b      	ldrb	r3, [r3, #0]
4010325c:	ea4f 2303 	mov.w	r3, r3, lsl #8
40103260:	ea42 0203 	orr.w	r2, r2, r3
40103264:	f107 0304 	add.w	r3, r7, #4
40103268:	f103 0303 	add.w	r3, r3, #3
4010326c:	781b      	ldrb	r3, [r3, #0]
4010326e:	ea43 0302 	orr.w	r3, r3, r2
/home/zhangxiang/Downloads/op-tee2/OP-TEE/bios_qemu_tz_arm/libfdt/include/./libfdt_env.h:92
40103272:	4618      	mov	r0, r3
40103274:	f107 070c 	add.w	r7, r7, #12
40103278:	46bd      	mov	sp, r7
4010327a:	f85d 7b04 	ldr.w	r7, [sp], #4
4010327e:	4770      	bx	lr

40103280 <_fdt_offset_ptr>:
_fdt_offset_ptr():
/home/zhangxiang/Downloads/op-tee2/OP-TEE/bios_qemu_tz_arm/libfdt/libfdt_internal.h:71
40103280:	e96d 7e02 	strd	r7, lr, [sp, #-8]!
40103284:	b082      	sub	sp, #8
40103286:	af00      	add	r7, sp, #0
40103288:	6078      	str	r0, [r7, #4]
4010328a:	6039      	str	r1, [r7, #0]
/home/zhangxiang/Downloads/op-tee2/OP-TEE/bios_qemu_tz_arm/libfdt/libfdt_internal.h:72
4010328c:	687b      	ldr	r3, [r7, #4]
4010328e:	689b      	ldr	r3, [r3, #8]
40103290:	4618      	mov	r0, r3
40103292:	f7ff ffcb 	bl	4010322c <fdt32_to_cpu>
40103296:	4602      	mov	r2, r0
40103298:	683b      	ldr	r3, [r7, #0]
4010329a:	4413      	add	r3, r2
4010329c:	687a      	ldr	r2, [r7, #4]
4010329e:	4413      	add	r3, r2
/home/zhangxiang/Downloads/op-tee2/OP-TEE/bios_qemu_tz_arm/libfdt/libfdt_internal.h:73
401032a0:	4618      	mov	r0, r3
401032a2:	f107 0708 	add.w	r7, r7, #8
401032a6:	46bd      	mov	sp, r7
401032a8:	bd80      	pop	{r7, pc}

401032aa <fdt_check_header>:
fdt_check_header():
/home/zhangxiang/Downloads/op-tee2/OP-TEE/bios_qemu_tz_arm/libfdt/fdt.c:59
401032aa:	e96d 7e02 	strd	r7, lr, [sp, #-8]!
401032ae:	b082      	sub	sp, #8
401032b0:	af00      	add	r7, sp, #0
401032b2:	6078      	str	r0, [r7, #4]
/home/zhangxiang/Downloads/op-tee2/OP-TEE/bios_qemu_tz_arm/libfdt/fdt.c:60
401032b4:	687b      	ldr	r3, [r7, #4]
401032b6:	681b      	ldr	r3, [r3, #0]
401032b8:	4618      	mov	r0, r3
401032ba:	f7ff ffb7 	bl	4010322c <fdt32_to_cpu>
401032be:	4602      	mov	r2, r0
401032c0:	f64f 63ed 	movw	r3, #65261	; 0xfeed
401032c4:	f2cd 030d 	movt	r3, #53261	; 0xd00d
401032c8:	429a      	cmp	r2, r3
401032ca:	d115      	bne.n	401032f8 <fdt_check_header+0x4e>
/home/zhangxiang/Downloads/op-tee2/OP-TEE/bios_qemu_tz_arm/libfdt/fdt.c:62
401032cc:	687b      	ldr	r3, [r7, #4]
401032ce:	695b      	ldr	r3, [r3, #20]
401032d0:	4618      	mov	r0, r3
401032d2:	f7ff ffab 	bl	4010322c <fdt32_to_cpu>
401032d6:	4603      	mov	r3, r0
401032d8:	2b0f      	cmp	r3, #15
401032da:	d802      	bhi.n	401032e2 <fdt_check_header+0x38>
/home/zhangxiang/Downloads/op-tee2/OP-TEE/bios_qemu_tz_arm/libfdt/fdt.c:63
401032dc:	f06f 0309 	mvn.w	r3, #9
401032e0:	e026      	b.n	40103330 <fdt_check_header+0x86>
/home/zhangxiang/Downloads/op-tee2/OP-TEE/bios_qemu_tz_arm/libfdt/fdt.c:64
401032e2:	687b      	ldr	r3, [r7, #4]
401032e4:	699b      	ldr	r3, [r3, #24]
401032e6:	4618      	mov	r0, r3
401032e8:	f7ff ffa0 	bl	4010322c <fdt32_to_cpu>
401032ec:	4603      	mov	r3, r0
401032ee:	2b11      	cmp	r3, #17
401032f0:	d91c      	bls.n	4010332c <fdt_check_header+0x82>
/home/zhangxiang/Downloads/op-tee2/OP-TEE/bios_qemu_tz_arm/libfdt/fdt.c:65
401032f2:	f06f 0309 	mvn.w	r3, #9
401032f6:	e01b      	b.n	40103330 <fdt_check_header+0x86>
/home/zhangxiang/Downloads/op-tee2/OP-TEE/bios_qemu_tz_arm/libfdt/fdt.c:66
401032f8:	687b      	ldr	r3, [r7, #4]
401032fa:	681b      	ldr	r3, [r3, #0]
401032fc:	4618      	mov	r0, r3
401032fe:	f7ff ff95 	bl	4010322c <fdt32_to_cpu>
40103302:	4602      	mov	r2, r0
40103304:	f44f 7389 	mov.w	r3, #274	; 0x112
40103308:	f6c2 73f2 	movt	r3, #12274	; 0x2ff2
4010330c:	429a      	cmp	r2, r3
4010330e:	d10a      	bne.n	40103326 <fdt_check_header+0x7c>
/home/zhangxiang/Downloads/op-tee2/OP-TEE/bios_qemu_tz_arm/libfdt/fdt.c:68
40103310:	687b      	ldr	r3, [r7, #4]
40103312:	6a5b      	ldr	r3, [r3, #36]	; 0x24
40103314:	4618      	mov	r0, r3
40103316:	f7ff ff89 	bl	4010322c <fdt32_to_cpu>
4010331a:	4603      	mov	r3, r0
4010331c:	2b00      	cmp	r3, #0
4010331e:	d105      	bne.n	4010332c <fdt_check_header+0x82>
/home/zhangxiang/Downloads/op-tee2/OP-TEE/bios_qemu_tz_arm/libfdt/fdt.c:69
40103320:	f06f 0306 	mvn.w	r3, #6
40103324:	e004      	b.n	40103330 <fdt_check_header+0x86>
/home/zhangxiang/Downloads/op-tee2/OP-TEE/bios_qemu_tz_arm/libfdt/fdt.c:71
40103326:	f06f 0308 	mvn.w	r3, #8
4010332a:	e001      	b.n	40103330 <fdt_check_header+0x86>
/home/zhangxiang/Downloads/op-tee2/OP-TEE/bios_qemu_tz_arm/libfdt/fdt.c:74
4010332c:	f04f 0300 	mov.w	r3, #0
/home/zhangxiang/Downloads/op-tee2/OP-TEE/bios_qemu_tz_arm/libfdt/fdt.c:75
40103330:	4618      	mov	r0, r3
40103332:	f107 0708 	add.w	r7, r7, #8
40103336:	46bd      	mov	sp, r7
40103338:	bd80      	pop	{r7, pc}

4010333a <fdt_offset_ptr>:
fdt_offset_ptr():
/home/zhangxiang/Downloads/op-tee2/OP-TEE/bios_qemu_tz_arm/libfdt/fdt.c:78
4010333a:	f84d 4d0c 	str.w	r4, [sp, #-12]!
4010333e:	e9cd 7e01 	strd	r7, lr, [sp, #4]
40103342:	b087      	sub	sp, #28
40103344:	af00      	add	r7, sp, #0
40103346:	60f8      	str	r0, [r7, #12]
40103348:	60b9      	str	r1, [r7, #8]
4010334a:	607a      	str	r2, [r7, #4]
/home/zhangxiang/Downloads/op-tee2/OP-TEE/bios_qemu_tz_arm/libfdt/fdt.c:81
4010334c:	68fb      	ldr	r3, [r7, #12]
4010334e:	695b      	ldr	r3, [r3, #20]
40103350:	4618      	mov	r0, r3
40103352:	f7ff ff6b 	bl	4010322c <fdt32_to_cpu>
40103356:	4603      	mov	r3, r0
40103358:	2b10      	cmp	r3, #16
4010335a:	d914      	bls.n	40103386 <fdt_offset_ptr+0x4c>
/home/zhangxiang/Downloads/op-tee2/OP-TEE/bios_qemu_tz_arm/libfdt/fdt.c:82
4010335c:	68ba      	ldr	r2, [r7, #8]
4010335e:	687b      	ldr	r3, [r7, #4]
40103360:	441a      	add	r2, r3
40103362:	68bb      	ldr	r3, [r7, #8]
40103364:	429a      	cmp	r2, r3
40103366:	d30b      	bcc.n	40103380 <fdt_offset_ptr+0x46>
/home/zhangxiang/Downloads/op-tee2/OP-TEE/bios_qemu_tz_arm/libfdt/fdt.c:83
40103368:	68ba      	ldr	r2, [r7, #8]
4010336a:	687b      	ldr	r3, [r7, #4]
4010336c:	eb02 0403 	add.w	r4, r2, r3
40103370:	68fb      	ldr	r3, [r7, #12]
40103372:	6a5b      	ldr	r3, [r3, #36]	; 0x24
40103374:	4618      	mov	r0, r3
40103376:	f7ff ff59 	bl	4010322c <fdt32_to_cpu>
4010337a:	4603      	mov	r3, r0
4010337c:	429c      	cmp	r4, r3
4010337e:	d902      	bls.n	40103386 <fdt_offset_ptr+0x4c>
/home/zhangxiang/Downloads/op-tee2/OP-TEE/bios_qemu_tz_arm/libfdt/fdt.c:84
40103380:	f04f 0300 	mov.w	r3, #0
40103384:	e00e      	b.n	401033a4 <fdt_offset_ptr+0x6a>
/home/zhangxiang/Downloads/op-tee2/OP-TEE/bios_qemu_tz_arm/libfdt/fdt.c:86
40103386:	68b9      	ldr	r1, [r7, #8]
40103388:	68f8      	ldr	r0, [r7, #12]
4010338a:	f7ff ff79 	bl	40103280 <_fdt_offset_ptr>
4010338e:	6178      	str	r0, [r7, #20]
/home/zhangxiang/Downloads/op-tee2/OP-TEE/bios_qemu_tz_arm/libfdt/fdt.c:88
40103390:	697a      	ldr	r2, [r7, #20]
40103392:	687b      	ldr	r3, [r7, #4]
40103394:	441a      	add	r2, r3
40103396:	697b      	ldr	r3, [r7, #20]
40103398:	429a      	cmp	r2, r3
4010339a:	d202      	bcs.n	401033a2 <fdt_offset_ptr+0x68>
/home/zhangxiang/Downloads/op-tee2/OP-TEE/bios_qemu_tz_arm/libfdt/fdt.c:89
4010339c:	f04f 0300 	mov.w	r3, #0
401033a0:	e000      	b.n	401033a4 <fdt_offset_ptr+0x6a>
/home/zhangxiang/Downloads/op-tee2/OP-TEE/bios_qemu_tz_arm/libfdt/fdt.c:90
401033a2:	697b      	ldr	r3, [r7, #20]
/home/zhangxiang/Downloads/op-tee2/OP-TEE/bios_qemu_tz_arm/libfdt/fdt.c:91
401033a4:	4618      	mov	r0, r3
401033a6:	f107 071c 	add.w	r7, r7, #28
401033aa:	46bd      	mov	sp, r7
401033ac:	e9dd 4700 	ldrd	r4, r7, [sp]
401033b0:	b002      	add	sp, #8
401033b2:	f85d fb04 	ldr.w	pc, [sp], #4

401033b6 <fdt_next_tag>:
fdt_next_tag():
/home/zhangxiang/Downloads/op-tee2/OP-TEE/bios_qemu_tz_arm/libfdt/fdt.c:94
401033b6:	e96d 7e02 	strd	r7, lr, [sp, #-8]!
401033ba:	b08a      	sub	sp, #40	; 0x28
401033bc:	af00      	add	r7, sp, #0
401033be:	60f8      	str	r0, [r7, #12]
401033c0:	60b9      	str	r1, [r7, #8]
401033c2:	607a      	str	r2, [r7, #4]
/home/zhangxiang/Downloads/op-tee2/OP-TEE/bios_qemu_tz_arm/libfdt/fdt.c:97
401033c4:	68bb      	ldr	r3, [r7, #8]
401033c6:	627b      	str	r3, [r7, #36]	; 0x24
/home/zhangxiang/Downloads/op-tee2/OP-TEE/bios_qemu_tz_arm/libfdt/fdt.c:100
401033c8:	687b      	ldr	r3, [r7, #4]
401033ca:	f06f 0207 	mvn.w	r2, #7
401033ce:	601a      	str	r2, [r3, #0]
/home/zhangxiang/Downloads/op-tee2/OP-TEE/bios_qemu_tz_arm/libfdt/fdt.c:101
401033d0:	f04f 0204 	mov.w	r2, #4
401033d4:	6a79      	ldr	r1, [r7, #36]	; 0x24
401033d6:	68f8      	ldr	r0, [r7, #12]
401033d8:	f7ff ffaf 	bl	4010333a <fdt_offset_ptr>
401033dc:	6238      	str	r0, [r7, #32]
/home/zhangxiang/Downloads/op-tee2/OP-TEE/bios_qemu_tz_arm/libfdt/fdt.c:102
401033de:	6a3b      	ldr	r3, [r7, #32]
401033e0:	2b00      	cmp	r3, #0
401033e2:	d102      	bne.n	401033ea <fdt_next_tag+0x34>
/home/zhangxiang/Downloads/op-tee2/OP-TEE/bios_qemu_tz_arm/libfdt/fdt.c:103
401033e4:	f04f 0309 	mov.w	r3, #9
401033e8:	e076      	b.n	401034d8 <fdt_next_tag+0x122>
/home/zhangxiang/Downloads/op-tee2/OP-TEE/bios_qemu_tz_arm/libfdt/fdt.c:104
401033ea:	6a3b      	ldr	r3, [r7, #32]
401033ec:	681b      	ldr	r3, [r3, #0]
401033ee:	4618      	mov	r0, r3
401033f0:	f7ff ff1c 	bl	4010322c <fdt32_to_cpu>
401033f4:	61f8      	str	r0, [r7, #28]
/home/zhangxiang/Downloads/op-tee2/OP-TEE/bios_qemu_tz_arm/libfdt/fdt.c:105
401033f6:	6a7b      	ldr	r3, [r7, #36]	; 0x24
401033f8:	f103 0304 	add.w	r3, r3, #4
401033fc:	627b      	str	r3, [r7, #36]	; 0x24
/home/zhangxiang/Downloads/op-tee2/OP-TEE/bios_qemu_tz_arm/libfdt/fdt.c:107
401033fe:	687b      	ldr	r3, [r7, #4]
40103400:	f06f 020a 	mvn.w	r2, #10
40103404:	601a      	str	r2, [r3, #0]
/home/zhangxiang/Downloads/op-tee2/OP-TEE/bios_qemu_tz_arm/libfdt/fdt.c:108
40103406:	69fb      	ldr	r3, [r7, #28]
40103408:	f103 33ff 	add.w	r3, r3, #4294967295	; 0xffffffff
4010340c:	2b08      	cmp	r3, #8
4010340e:	d846      	bhi.n	4010349e <fdt_next_tag+0xe8>
40103410:	a201      	add	r2, pc, #4	; (adr r2, 40103418 <fdt_next_tag+0x62>)
40103412:	f852 f023 	ldr.w	pc, [r2, r3, lsl #2]
40103416:	bf00      	nop
40103418:	4010343d 	.word	0x4010343d
4010341c:	401034a5 	.word	0x401034a5
40103420:	4010346d 	.word	0x4010346d
40103424:	401034a5 	.word	0x401034a5
40103428:	4010349f 	.word	0x4010349f
4010342c:	4010349f 	.word	0x4010349f
40103430:	4010349f 	.word	0x4010349f
40103434:	4010349f 	.word	0x4010349f
40103438:	401034a5 	.word	0x401034a5
/home/zhangxiang/Downloads/op-tee2/OP-TEE/bios_qemu_tz_arm/libfdt/fdt.c:112 (discriminator 2)
4010343c:	6a7b      	ldr	r3, [r7, #36]	; 0x24
4010343e:	f103 0201 	add.w	r2, r3, #1
40103442:	627a      	str	r2, [r7, #36]	; 0x24
40103444:	f04f 0201 	mov.w	r2, #1
40103448:	4619      	mov	r1, r3
4010344a:	68f8      	ldr	r0, [r7, #12]
4010344c:	f7ff ff75 	bl	4010333a <fdt_offset_ptr>
40103450:	61b8      	str	r0, [r7, #24]
/home/zhangxiang/Downloads/op-tee2/OP-TEE/bios_qemu_tz_arm/libfdt/fdt.c:113 (discriminator 2)
40103452:	69bb      	ldr	r3, [r7, #24]
40103454:	2b00      	cmp	r3, #0
40103456:	d003      	beq.n	40103460 <fdt_next_tag+0xaa>
/home/zhangxiang/Downloads/op-tee2/OP-TEE/bios_qemu_tz_arm/libfdt/fdt.c:113 (discriminator 1)
40103458:	69bb      	ldr	r3, [r7, #24]
4010345a:	781b      	ldrb	r3, [r3, #0]
4010345c:	2b00      	cmp	r3, #0
4010345e:	d1ed      	bne.n	4010343c <fdt_next_tag+0x86>
/home/zhangxiang/Downloads/op-tee2/OP-TEE/bios_qemu_tz_arm/libfdt/fdt.c:114
40103460:	69bb      	ldr	r3, [r7, #24]
40103462:	2b00      	cmp	r3, #0
40103464:	d120      	bne.n	401034a8 <fdt_next_tag+0xf2>
/home/zhangxiang/Downloads/op-tee2/OP-TEE/bios_qemu_tz_arm/libfdt/fdt.c:115
40103466:	f04f 0309 	mov.w	r3, #9
4010346a:	e035      	b.n	401034d8 <fdt_next_tag+0x122>
/home/zhangxiang/Downloads/op-tee2/OP-TEE/bios_qemu_tz_arm/libfdt/fdt.c:119
4010346c:	f04f 0204 	mov.w	r2, #4
40103470:	6a79      	ldr	r1, [r7, #36]	; 0x24
40103472:	68f8      	ldr	r0, [r7, #12]
40103474:	f7ff ff61 	bl	4010333a <fdt_offset_ptr>
40103478:	6178      	str	r0, [r7, #20]
/home/zhangxiang/Downloads/op-tee2/OP-TEE/bios_qemu_tz_arm/libfdt/fdt.c:120
4010347a:	697b      	ldr	r3, [r7, #20]
4010347c:	2b00      	cmp	r3, #0
4010347e:	d102      	bne.n	40103486 <fdt_next_tag+0xd0>
/home/zhangxiang/Downloads/op-tee2/OP-TEE/bios_qemu_tz_arm/libfdt/fdt.c:121
40103480:	f04f 0309 	mov.w	r3, #9
40103484:	e028      	b.n	401034d8 <fdt_next_tag+0x122>
/home/zhangxiang/Downloads/op-tee2/OP-TEE/bios_qemu_tz_arm/libfdt/fdt.c:124
40103486:	697b      	ldr	r3, [r7, #20]
40103488:	681b      	ldr	r3, [r3, #0]
4010348a:	4618      	mov	r0, r3
4010348c:	f7ff fece 	bl	4010322c <fdt32_to_cpu>
40103490:	4603      	mov	r3, r0
40103492:	f103 0208 	add.w	r2, r3, #8
/home/zhangxiang/Downloads/op-tee2/OP-TEE/bios_qemu_tz_arm/libfdt/fdt.c:123
40103496:	6a7b      	ldr	r3, [r7, #36]	; 0x24
40103498:	4413      	add	r3, r2
4010349a:	627b      	str	r3, [r7, #36]	; 0x24
/home/zhangxiang/Downloads/op-tee2/OP-TEE/bios_qemu_tz_arm/libfdt/fdt.c:125
4010349c:	e005      	b.n	401034aa <fdt_next_tag+0xf4>
/home/zhangxiang/Downloads/op-tee2/OP-TEE/bios_qemu_tz_arm/libfdt/fdt.c:133
4010349e:	f04f 0309 	mov.w	r3, #9
401034a2:	e019      	b.n	401034d8 <fdt_next_tag+0x122>
/home/zhangxiang/Downloads/op-tee2/OP-TEE/bios_qemu_tz_arm/libfdt/fdt.c:130
401034a4:	bf00      	nop
401034a6:	e000      	b.n	401034aa <fdt_next_tag+0xf4>
/home/zhangxiang/Downloads/op-tee2/OP-TEE/bios_qemu_tz_arm/libfdt/fdt.c:116
401034a8:	bf00      	nop
/home/zhangxiang/Downloads/op-tee2/OP-TEE/bios_qemu_tz_arm/libfdt/fdt.c:136
401034aa:	6a7a      	ldr	r2, [r7, #36]	; 0x24
401034ac:	68bb      	ldr	r3, [r7, #8]
401034ae:	eba2 0303 	sub.w	r3, r2, r3
401034b2:	461a      	mov	r2, r3
401034b4:	68b9      	ldr	r1, [r7, #8]
401034b6:	68f8      	ldr	r0, [r7, #12]
401034b8:	f7ff ff3f 	bl	4010333a <fdt_offset_ptr>
401034bc:	4603      	mov	r3, r0
401034be:	2b00      	cmp	r3, #0
401034c0:	d102      	bne.n	401034c8 <fdt_next_tag+0x112>
/home/zhangxiang/Downloads/op-tee2/OP-TEE/bios_qemu_tz_arm/libfdt/fdt.c:137
401034c2:	f04f 0309 	mov.w	r3, #9
401034c6:	e007      	b.n	401034d8 <fdt_next_tag+0x122>
/home/zhangxiang/Downloads/op-tee2/OP-TEE/bios_qemu_tz_arm/libfdt/fdt.c:139
401034c8:	6a7b      	ldr	r3, [r7, #36]	; 0x24
401034ca:	f103 0303 	add.w	r3, r3, #3
401034ce:	f023 0203 	bic.w	r2, r3, #3
401034d2:	687b      	ldr	r3, [r7, #4]
401034d4:	601a      	str	r2, [r3, #0]
/home/zhangxiang/Downloads/op-tee2/OP-TEE/bios_qemu_tz_arm/libfdt/fdt.c:140
401034d6:	69fb      	ldr	r3, [r7, #28]
/home/zhangxiang/Downloads/op-tee2/OP-TEE/bios_qemu_tz_arm/libfdt/fdt.c:141
401034d8:	4618      	mov	r0, r3
401034da:	f107 0728 	add.w	r7, r7, #40	; 0x28
401034de:	46bd      	mov	sp, r7
401034e0:	bd80      	pop	{r7, pc}

401034e2 <_fdt_check_node_offset>:
_fdt_check_node_offset():
/home/zhangxiang/Downloads/op-tee2/OP-TEE/bios_qemu_tz_arm/libfdt/fdt.c:144
401034e2:	e96d 7e02 	strd	r7, lr, [sp, #-8]!
401034e6:	b082      	sub	sp, #8
401034e8:	af00      	add	r7, sp, #0
401034ea:	6078      	str	r0, [r7, #4]
401034ec:	6039      	str	r1, [r7, #0]
/home/zhangxiang/Downloads/op-tee2/OP-TEE/bios_qemu_tz_arm/libfdt/fdt.c:145
401034ee:	683b      	ldr	r3, [r7, #0]
401034f0:	2b00      	cmp	r3, #0
401034f2:	db0d      	blt.n	40103510 <_fdt_check_node_offset+0x2e>
/home/zhangxiang/Downloads/op-tee2/OP-TEE/bios_qemu_tz_arm/libfdt/fdt.c:145 (discriminator 1)
401034f4:	683b      	ldr	r3, [r7, #0]
401034f6:	f003 0303 	and.w	r3, r3, #3
401034fa:	2b00      	cmp	r3, #0
401034fc:	d108      	bne.n	40103510 <_fdt_check_node_offset+0x2e>
/home/zhangxiang/Downloads/op-tee2/OP-TEE/bios_qemu_tz_arm/libfdt/fdt.c:146
401034fe:	683b      	ldr	r3, [r7, #0]
40103500:	463a      	mov	r2, r7
40103502:	4619      	mov	r1, r3
40103504:	6878      	ldr	r0, [r7, #4]
40103506:	f7ff ff56 	bl	401033b6 <fdt_next_tag>
4010350a:	4603      	mov	r3, r0
4010350c:	2b01      	cmp	r3, #1
4010350e:	d002      	beq.n	40103516 <_fdt_check_node_offset+0x34>
/home/zhangxiang/Downloads/op-tee2/OP-TEE/bios_qemu_tz_arm/libfdt/fdt.c:147
40103510:	f06f 0303 	mvn.w	r3, #3
40103514:	e000      	b.n	40103518 <_fdt_check_node_offset+0x36>
/home/zhangxiang/Downloads/op-tee2/OP-TEE/bios_qemu_tz_arm/libfdt/fdt.c:149
40103516:	683b      	ldr	r3, [r7, #0]
/home/zhangxiang/Downloads/op-tee2/OP-TEE/bios_qemu_tz_arm/libfdt/fdt.c:150
40103518:	4618      	mov	r0, r3
4010351a:	f107 0708 	add.w	r7, r7, #8
4010351e:	46bd      	mov	sp, r7
40103520:	bd80      	pop	{r7, pc}

40103522 <_fdt_check_prop_offset>:
_fdt_check_prop_offset():
/home/zhangxiang/Downloads/op-tee2/OP-TEE/bios_qemu_tz_arm/libfdt/fdt.c:153
40103522:	e96d 7e02 	strd	r7, lr, [sp, #-8]!
40103526:	b082      	sub	sp, #8
40103528:	af00      	add	r7, sp, #0
4010352a:	6078      	str	r0, [r7, #4]
4010352c:	6039      	str	r1, [r7, #0]
/home/zhangxiang/Downloads/op-tee2/OP-TEE/bios_qemu_tz_arm/libfdt/fdt.c:154
4010352e:	683b      	ldr	r3, [r7, #0]
40103530:	2b00      	cmp	r3, #0
40103532:	db0d      	blt.n	40103550 <_fdt_check_prop_offset+0x2e>
/home/zhangxiang/Downloads/op-tee2/OP-TEE/bios_qemu_tz_arm/libfdt/fdt.c:154 (discriminator 1)
40103534:	683b      	ldr	r3, [r7, #0]
40103536:	f003 0303 	and.w	r3, r3, #3
4010353a:	2b00      	cmp	r3, #0
4010353c:	d108      	bne.n	40103550 <_fdt_check_prop_offset+0x2e>
/home/zhangxiang/Downloads/op-tee2/OP-TEE/bios_qemu_tz_arm/libfdt/fdt.c:155
4010353e:	683b      	ldr	r3, [r7, #0]
40103540:	463a      	mov	r2, r7
40103542:	4619      	mov	r1, r3
40103544:	6878      	ldr	r0, [r7, #4]
40103546:	f7ff ff36 	bl	401033b6 <fdt_next_tag>
4010354a:	4603      	mov	r3, r0
4010354c:	2b03      	cmp	r3, #3
4010354e:	d002      	beq.n	40103556 <_fdt_check_prop_offset+0x34>
/home/zhangxiang/Downloads/op-tee2/OP-TEE/bios_qemu_tz_arm/libfdt/fdt.c:156
40103550:	f06f 0303 	mvn.w	r3, #3
40103554:	e000      	b.n	40103558 <_fdt_check_prop_offset+0x36>
/home/zhangxiang/Downloads/op-tee2/OP-TEE/bios_qemu_tz_arm/libfdt/fdt.c:158
40103556:	683b      	ldr	r3, [r7, #0]
/home/zhangxiang/Downloads/op-tee2/OP-TEE/bios_qemu_tz_arm/libfdt/fdt.c:159
40103558:	4618      	mov	r0, r3
4010355a:	f107 0708 	add.w	r7, r7, #8
4010355e:	46bd      	mov	sp, r7
40103560:	bd80      	pop	{r7, pc}

40103562 <fdt_next_node>:
fdt_next_node():
/home/zhangxiang/Downloads/op-tee2/OP-TEE/bios_qemu_tz_arm/libfdt/fdt.c:162
40103562:	e96d 7e02 	strd	r7, lr, [sp, #-8]!
40103566:	b086      	sub	sp, #24
40103568:	af00      	add	r7, sp, #0
4010356a:	60f8      	str	r0, [r7, #12]
4010356c:	60b9      	str	r1, [r7, #8]
4010356e:	607a      	str	r2, [r7, #4]
/home/zhangxiang/Downloads/op-tee2/OP-TEE/bios_qemu_tz_arm/libfdt/fdt.c:163
40103570:	f04f 0300 	mov.w	r3, #0
40103574:	613b      	str	r3, [r7, #16]
/home/zhangxiang/Downloads/op-tee2/OP-TEE/bios_qemu_tz_arm/libfdt/fdt.c:166
40103576:	68bb      	ldr	r3, [r7, #8]
40103578:	2b00      	cmp	r3, #0
4010357a:	db0a      	blt.n	40103592 <fdt_next_node+0x30>
/home/zhangxiang/Downloads/op-tee2/OP-TEE/bios_qemu_tz_arm/libfdt/fdt.c:167
4010357c:	68b9      	ldr	r1, [r7, #8]
4010357e:	68f8      	ldr	r0, [r7, #12]
40103580:	f7ff ffaf 	bl	401034e2 <_fdt_check_node_offset>
40103584:	4603      	mov	r3, r0
40103586:	613b      	str	r3, [r7, #16]
40103588:	693b      	ldr	r3, [r7, #16]
4010358a:	2b00      	cmp	r3, #0
4010358c:	da01      	bge.n	40103592 <fdt_next_node+0x30>
/home/zhangxiang/Downloads/op-tee2/OP-TEE/bios_qemu_tz_arm/libfdt/fdt.c:168
4010358e:	693b      	ldr	r3, [r7, #16]
40103590:	e053      	b.n	4010363a <fdt_next_node+0xd8>
/home/zhangxiang/Downloads/op-tee2/OP-TEE/bios_qemu_tz_arm/libfdt/fdt.c:171
40103592:	693b      	ldr	r3, [r7, #16]
40103594:	60bb      	str	r3, [r7, #8]
/home/zhangxiang/Downloads/op-tee2/OP-TEE/bios_qemu_tz_arm/libfdt/fdt.c:172
40103596:	f107 0310 	add.w	r3, r7, #16
4010359a:	461a      	mov	r2, r3
4010359c:	68b9      	ldr	r1, [r7, #8]
4010359e:	68f8      	ldr	r0, [r7, #12]
401035a0:	f7ff ff09 	bl	401033b6 <fdt_next_tag>
401035a4:	6178      	str	r0, [r7, #20]
/home/zhangxiang/Downloads/op-tee2/OP-TEE/bios_qemu_tz_arm/libfdt/fdt.c:174
401035a6:	697b      	ldr	r3, [r7, #20]
401035a8:	f103 33ff 	add.w	r3, r3, #4294967295	; 0xffffffff
401035ac:	2b08      	cmp	r3, #8
401035ae:	d840      	bhi.n	40103632 <fdt_next_node+0xd0>
401035b0:	a201      	add	r2, pc, #4	; (adr r2, 401035b8 <fdt_next_node+0x56>)
401035b2:	f852 f023 	ldr.w	pc, [r2, r3, lsl #2]
401035b6:	bf00      	nop
401035b8:	401035dd 	.word	0x401035dd
401035bc:	401035f1 	.word	0x401035f1
401035c0:	40103633 	.word	0x40103633
401035c4:	40103633 	.word	0x40103633
401035c8:	40103633 	.word	0x40103633
401035cc:	40103633 	.word	0x40103633
401035d0:	40103633 	.word	0x40103633
401035d4:	40103633 	.word	0x40103633
401035d8:	4010360f 	.word	0x4010360f
/home/zhangxiang/Downloads/op-tee2/OP-TEE/bios_qemu_tz_arm/libfdt/fdt.c:180
401035dc:	687b      	ldr	r3, [r7, #4]
401035de:	2b00      	cmp	r3, #0
401035e0:	d024      	beq.n	4010362c <fdt_next_node+0xca>
/home/zhangxiang/Downloads/op-tee2/OP-TEE/bios_qemu_tz_arm/libfdt/fdt.c:181
401035e2:	687b      	ldr	r3, [r7, #4]
401035e4:	681b      	ldr	r3, [r3, #0]
401035e6:	f103 0201 	add.w	r2, r3, #1
401035ea:	687b      	ldr	r3, [r7, #4]
401035ec:	601a      	str	r2, [r3, #0]
/home/zhangxiang/Downloads/op-tee2/OP-TEE/bios_qemu_tz_arm/libfdt/fdt.c:182
401035ee:	e01d      	b.n	4010362c <fdt_next_node+0xca>
/home/zhangxiang/Downloads/op-tee2/OP-TEE/bios_qemu_tz_arm/libfdt/fdt.c:185
401035f0:	687b      	ldr	r3, [r7, #4]
401035f2:	2b00      	cmp	r3, #0
401035f4:	d01c      	beq.n	40103630 <fdt_next_node+0xce>
/home/zhangxiang/Downloads/op-tee2/OP-TEE/bios_qemu_tz_arm/libfdt/fdt.c:185 (discriminator 1)
401035f6:	687b      	ldr	r3, [r7, #4]
401035f8:	681b      	ldr	r3, [r3, #0]
401035fa:	f103 32ff 	add.w	r2, r3, #4294967295	; 0xffffffff
401035fe:	687b      	ldr	r3, [r7, #4]
40103600:	601a      	str	r2, [r3, #0]
40103602:	687b      	ldr	r3, [r7, #4]
40103604:	681b      	ldr	r3, [r3, #0]
40103606:	2b00      	cmp	r3, #0
40103608:	da12      	bge.n	40103630 <fdt_next_node+0xce>
/home/zhangxiang/Downloads/op-tee2/OP-TEE/bios_qemu_tz_arm/libfdt/fdt.c:186
4010360a:	693b      	ldr	r3, [r7, #16]
4010360c:	e015      	b.n	4010363a <fdt_next_node+0xd8>
/home/zhangxiang/Downloads/op-tee2/OP-TEE/bios_qemu_tz_arm/libfdt/fdt.c:190
4010360e:	693b      	ldr	r3, [r7, #16]
40103610:	2b00      	cmp	r3, #0
40103612:	da06      	bge.n	40103622 <fdt_next_node+0xc0>
/home/zhangxiang/Downloads/op-tee2/OP-TEE/bios_qemu_tz_arm/libfdt/fdt.c:191
40103614:	693b      	ldr	r3, [r7, #16]
40103616:	f113 0f08 	cmn.w	r3, #8
4010361a:	d105      	bne.n	40103628 <fdt_next_node+0xc6>
/home/zhangxiang/Downloads/op-tee2/OP-TEE/bios_qemu_tz_arm/libfdt/fdt.c:191 (discriminator 1)
4010361c:	687b      	ldr	r3, [r7, #4]
4010361e:	2b00      	cmp	r3, #0
40103620:	d102      	bne.n	40103628 <fdt_next_node+0xc6>
/home/zhangxiang/Downloads/op-tee2/OP-TEE/bios_qemu_tz_arm/libfdt/fdt.c:192
40103622:	f04f 33ff 	mov.w	r3, #4294967295	; 0xffffffff
40103626:	e008      	b.n	4010363a <fdt_next_node+0xd8>
/home/zhangxiang/Downloads/op-tee2/OP-TEE/bios_qemu_tz_arm/libfdt/fdt.c:194
40103628:	693b      	ldr	r3, [r7, #16]
4010362a:	e006      	b.n	4010363a <fdt_next_node+0xd8>
/home/zhangxiang/Downloads/op-tee2/OP-TEE/bios_qemu_tz_arm/libfdt/fdt.c:182
4010362c:	bf00      	nop
4010362e:	e000      	b.n	40103632 <fdt_next_node+0xd0>
/home/zhangxiang/Downloads/op-tee2/OP-TEE/bios_qemu_tz_arm/libfdt/fdt.c:187
40103630:	bf00      	nop
/home/zhangxiang/Downloads/op-tee2/OP-TEE/bios_qemu_tz_arm/libfdt/fdt.c:196
40103632:	697b      	ldr	r3, [r7, #20]
40103634:	2b01      	cmp	r3, #1
40103636:	d1ac      	bne.n	40103592 <fdt_next_node+0x30>
/home/zhangxiang/Downloads/op-tee2/OP-TEE/bios_qemu_tz_arm/libfdt/fdt.c:198
40103638:	68bb      	ldr	r3, [r7, #8]
/home/zhangxiang/Downloads/op-tee2/OP-TEE/bios_qemu_tz_arm/libfdt/fdt.c:199 (discriminator 1)
4010363a:	4618      	mov	r0, r3
4010363c:	f107 0718 	add.w	r7, r7, #24
40103640:	46bd      	mov	sp, r7
40103642:	bd80      	pop	{r7, pc}

40103644 <fdt_first_subnode>:
fdt_first_subnode():
/home/zhangxiang/Downloads/op-tee2/OP-TEE/bios_qemu_tz_arm/libfdt/fdt.c:202
40103644:	e96d 7e02 	strd	r7, lr, [sp, #-8]!
40103648:	b084      	sub	sp, #16
4010364a:	af00      	add	r7, sp, #0
4010364c:	6078      	str	r0, [r7, #4]
4010364e:	6039      	str	r1, [r7, #0]
/home/zhangxiang/Downloads/op-tee2/OP-TEE/bios_qemu_tz_arm/libfdt/fdt.c:203
40103650:	f04f 0300 	mov.w	r3, #0
40103654:	60fb      	str	r3, [r7, #12]
/home/zhangxiang/Downloads/op-tee2/OP-TEE/bios_qemu_tz_arm/libfdt/fdt.c:205
40103656:	f107 030c 	add.w	r3, r7, #12
4010365a:	461a      	mov	r2, r3
4010365c:	6839      	ldr	r1, [r7, #0]
4010365e:	6878      	ldr	r0, [r7, #4]
40103660:	f7ff ff7f 	bl	40103562 <fdt_next_node>
40103664:	6038      	str	r0, [r7, #0]
/home/zhangxiang/Downloads/op-tee2/OP-TEE/bios_qemu_tz_arm/libfdt/fdt.c:206
40103666:	683b      	ldr	r3, [r7, #0]
40103668:	2b00      	cmp	r3, #0
4010366a:	db02      	blt.n	40103672 <fdt_first_subnode+0x2e>
/home/zhangxiang/Downloads/op-tee2/OP-TEE/bios_qemu_tz_arm/libfdt/fdt.c:206 (discriminator 1)
4010366c:	68fb      	ldr	r3, [r7, #12]
4010366e:	2b01      	cmp	r3, #1
40103670:	d002      	beq.n	40103678 <fdt_first_subnode+0x34>
/home/zhangxiang/Downloads/op-tee2/OP-TEE/bios_qemu_tz_arm/libfdt/fdt.c:207
40103672:	f04f 33ff 	mov.w	r3, #4294967295	; 0xffffffff
40103676:	e000      	b.n	4010367a <fdt_first_subnode+0x36>
/home/zhangxiang/Downloads/op-tee2/OP-TEE/bios_qemu_tz_arm/libfdt/fdt.c:209
40103678:	683b      	ldr	r3, [r7, #0]
/home/zhangxiang/Downloads/op-tee2/OP-TEE/bios_qemu_tz_arm/libfdt/fdt.c:210 (discriminator 1)
4010367a:	4618      	mov	r0, r3
4010367c:	f107 0710 	add.w	r7, r7, #16
40103680:	46bd      	mov	sp, r7
40103682:	bd80      	pop	{r7, pc}

40103684 <fdt_next_subnode>:
fdt_next_subnode():
/home/zhangxiang/Downloads/op-tee2/OP-TEE/bios_qemu_tz_arm/libfdt/fdt.c:213
40103684:	e96d 7e02 	strd	r7, lr, [sp, #-8]!
40103688:	b084      	sub	sp, #16
4010368a:	af00      	add	r7, sp, #0
4010368c:	6078      	str	r0, [r7, #4]
4010368e:	6039      	str	r1, [r7, #0]
/home/zhangxiang/Downloads/op-tee2/OP-TEE/bios_qemu_tz_arm/libfdt/fdt.c:214
40103690:	f04f 0301 	mov.w	r3, #1
40103694:	60fb      	str	r3, [r7, #12]
/home/zhangxiang/Downloads/op-tee2/OP-TEE/bios_qemu_tz_arm/libfdt/fdt.c:221
40103696:	f107 030c 	add.w	r3, r7, #12
4010369a:	461a      	mov	r2, r3
4010369c:	6839      	ldr	r1, [r7, #0]
4010369e:	6878      	ldr	r0, [r7, #4]
401036a0:	f7ff ff5f 	bl	40103562 <fdt_next_node>
401036a4:	6038      	str	r0, [r7, #0]
/home/zhangxiang/Downloads/op-tee2/OP-TEE/bios_qemu_tz_arm/libfdt/fdt.c:222
401036a6:	683b      	ldr	r3, [r7, #0]
401036a8:	2b00      	cmp	r3, #0
401036aa:	db02      	blt.n	401036b2 <fdt_next_subnode+0x2e>
/home/zhangxiang/Downloads/op-tee2/OP-TEE/bios_qemu_tz_arm/libfdt/fdt.c:222 (discriminator 1)
401036ac:	68fb      	ldr	r3, [r7, #12]
401036ae:	2b00      	cmp	r3, #0
401036b0:	dc02      	bgt.n	401036b8 <fdt_next_subnode+0x34>
/home/zhangxiang/Downloads/op-tee2/OP-TEE/bios_qemu_tz_arm/libfdt/fdt.c:223
401036b2:	f04f 33ff 	mov.w	r3, #4294967295	; 0xffffffff
401036b6:	e003      	b.n	401036c0 <fdt_next_subnode+0x3c>
/home/zhangxiang/Downloads/op-tee2/OP-TEE/bios_qemu_tz_arm/libfdt/fdt.c:224
401036b8:	68fb      	ldr	r3, [r7, #12]
401036ba:	2b01      	cmp	r3, #1
401036bc:	dceb      	bgt.n	40103696 <fdt_next_subnode+0x12>
/home/zhangxiang/Downloads/op-tee2/OP-TEE/bios_qemu_tz_arm/libfdt/fdt.c:226
401036be:	683b      	ldr	r3, [r7, #0]
/home/zhangxiang/Downloads/op-tee2/OP-TEE/bios_qemu_tz_arm/libfdt/fdt.c:227 (discriminator 1)
401036c0:	4618      	mov	r0, r3
401036c2:	f107 0710 	add.w	r7, r7, #16
401036c6:	46bd      	mov	sp, r7
401036c8:	bd80      	pop	{r7, pc}

401036ca <_fdt_find_string>:
_fdt_find_string():
/home/zhangxiang/Downloads/op-tee2/OP-TEE/bios_qemu_tz_arm/libfdt/fdt.c:230
401036ca:	e96d 7e02 	strd	r7, lr, [sp, #-8]!
401036ce:	b088      	sub	sp, #32
401036d0:	af00      	add	r7, sp, #0
401036d2:	60f8      	str	r0, [r7, #12]
401036d4:	60b9      	str	r1, [r7, #8]
401036d6:	607a      	str	r2, [r7, #4]
/home/zhangxiang/Downloads/op-tee2/OP-TEE/bios_qemu_tz_arm/libfdt/fdt.c:231
401036d8:	6878      	ldr	r0, [r7, #4]
401036da:	f644 239d 	movw	r3, #19101	; 0x4a9d
401036de:	f2c4 0310 	movt	r3, #16400	; 0x4010
401036e2:	4798      	blx	r3
401036e4:	4603      	mov	r3, r0
401036e6:	f103 0301 	add.w	r3, r3, #1
401036ea:	61bb      	str	r3, [r7, #24]
/home/zhangxiang/Downloads/op-tee2/OP-TEE/bios_qemu_tz_arm/libfdt/fdt.c:232
401036ec:	68ba      	ldr	r2, [r7, #8]
401036ee:	69bb      	ldr	r3, [r7, #24]
401036f0:	eba2 0303 	sub.w	r3, r2, r3
401036f4:	68fa      	ldr	r2, [r7, #12]
401036f6:	4413      	add	r3, r2
401036f8:	617b      	str	r3, [r7, #20]
/home/zhangxiang/Downloads/op-tee2/OP-TEE/bios_qemu_tz_arm/libfdt/fdt.c:235
401036fa:	68fb      	ldr	r3, [r7, #12]
401036fc:	61fb      	str	r3, [r7, #28]
401036fe:	e011      	b.n	40103724 <_fdt_find_string+0x5a>
/home/zhangxiang/Downloads/op-tee2/OP-TEE/bios_qemu_tz_arm/libfdt/fdt.c:236
40103700:	69bb      	ldr	r3, [r7, #24]
40103702:	461a      	mov	r2, r3
40103704:	6879      	ldr	r1, [r7, #4]
40103706:	69f8      	ldr	r0, [r7, #28]
40103708:	f244 6399 	movw	r3, #18073	; 0x4699
4010370c:	f2c4 0310 	movt	r3, #16400	; 0x4010
40103710:	4798      	blx	r3
40103712:	4603      	mov	r3, r0
40103714:	2b00      	cmp	r3, #0
40103716:	d101      	bne.n	4010371c <_fdt_find_string+0x52>
/home/zhangxiang/Downloads/op-tee2/OP-TEE/bios_qemu_tz_arm/libfdt/fdt.c:237
40103718:	69fb      	ldr	r3, [r7, #28]
4010371a:	e009      	b.n	40103730 <_fdt_find_string+0x66>
/home/zhangxiang/Downloads/op-tee2/OP-TEE/bios_qemu_tz_arm/libfdt/fdt.c:235 (discriminator 2)
4010371c:	69fb      	ldr	r3, [r7, #28]
4010371e:	f103 0301 	add.w	r3, r3, #1
40103722:	61fb      	str	r3, [r7, #28]
/home/zhangxiang/Downloads/op-tee2/OP-TEE/bios_qemu_tz_arm/libfdt/fdt.c:235 (discriminator 1)
40103724:	69fa      	ldr	r2, [r7, #28]
40103726:	697b      	ldr	r3, [r7, #20]
40103728:	429a      	cmp	r2, r3
4010372a:	d9e9      	bls.n	40103700 <_fdt_find_string+0x36>
/home/zhangxiang/Downloads/op-tee2/OP-TEE/bios_qemu_tz_arm/libfdt/fdt.c:238
4010372c:	f04f 0300 	mov.w	r3, #0
/home/zhangxiang/Downloads/op-tee2/OP-TEE/bios_qemu_tz_arm/libfdt/fdt.c:239
40103730:	4618      	mov	r0, r3
40103732:	f107 0720 	add.w	r7, r7, #32
40103736:	46bd      	mov	sp, r7
40103738:	bd80      	pop	{r7, pc}

4010373a <fdt_move>:
fdt_move():
/home/zhangxiang/Downloads/op-tee2/OP-TEE/bios_qemu_tz_arm/libfdt/fdt.c:242
4010373a:	e96d 7e02 	strd	r7, lr, [sp, #-8]!
4010373e:	b086      	sub	sp, #24
40103740:	af00      	add	r7, sp, #0
40103742:	60f8      	str	r0, [r7, #12]
40103744:	60b9      	str	r1, [r7, #8]
40103746:	607a      	str	r2, [r7, #4]
/home/zhangxiang/Downloads/op-tee2/OP-TEE/bios_qemu_tz_arm/libfdt/fdt.c:243
40103748:	68f8      	ldr	r0, [r7, #12]
4010374a:	f7ff fdae 	bl	401032aa <fdt_check_header>
4010374e:	6178      	str	r0, [r7, #20]
40103750:	697b      	ldr	r3, [r7, #20]
40103752:	2b00      	cmp	r3, #0
40103754:	d001      	beq.n	4010375a <fdt_move+0x20>
/home/zhangxiang/Downloads/op-tee2/OP-TEE/bios_qemu_tz_arm/libfdt/fdt.c:243 (discriminator 1)
40103756:	697b      	ldr	r3, [r7, #20]
40103758:	e01b      	b.n	40103792 <fdt_move+0x58>
/home/zhangxiang/Downloads/op-tee2/OP-TEE/bios_qemu_tz_arm/libfdt/fdt.c:245
4010375a:	68fb      	ldr	r3, [r7, #12]
4010375c:	685b      	ldr	r3, [r3, #4]
4010375e:	4618      	mov	r0, r3
40103760:	f7ff fd64 	bl	4010322c <fdt32_to_cpu>
40103764:	4602      	mov	r2, r0
40103766:	687b      	ldr	r3, [r7, #4]
40103768:	429a      	cmp	r2, r3
4010376a:	d902      	bls.n	40103772 <fdt_move+0x38>
/home/zhangxiang/Downloads/op-tee2/OP-TEE/bios_qemu_tz_arm/libfdt/fdt.c:246
4010376c:	f06f 0302 	mvn.w	r3, #2
40103770:	e00f      	b.n	40103792 <fdt_move+0x58>
/home/zhangxiang/Downloads/op-tee2/OP-TEE/bios_qemu_tz_arm/libfdt/fdt.c:248
40103772:	68fb      	ldr	r3, [r7, #12]
40103774:	685b      	ldr	r3, [r3, #4]
40103776:	4618      	mov	r0, r3
40103778:	f7ff fd58 	bl	4010322c <fdt32_to_cpu>
4010377c:	4603      	mov	r3, r0
4010377e:	461a      	mov	r2, r3
40103780:	68f9      	ldr	r1, [r7, #12]
40103782:	68b8      	ldr	r0, [r7, #8]
40103784:	f644 0343 	movw	r3, #18499	; 0x4843
40103788:	f2c4 0310 	movt	r3, #16400	; 0x4010
4010378c:	4798      	blx	r3
/home/zhangxiang/Downloads/op-tee2/OP-TEE/bios_qemu_tz_arm/libfdt/fdt.c:249
4010378e:	f04f 0300 	mov.w	r3, #0
/home/zhangxiang/Downloads/op-tee2/OP-TEE/bios_qemu_tz_arm/libfdt/fdt.c:250
40103792:	4618      	mov	r0, r3
40103794:	f107 0718 	add.w	r7, r7, #24
40103798:	46bd      	mov	sp, r7
4010379a:	bd80      	pop	{r7, pc}

4010379c <snprintf>:
snprintf():
/home/zhangxiang/Downloads/op-tee2/OP-TEE/bios_qemu_tz_arm/libutils/isoc/snprintf.c:86
4010379c:	b40c      	push	{r2, r3}
4010379e:	e96d 7e02 	strd	r7, lr, [sp, #-8]!
401037a2:	b084      	sub	sp, #16
401037a4:	af00      	add	r7, sp, #0
401037a6:	6078      	str	r0, [r7, #4]
401037a8:	6039      	str	r1, [r7, #0]
/home/zhangxiang/Downloads/op-tee2/OP-TEE/bios_qemu_tz_arm/libutils/isoc/snprintf.c:90
401037aa:	f107 031c 	add.w	r3, r7, #28
401037ae:	60bb      	str	r3, [r7, #8]
/home/zhangxiang/Downloads/op-tee2/OP-TEE/bios_qemu_tz_arm/libutils/isoc/snprintf.c:91
401037b0:	68bb      	ldr	r3, [r7, #8]
401037b2:	69ba      	ldr	r2, [r7, #24]
401037b4:	6839      	ldr	r1, [r7, #0]
401037b6:	6878      	ldr	r0, [r7, #4]
401037b8:	f000 f80b 	bl	401037d2 <vsnprintf>
401037bc:	60f8      	str	r0, [r7, #12]
/home/zhangxiang/Downloads/op-tee2/OP-TEE/bios_qemu_tz_arm/libutils/isoc/snprintf.c:94
401037be:	68fb      	ldr	r3, [r7, #12]
/home/zhangxiang/Downloads/op-tee2/OP-TEE/bios_qemu_tz_arm/libutils/isoc/snprintf.c:95
401037c0:	4618      	mov	r0, r3
401037c2:	f107 0710 	add.w	r7, r7, #16
401037c6:	46bd      	mov	sp, r7
401037c8:	e9dd 7e00 	ldrd	r7, lr, [sp]
401037cc:	b002      	add	sp, #8
401037ce:	b002      	add	sp, #8
401037d0:	4770      	bx	lr

401037d2 <vsnprintf>:
vsnprintf():
/home/zhangxiang/Downloads/op-tee2/OP-TEE/bios_qemu_tz_arm/libutils/isoc/snprintf.c:102
401037d2:	e96d 7e02 	strd	r7, lr, [sp, #-8]!
401037d6:	b088      	sub	sp, #32
401037d8:	af02      	add	r7, sp, #8
401037da:	60f8      	str	r0, [r7, #12]
401037dc:	60b9      	str	r1, [r7, #8]
401037de:	607a      	str	r2, [r7, #4]
401037e0:	603b      	str	r3, [r7, #0]
/home/zhangxiang/Downloads/op-tee2/OP-TEE/bios_qemu_tz_arm/libutils/isoc/snprintf.c:106
401037e2:	68fa      	ldr	r2, [r7, #12]
401037e4:	68bb      	ldr	r3, [r7, #8]
401037e6:	4413      	add	r3, r2
401037e8:	613b      	str	r3, [r7, #16]
/home/zhangxiang/Downloads/op-tee2/OP-TEE/bios_qemu_tz_arm/libutils/isoc/snprintf.c:107
401037ea:	f107 0210 	add.w	r2, r7, #16
401037ee:	683b      	ldr	r3, [r7, #0]
401037f0:	9300      	str	r3, [sp, #0]
401037f2:	68fb      	ldr	r3, [r7, #12]
401037f4:	f04f 0108 	mov.w	r1, #8
401037f8:	6878      	ldr	r0, [r7, #4]
401037fa:	f000 f820 	bl	4010383e <kprintf>
401037fe:	6178      	str	r0, [r7, #20]
/home/zhangxiang/Downloads/op-tee2/OP-TEE/bios_qemu_tz_arm/libutils/isoc/snprintf.c:108
40103800:	68fb      	ldr	r3, [r7, #12]
40103802:	2b00      	cmp	r3, #0
40103804:	d015      	beq.n	40103832 <vsnprintf+0x60>
/home/zhangxiang/Downloads/op-tee2/OP-TEE/bios_qemu_tz_arm/libutils/isoc/snprintf.c:108 (discriminator 1)
40103806:	68bb      	ldr	r3, [r7, #8]
40103808:	2b00      	cmp	r3, #0
4010380a:	d012      	beq.n	40103832 <vsnprintf+0x60>
/home/zhangxiang/Downloads/op-tee2/OP-TEE/bios_qemu_tz_arm/libutils/isoc/snprintf.c:110
4010380c:	697b      	ldr	r3, [r7, #20]
4010380e:	68ba      	ldr	r2, [r7, #8]
40103810:	429a      	cmp	r2, r3
40103812:	d808      	bhi.n	40103826 <vsnprintf+0x54>
/home/zhangxiang/Downloads/op-tee2/OP-TEE/bios_qemu_tz_arm/libutils/isoc/snprintf.c:111
40103814:	68bb      	ldr	r3, [r7, #8]
40103816:	f103 33ff 	add.w	r3, r3, #4294967295	; 0xffffffff
4010381a:	68fa      	ldr	r2, [r7, #12]
4010381c:	4413      	add	r3, r2
4010381e:	f04f 0200 	mov.w	r2, #0
40103822:	701a      	strb	r2, [r3, #0]
40103824:	e005      	b.n	40103832 <vsnprintf+0x60>
/home/zhangxiang/Downloads/op-tee2/OP-TEE/bios_qemu_tz_arm/libutils/isoc/snprintf.c:113
40103826:	697b      	ldr	r3, [r7, #20]
40103828:	68fa      	ldr	r2, [r7, #12]
4010382a:	4413      	add	r3, r2
4010382c:	f04f 0200 	mov.w	r2, #0
40103830:	701a      	strb	r2, [r3, #0]
/home/zhangxiang/Downloads/op-tee2/OP-TEE/bios_qemu_tz_arm/libutils/isoc/snprintf.c:115
40103832:	697b      	ldr	r3, [r7, #20]
/home/zhangxiang/Downloads/op-tee2/OP-TEE/bios_qemu_tz_arm/libutils/isoc/snprintf.c:116
40103834:	4618      	mov	r0, r3
40103836:	f107 0718 	add.w	r7, r7, #24
4010383a:	46bd      	mov	sp, r7
4010383c:	bd80      	pop	{r7, pc}

4010383e <kprintf>:
kprintf():
/home/zhangxiang/Downloads/op-tee2/OP-TEE/bios_qemu_tz_arm/libutils/isoc/snprintf.c:184
4010383e:	f84d 4d1c 	str.w	r4, [sp, #-28]!
40103842:	e9cd 5601 	strd	r5, r6, [sp, #4]
40103846:	e9cd 7803 	strd	r7, r8, [sp, #12]
4010384a:	e9cd 9e05 	strd	r9, lr, [sp, #20]
4010384e:	b09f      	sub	sp, #124	; 0x7c
40103850:	af00      	add	r7, sp, #0
40103852:	60f8      	str	r0, [r7, #12]
40103854:	60b9      	str	r1, [r7, #8]
40103856:	607a      	str	r2, [r7, #4]
40103858:	603b      	str	r3, [r7, #0]
/home/zhangxiang/Downloads/op-tee2/OP-TEE/bios_qemu_tz_arm/libutils/isoc/snprintf.c:204
4010385a:	68bb      	ldr	r3, [r7, #8]
4010385c:	2b08      	cmp	r3, #8
4010385e:	d106      	bne.n	4010386e <kprintf+0x30>
/home/zhangxiang/Downloads/op-tee2/OP-TEE/bios_qemu_tz_arm/libutils/isoc/snprintf.c:204 (discriminator 1)
40103860:	687b      	ldr	r3, [r7, #4]
40103862:	2b00      	cmp	r3, #0
40103864:	d003      	beq.n	4010386e <kprintf+0x30>
/home/zhangxiang/Downloads/op-tee2/OP-TEE/bios_qemu_tz_arm/libutils/isoc/snprintf.c:205
40103866:	687b      	ldr	r3, [r7, #4]
40103868:	681b      	ldr	r3, [r3, #0]
4010386a:	633b      	str	r3, [r7, #48]	; 0x30
4010386c:	e002      	b.n	40103874 <kprintf+0x36>
/home/zhangxiang/Downloads/op-tee2/OP-TEE/bios_qemu_tz_arm/libutils/isoc/snprintf.c:207
4010386e:	f04f 0300 	mov.w	r3, #0
40103872:	633b      	str	r3, [r7, #48]	; 0x30
/home/zhangxiang/Downloads/op-tee2/OP-TEE/bios_qemu_tz_arm/libutils/isoc/snprintf.c:209
40103874:	f04f 0300 	mov.w	r3, #0
40103878:	66bb      	str	r3, [r7, #104]	; 0x68
/home/zhangxiang/Downloads/op-tee2/OP-TEE/bios_qemu_tz_arm/libutils/isoc/snprintf.c:210
4010387a:	f04f 0300 	mov.w	r3, #0
4010387e:	63bb      	str	r3, [r7, #56]	; 0x38
/home/zhangxiang/Downloads/op-tee2/OP-TEE/bios_qemu_tz_arm/libutils/isoc/snprintf.c:212
40103880:	68fb      	ldr	r3, [r7, #12]
40103882:	677b      	str	r3, [r7, #116]	; 0x74
/home/zhangxiang/Downloads/op-tee2/OP-TEE/bios_qemu_tz_arm/libutils/isoc/snprintf.c:213
40103884:	f04f 0300 	mov.w	r3, #0
40103888:	663b      	str	r3, [r7, #96]	; 0x60
/home/zhangxiang/Downloads/op-tee2/OP-TEE/bios_qemu_tz_arm/libutils/isoc/snprintf.c:215
4010388a:	f04f 0300 	mov.w	r3, #0
4010388e:	637b      	str	r3, [r7, #52]	; 0x34
/home/zhangxiang/Downloads/op-tee2/OP-TEE/bios_qemu_tz_arm/libutils/isoc/snprintf.c:221
40103890:	e01b      	b.n	401038ca <kprintf+0x8c>
/home/zhangxiang/Downloads/op-tee2/OP-TEE/bios_qemu_tz_arm/libutils/isoc/snprintf.c:222
40103892:	6e3b      	ldr	r3, [r7, #96]	; 0x60
40103894:	f103 0301 	add.w	r3, r3, #1
40103898:	663b      	str	r3, [r7, #96]	; 0x60
/home/zhangxiang/Downloads/op-tee2/OP-TEE/bios_qemu_tz_arm/libutils/isoc/snprintf.c:223
4010389a:	68bb      	ldr	r3, [r7, #8]
4010389c:	2b08      	cmp	r3, #8
4010389e:	d110      	bne.n	401038c2 <kprintf+0x84>
/home/zhangxiang/Downloads/op-tee2/OP-TEE/bios_qemu_tz_arm/libutils/isoc/snprintf.c:223 (discriminator 1)
401038a0:	683b      	ldr	r3, [r7, #0]
401038a2:	2b00      	cmp	r3, #0
401038a4:	d00d      	beq.n	401038c2 <kprintf+0x84>
/home/zhangxiang/Downloads/op-tee2/OP-TEE/bios_qemu_tz_arm/libutils/isoc/snprintf.c:223 (discriminator 2)
401038a6:	687b      	ldr	r3, [r7, #4]
401038a8:	2b00      	cmp	r3, #0
401038aa:	d003      	beq.n	401038b4 <kprintf+0x76>
/home/zhangxiang/Downloads/op-tee2/OP-TEE/bios_qemu_tz_arm/libutils/isoc/snprintf.c:223 (discriminator 4)
401038ac:	683a      	ldr	r2, [r7, #0]
401038ae:	6b3b      	ldr	r3, [r7, #48]	; 0x30
401038b0:	429a      	cmp	r2, r3
401038b2:	d206      	bcs.n	401038c2 <kprintf+0x84>
/home/zhangxiang/Downloads/op-tee2/OP-TEE/bios_qemu_tz_arm/libutils/isoc/snprintf.c:223 (discriminator 5)
401038b4:	683b      	ldr	r3, [r7, #0]
401038b6:	f103 0201 	add.w	r2, r3, #1
401038ba:	603a      	str	r2, [r7, #0]
401038bc:	6f7a      	ldr	r2, [r7, #116]	; 0x74
401038be:	7812      	ldrb	r2, [r2, #0]
401038c0:	701a      	strb	r2, [r3, #0]
/home/zhangxiang/Downloads/op-tee2/OP-TEE/bios_qemu_tz_arm/libutils/isoc/snprintf.c:221
401038c2:	6f7b      	ldr	r3, [r7, #116]	; 0x74
401038c4:	f103 0301 	add.w	r3, r3, #1
401038c8:	677b      	str	r3, [r7, #116]	; 0x74
/home/zhangxiang/Downloads/op-tee2/OP-TEE/bios_qemu_tz_arm/libutils/isoc/snprintf.c:221 (discriminator 1)
401038ca:	6f7b      	ldr	r3, [r7, #116]	; 0x74
401038cc:	781b      	ldrb	r3, [r3, #0]
401038ce:	2b25      	cmp	r3, #37	; 0x25
401038d0:	d003      	beq.n	401038da <kprintf+0x9c>
/home/zhangxiang/Downloads/op-tee2/OP-TEE/bios_qemu_tz_arm/libutils/isoc/snprintf.c:221 (discriminator 2)
401038d2:	6f7b      	ldr	r3, [r7, #116]	; 0x74
401038d4:	781b      	ldrb	r3, [r3, #0]
401038d6:	2b00      	cmp	r3, #0
401038d8:	d1db      	bne.n	40103892 <kprintf+0x54>
/home/zhangxiang/Downloads/op-tee2/OP-TEE/bios_qemu_tz_arm/libutils/isoc/snprintf.c:225
401038da:	6f7b      	ldr	r3, [r7, #116]	; 0x74
401038dc:	781b      	ldrb	r3, [r3, #0]
401038de:	2b00      	cmp	r3, #0
401038e0:	f000 8636 	beq.w	40104550 <kprintf+0xd12>
/home/zhangxiang/Downloads/op-tee2/OP-TEE/bios_qemu_tz_arm/libutils/isoc/snprintf.c:228
401038e4:	6f7b      	ldr	r3, [r7, #116]	; 0x74
401038e6:	f103 0301 	add.w	r3, r3, #1
401038ea:	677b      	str	r3, [r7, #116]	; 0x74
/home/zhangxiang/Downloads/op-tee2/OP-TEE/bios_qemu_tz_arm/libutils/isoc/snprintf.c:230
401038ec:	f04f 0300 	mov.w	r3, #0
401038f0:	667b      	str	r3, [r7, #100]	; 0x64
/home/zhangxiang/Downloads/op-tee2/OP-TEE/bios_qemu_tz_arm/libutils/isoc/snprintf.c:231
401038f2:	f04f 0300 	mov.w	r3, #0
401038f6:	643b      	str	r3, [r7, #64]	; 0x40
/home/zhangxiang/Downloads/op-tee2/OP-TEE/bios_qemu_tz_arm/libutils/isoc/snprintf.c:232
401038f8:	f04f 0300 	mov.w	r3, #0
401038fc:	65fb      	str	r3, [r7, #92]	; 0x5c
/home/zhangxiang/Downloads/op-tee2/OP-TEE/bios_qemu_tz_arm/libutils/isoc/snprintf.c:233
401038fe:	f04f 33ff 	mov.w	r3, #4294967295	; 0xffffffff
40103902:	65bb      	str	r3, [r7, #88]	; 0x58
/home/zhangxiang/Downloads/op-tee2/OP-TEE/bios_qemu_tz_arm/libutils/isoc/snprintf.c:234
40103904:	f04f 0300 	mov.w	r3, #0
40103908:	f887 3057 	strb.w	r3, [r7, #87]	; 0x57
/home/zhangxiang/Downloads/op-tee2/OP-TEE/bios_qemu_tz_arm/libutils/isoc/snprintf.c:236
4010390c:	6f7b      	ldr	r3, [r7, #116]	; 0x74
4010390e:	f103 0201 	add.w	r2, r3, #1
40103912:	677a      	str	r2, [r7, #116]	; 0x74
40103914:	781b      	ldrb	r3, [r3, #0]
40103916:	673b      	str	r3, [r7, #112]	; 0x70
/home/zhangxiang/Downloads/op-tee2/OP-TEE/bios_qemu_tz_arm/libutils/isoc/snprintf.c:237
40103918:	6f3b      	ldr	r3, [r7, #112]	; 0x70
4010391a:	f1a3 0320 	sub.w	r3, r3, #32
4010391e:	2b5a      	cmp	r3, #90	; 0x5a
40103920:	f200 84e7 	bhi.w	401042f2 <kprintf+0xab4>
40103924:	a201      	add	r2, pc, #4	; (adr r2, 4010392c <kprintf+0xee>)
40103926:	f852 f023 	ldr.w	pc, [r2, r3, lsl #2]
4010392a:	bf00      	nop
4010392c:	40103a99 	.word	0x40103a99
40103930:	401042f3 	.word	0x401042f3
40103934:	401042f3 	.word	0x401042f3
40103938:	40103aad 	.word	0x40103aad
4010393c:	401042f3 	.word	0x401042f3
40103940:	401042f3 	.word	0x401042f3
40103944:	401042f3 	.word	0x401042f3
40103948:	401042f3 	.word	0x401042f3
4010394c:	401042f3 	.word	0x401042f3
40103950:	401042f3 	.word	0x401042f3
40103954:	40103ab7 	.word	0x40103ab7
40103958:	40103ae1 	.word	0x40103ae1
4010395c:	401042f3 	.word	0x401042f3
40103960:	40103ad7 	.word	0x40103ad7
40103964:	40103aeb 	.word	0x40103aeb
40103968:	401042f3 	.word	0x401042f3
4010396c:	40103b59 	.word	0x40103b59
40103970:	40103b63 	.word	0x40103b63
40103974:	40103b63 	.word	0x40103b63
40103978:	40103b63 	.word	0x40103b63
4010397c:	40103b63 	.word	0x40103b63
40103980:	40103b63 	.word	0x40103b63
40103984:	40103b63 	.word	0x40103b63
40103988:	40103b63 	.word	0x40103b63
4010398c:	40103b63 	.word	0x40103b63
40103990:	40103b63 	.word	0x40103b63
40103994:	401042f3 	.word	0x401042f3
40103998:	401042f3 	.word	0x401042f3
4010399c:	401042f3 	.word	0x401042f3
401039a0:	401042f3 	.word	0x401042f3
401039a4:	401042f3 	.word	0x401042f3
401039a8:	401042f3 	.word	0x401042f3
401039ac:	401042f3 	.word	0x401042f3
401039b0:	401042f3 	.word	0x401042f3
401039b4:	401042f3 	.word	0x401042f3
401039b8:	401042f3 	.word	0x401042f3
401039bc:	40103c1f 	.word	0x40103c1f
401039c0:	401042f3 	.word	0x401042f3
401039c4:	401042f3 	.word	0x401042f3
401039c8:	401042f3 	.word	0x401042f3
401039cc:	401042f3 	.word	0x401042f3
401039d0:	401042f3 	.word	0x401042f3
401039d4:	401042f3 	.word	0x401042f3
401039d8:	401042f3 	.word	0x401042f3
401039dc:	401042f3 	.word	0x401042f3
401039e0:	401042f3 	.word	0x401042f3
401039e4:	401042f3 	.word	0x401042f3
401039e8:	40103df7 	.word	0x40103df7
401039ec:	401042f3 	.word	0x401042f3
401039f0:	401042f3 	.word	0x401042f3
401039f4:	401042f3 	.word	0x401042f3
401039f8:	401042f3 	.word	0x401042f3
401039fc:	401042f3 	.word	0x401042f3
40103a00:	40103f8b 	.word	0x40103f8b
40103a04:	401042f3 	.word	0x401042f3
40103a08:	401042f3 	.word	0x401042f3
40103a0c:	4010406f 	.word	0x4010406f
40103a10:	401042f3 	.word	0x401042f3
40103a14:	401042f3 	.word	0x401042f3
40103a18:	401042f3 	.word	0x401042f3
40103a1c:	401042f3 	.word	0x401042f3
40103a20:	401042f3 	.word	0x401042f3
40103a24:	401042f3 	.word	0x401042f3
40103a28:	401042f3 	.word	0x401042f3
40103a2c:	401042f3 	.word	0x401042f3
40103a30:	401042f3 	.word	0x401042f3
40103a34:	401042f3 	.word	0x401042f3
40103a38:	40103bf5 	.word	0x40103bf5
40103a3c:	40103c27 	.word	0x40103c27
40103a40:	401042f3 	.word	0x401042f3
40103a44:	401042f3 	.word	0x401042f3
40103a48:	401042f3 	.word	0x401042f3
40103a4c:	40103b9f 	.word	0x40103b9f
40103a50:	40103c27 	.word	0x40103c27
40103a54:	40103ba9 	.word	0x40103ba9
40103a58:	401042f3 	.word	0x401042f3
40103a5c:	40103bb3 	.word	0x40103bb3
40103a60:	401042f3 	.word	0x401042f3
40103a64:	40103d25 	.word	0x40103d25
40103a68:	40103dff 	.word	0x40103dff
40103a6c:	40103edb 	.word	0x40103edb
40103a70:	40103bd7 	.word	0x40103bd7
40103a74:	401042f3 	.word	0x401042f3
40103a78:	40103f11 	.word	0x40103f11
40103a7c:	40103be1 	.word	0x40103be1
40103a80:	40103f93 	.word	0x40103f93
40103a84:	401042f3 	.word	0x401042f3
40103a88:	401042f3 	.word	0x401042f3
40103a8c:	4010407b 	.word	0x4010407b
40103a90:	401042f3 	.word	0x401042f3
40103a94:	40103beb 	.word	0x40103beb
/home/zhangxiang/Downloads/op-tee2/OP-TEE/bios_qemu_tz_arm/libutils/isoc/snprintf.c:244
40103a98:	f897 3057 	ldrb.w	r3, [r7, #87]	; 0x57
40103a9c:	2b00      	cmp	r3, #0
40103a9e:	f47f af35 	bne.w	4010390c <kprintf+0xce>
/home/zhangxiang/Downloads/op-tee2/OP-TEE/bios_qemu_tz_arm/libutils/isoc/snprintf.c:245
40103aa2:	f04f 0320 	mov.w	r3, #32
40103aa6:	f887 3057 	strb.w	r3, [r7, #87]	; 0x57
/home/zhangxiang/Downloads/op-tee2/OP-TEE/bios_qemu_tz_arm/libutils/isoc/snprintf.c:246
40103aaa:	e72f      	b.n	4010390c <kprintf+0xce>
/home/zhangxiang/Downloads/op-tee2/OP-TEE/bios_qemu_tz_arm/libutils/isoc/snprintf.c:248
40103aac:	6e7b      	ldr	r3, [r7, #100]	; 0x64
40103aae:	f043 0301 	orr.w	r3, r3, #1
40103ab2:	667b      	str	r3, [r7, #100]	; 0x64
/home/zhangxiang/Downloads/op-tee2/OP-TEE/bios_qemu_tz_arm/libutils/isoc/snprintf.c:249
40103ab4:	e72a      	b.n	4010390c <kprintf+0xce>
/home/zhangxiang/Downloads/op-tee2/OP-TEE/bios_qemu_tz_arm/libutils/isoc/snprintf.c:257
40103ab6:	f8d7 3098 	ldr.w	r3, [r7, #152]	; 0x98
40103aba:	f103 0204 	add.w	r2, r3, #4
40103abe:	f8c7 2098 	str.w	r2, [r7, #152]	; 0x98
40103ac2:	681b      	ldr	r3, [r3, #0]
40103ac4:	65fb      	str	r3, [r7, #92]	; 0x5c
40103ac6:	6dfb      	ldr	r3, [r7, #92]	; 0x5c
40103ac8:	2b00      	cmp	r3, #0
40103aca:	db00      	blt.n	40103ace <kprintf+0x290>
/home/zhangxiang/Downloads/op-tee2/OP-TEE/bios_qemu_tz_arm/libutils/isoc/snprintf.c:258
40103acc:	e71e      	b.n	4010390c <kprintf+0xce>
/home/zhangxiang/Downloads/op-tee2/OP-TEE/bios_qemu_tz_arm/libutils/isoc/snprintf.c:259
40103ace:	6dfb      	ldr	r3, [r7, #92]	; 0x5c
40103ad0:	f1c3 0300 	rsb	r3, r3, #0
40103ad4:	65fb      	str	r3, [r7, #92]	; 0x5c
/home/zhangxiang/Downloads/op-tee2/OP-TEE/bios_qemu_tz_arm/libutils/isoc/snprintf.c:262
40103ad6:	6e7b      	ldr	r3, [r7, #100]	; 0x64
40103ad8:	f043 0304 	orr.w	r3, r3, #4
40103adc:	667b      	str	r3, [r7, #100]	; 0x64
/home/zhangxiang/Downloads/op-tee2/OP-TEE/bios_qemu_tz_arm/libutils/isoc/snprintf.c:263
40103ade:	e715      	b.n	4010390c <kprintf+0xce>
/home/zhangxiang/Downloads/op-tee2/OP-TEE/bios_qemu_tz_arm/libutils/isoc/snprintf.c:265
40103ae0:	f04f 032b 	mov.w	r3, #43	; 0x2b
40103ae4:	f887 3057 	strb.w	r3, [r7, #87]	; 0x57
/home/zhangxiang/Downloads/op-tee2/OP-TEE/bios_qemu_tz_arm/libutils/isoc/snprintf.c:266
40103ae8:	e710      	b.n	4010390c <kprintf+0xce>
/home/zhangxiang/Downloads/op-tee2/OP-TEE/bios_qemu_tz_arm/libutils/isoc/snprintf.c:268
40103aea:	6f7b      	ldr	r3, [r7, #116]	; 0x74
40103aec:	f103 0201 	add.w	r2, r3, #1
40103af0:	677a      	str	r2, [r7, #116]	; 0x74
40103af2:	781b      	ldrb	r3, [r3, #0]
40103af4:	673b      	str	r3, [r7, #112]	; 0x70
40103af6:	6f3b      	ldr	r3, [r7, #112]	; 0x70
40103af8:	2b2a      	cmp	r3, #42	; 0x2a
40103afa:	d10c      	bne.n	40103b16 <kprintf+0x2d8>
/home/zhangxiang/Downloads/op-tee2/OP-TEE/bios_qemu_tz_arm/libutils/isoc/snprintf.c:269
40103afc:	f8d7 3098 	ldr.w	r3, [r7, #152]	; 0x98
40103b00:	f103 0204 	add.w	r2, r3, #4
40103b04:	f8c7 2098 	str.w	r2, [r7, #152]	; 0x98
40103b08:	681b      	ldr	r3, [r3, #0]
40103b0a:	66fb      	str	r3, [r7, #108]	; 0x6c
/home/zhangxiang/Downloads/op-tee2/OP-TEE/bios_qemu_tz_arm/libutils/isoc/snprintf.c:270
40103b0c:	6efb      	ldr	r3, [r7, #108]	; 0x6c
40103b0e:	ea43 73e3 	orr.w	r3, r3, r3, asr #31
40103b12:	65bb      	str	r3, [r7, #88]	; 0x58
/home/zhangxiang/Downloads/op-tee2/OP-TEE/bios_qemu_tz_arm/libutils/isoc/snprintf.c:271
40103b14:	e6fa      	b.n	4010390c <kprintf+0xce>
/home/zhangxiang/Downloads/op-tee2/OP-TEE/bios_qemu_tz_arm/libutils/isoc/snprintf.c:273
40103b16:	f04f 0300 	mov.w	r3, #0
40103b1a:	66fb      	str	r3, [r7, #108]	; 0x6c
/home/zhangxiang/Downloads/op-tee2/OP-TEE/bios_qemu_tz_arm/libutils/isoc/snprintf.c:274
40103b1c:	e012      	b.n	40103b44 <kprintf+0x306>
/home/zhangxiang/Downloads/op-tee2/OP-TEE/bios_qemu_tz_arm/libutils/isoc/snprintf.c:275
40103b1e:	6efa      	ldr	r2, [r7, #108]	; 0x6c
40103b20:	4613      	mov	r3, r2
40103b22:	ea4f 0383 	mov.w	r3, r3, lsl #2
40103b26:	4413      	add	r3, r2
40103b28:	ea4f 0343 	mov.w	r3, r3, lsl #1
40103b2c:	461a      	mov	r2, r3
40103b2e:	6f3b      	ldr	r3, [r7, #112]	; 0x70
40103b30:	f1a3 0330 	sub.w	r3, r3, #48	; 0x30
40103b34:	4413      	add	r3, r2
40103b36:	66fb      	str	r3, [r7, #108]	; 0x6c
/home/zhangxiang/Downloads/op-tee2/OP-TEE/bios_qemu_tz_arm/libutils/isoc/snprintf.c:276
40103b38:	6f7b      	ldr	r3, [r7, #116]	; 0x74
40103b3a:	f103 0201 	add.w	r2, r3, #1
40103b3e:	677a      	str	r2, [r7, #116]	; 0x74
40103b40:	781b      	ldrb	r3, [r3, #0]
40103b42:	673b      	str	r3, [r7, #112]	; 0x70
/home/zhangxiang/Downloads/op-tee2/OP-TEE/bios_qemu_tz_arm/libutils/isoc/snprintf.c:274
40103b44:	6f3b      	ldr	r3, [r7, #112]	; 0x70
40103b46:	f1a3 0330 	sub.w	r3, r3, #48	; 0x30
40103b4a:	2b09      	cmp	r3, #9
40103b4c:	d9e7      	bls.n	40103b1e <kprintf+0x2e0>
/home/zhangxiang/Downloads/op-tee2/OP-TEE/bios_qemu_tz_arm/libutils/isoc/snprintf.c:278
40103b4e:	6efb      	ldr	r3, [r7, #108]	; 0x6c
40103b50:	ea43 73e3 	orr.w	r3, r3, r3, asr #31
40103b54:	65bb      	str	r3, [r7, #88]	; 0x58
/home/zhangxiang/Downloads/op-tee2/OP-TEE/bios_qemu_tz_arm/libutils/isoc/snprintf.c:279
40103b56:	e6df      	b.n	40103918 <kprintf+0xda>
/home/zhangxiang/Downloads/op-tee2/OP-TEE/bios_qemu_tz_arm/libutils/isoc/snprintf.c:286
40103b58:	6e7b      	ldr	r3, [r7, #100]	; 0x64
40103b5a:	f443 6380 	orr.w	r3, r3, #1024	; 0x400
40103b5e:	667b      	str	r3, [r7, #100]	; 0x64
/home/zhangxiang/Downloads/op-tee2/OP-TEE/bios_qemu_tz_arm/libutils/isoc/snprintf.c:287
40103b60:	e6d4      	b.n	4010390c <kprintf+0xce>
/home/zhangxiang/Downloads/op-tee2/OP-TEE/bios_qemu_tz_arm/libutils/isoc/snprintf.c:290
40103b62:	f04f 0300 	mov.w	r3, #0
40103b66:	66fb      	str	r3, [r7, #108]	; 0x6c
/home/zhangxiang/Downloads/op-tee2/OP-TEE/bios_qemu_tz_arm/libutils/isoc/snprintf.c:292 (discriminator 1)
40103b68:	6efa      	ldr	r2, [r7, #108]	; 0x6c
40103b6a:	4613      	mov	r3, r2
40103b6c:	ea4f 0383 	mov.w	r3, r3, lsl #2
40103b70:	4413      	add	r3, r2
40103b72:	ea4f 0343 	mov.w	r3, r3, lsl #1
40103b76:	461a      	mov	r2, r3
40103b78:	6f3b      	ldr	r3, [r7, #112]	; 0x70
40103b7a:	f1a3 0330 	sub.w	r3, r3, #48	; 0x30
40103b7e:	4413      	add	r3, r2
40103b80:	66fb      	str	r3, [r7, #108]	; 0x6c
/home/zhangxiang/Downloads/op-tee2/OP-TEE/bios_qemu_tz_arm/libutils/isoc/snprintf.c:293 (discriminator 1)
40103b82:	6f7b      	ldr	r3, [r7, #116]	; 0x74
40103b84:	f103 0201 	add.w	r2, r3, #1
40103b88:	677a      	str	r2, [r7, #116]	; 0x74
40103b8a:	781b      	ldrb	r3, [r3, #0]
40103b8c:	673b      	str	r3, [r7, #112]	; 0x70
/home/zhangxiang/Downloads/op-tee2/OP-TEE/bios_qemu_tz_arm/libutils/isoc/snprintf.c:294 (discriminator 1)
40103b8e:	6f3b      	ldr	r3, [r7, #112]	; 0x70
40103b90:	f1a3 0330 	sub.w	r3, r3, #48	; 0x30
40103b94:	2b09      	cmp	r3, #9
40103b96:	d9e7      	bls.n	40103b68 <kprintf+0x32a>
/home/zhangxiang/Downloads/op-tee2/OP-TEE/bios_qemu_tz_arm/libutils/isoc/snprintf.c:295
40103b98:	6efb      	ldr	r3, [r7, #108]	; 0x6c
40103b9a:	65fb      	str	r3, [r7, #92]	; 0x5c
/home/zhangxiang/Downloads/op-tee2/OP-TEE/bios_qemu_tz_arm/libutils/isoc/snprintf.c:296
40103b9c:	e6bc      	b.n	40103918 <kprintf+0xda>
/home/zhangxiang/Downloads/op-tee2/OP-TEE/bios_qemu_tz_arm/libutils/isoc/snprintf.c:298
40103b9e:	6e7b      	ldr	r3, [r7, #100]	; 0x64
40103ba0:	f043 0340 	orr.w	r3, r3, #64	; 0x40
40103ba4:	667b      	str	r3, [r7, #100]	; 0x64
/home/zhangxiang/Downloads/op-tee2/OP-TEE/bios_qemu_tz_arm/libutils/isoc/snprintf.c:299
40103ba6:	e6b1      	b.n	4010390c <kprintf+0xce>
/home/zhangxiang/Downloads/op-tee2/OP-TEE/bios_qemu_tz_arm/libutils/isoc/snprintf.c:301
40103ba8:	6e7b      	ldr	r3, [r7, #100]	; 0x64
40103baa:	f043 0380 	orr.w	r3, r3, #128	; 0x80
40103bae:	667b      	str	r3, [r7, #100]	; 0x64
/home/zhangxiang/Downloads/op-tee2/OP-TEE/bios_qemu_tz_arm/libutils/isoc/snprintf.c:302
40103bb0:	e6ac      	b.n	4010390c <kprintf+0xce>
/home/zhangxiang/Downloads/op-tee2/OP-TEE/bios_qemu_tz_arm/libutils/isoc/snprintf.c:304
40103bb2:	6f7b      	ldr	r3, [r7, #116]	; 0x74
40103bb4:	781b      	ldrb	r3, [r3, #0]
40103bb6:	2b6c      	cmp	r3, #108	; 0x6c
40103bb8:	d108      	bne.n	40103bcc <kprintf+0x38e>
/home/zhangxiang/Downloads/op-tee2/OP-TEE/bios_qemu_tz_arm/libutils/isoc/snprintf.c:305
40103bba:	6f7b      	ldr	r3, [r7, #116]	; 0x74
40103bbc:	f103 0301 	add.w	r3, r3, #1
40103bc0:	677b      	str	r3, [r7, #116]	; 0x74
/home/zhangxiang/Downloads/op-tee2/OP-TEE/bios_qemu_tz_arm/libutils/isoc/snprintf.c:306
40103bc2:	6e7b      	ldr	r3, [r7, #100]	; 0x64
40103bc4:	f043 0320 	orr.w	r3, r3, #32
40103bc8:	667b      	str	r3, [r7, #100]	; 0x64
40103bca:	e69f      	b.n	4010390c <kprintf+0xce>
/home/zhangxiang/Downloads/op-tee2/OP-TEE/bios_qemu_tz_arm/libutils/isoc/snprintf.c:308
40103bcc:	6e7b      	ldr	r3, [r7, #100]	; 0x64
40103bce:	f043 0310 	orr.w	r3, r3, #16
40103bd2:	667b      	str	r3, [r7, #100]	; 0x64
/home/zhangxiang/Downloads/op-tee2/OP-TEE/bios_qemu_tz_arm/libutils/isoc/snprintf.c:310
40103bd4:	e69a      	b.n	4010390c <kprintf+0xce>
/home/zhangxiang/Downloads/op-tee2/OP-TEE/bios_qemu_tz_arm/libutils/isoc/snprintf.c:312
40103bd6:	6e7b      	ldr	r3, [r7, #100]	; 0x64
40103bd8:	f043 0320 	orr.w	r3, r3, #32
40103bdc:	667b      	str	r3, [r7, #100]	; 0x64
/home/zhangxiang/Downloads/op-tee2/OP-TEE/bios_qemu_tz_arm/libutils/isoc/snprintf.c:313
40103bde:	e695      	b.n	4010390c <kprintf+0xce>
/home/zhangxiang/Downloads/op-tee2/OP-TEE/bios_qemu_tz_arm/libutils/isoc/snprintf.c:315
40103be0:	6e7b      	ldr	r3, [r7, #100]	; 0x64
40103be2:	f443 7380 	orr.w	r3, r3, #256	; 0x100
40103be6:	667b      	str	r3, [r7, #100]	; 0x64
/home/zhangxiang/Downloads/op-tee2/OP-TEE/bios_qemu_tz_arm/libutils/isoc/snprintf.c:316
40103be8:	e690      	b.n	4010390c <kprintf+0xce>
/home/zhangxiang/Downloads/op-tee2/OP-TEE/bios_qemu_tz_arm/libutils/isoc/snprintf.c:318
40103bea:	6e7b      	ldr	r3, [r7, #100]	; 0x64
40103bec:	f443 7300 	orr.w	r3, r3, #512	; 0x200
40103bf0:	667b      	str	r3, [r7, #100]	; 0x64
/home/zhangxiang/Downloads/op-tee2/OP-TEE/bios_qemu_tz_arm/libutils/isoc/snprintf.c:319
40103bf2:	e68b      	b.n	4010390c <kprintf+0xce>
/home/zhangxiang/Downloads/op-tee2/OP-TEE/bios_qemu_tz_arm/libutils/isoc/snprintf.c:321
40103bf4:	f107 0314 	add.w	r3, r7, #20
40103bf8:	66bb      	str	r3, [r7, #104]	; 0x68
40103bfa:	f8d7 3098 	ldr.w	r3, [r7, #152]	; 0x98
40103bfe:	f103 0204 	add.w	r2, r3, #4
40103c02:	f8c7 2098 	str.w	r2, [r7, #152]	; 0x98
40103c06:	681b      	ldr	r3, [r3, #0]
40103c08:	b2da      	uxtb	r2, r3
40103c0a:	6ebb      	ldr	r3, [r7, #104]	; 0x68
40103c0c:	701a      	strb	r2, [r3, #0]
/home/zhangxiang/Downloads/op-tee2/OP-TEE/bios_qemu_tz_arm/libutils/isoc/snprintf.c:322
40103c0e:	f04f 0301 	mov.w	r3, #1
40103c12:	63bb      	str	r3, [r7, #56]	; 0x38
/home/zhangxiang/Downloads/op-tee2/OP-TEE/bios_qemu_tz_arm/libutils/isoc/snprintf.c:323
40103c14:	f04f 0300 	mov.w	r3, #0
40103c18:	f887 3057 	strb.w	r3, [r7, #87]	; 0x57
/home/zhangxiang/Downloads/op-tee2/OP-TEE/bios_qemu_tz_arm/libutils/isoc/snprintf.c:324
40103c1c:	e37c      	b.n	40104318 <kprintf+0xada>
/home/zhangxiang/Downloads/op-tee2/OP-TEE/bios_qemu_tz_arm/libutils/isoc/snprintf.c:326
40103c1e:	6e7b      	ldr	r3, [r7, #100]	; 0x64
40103c20:	f043 0310 	orr.w	r3, r3, #16
40103c24:	667b      	str	r3, [r7, #100]	; 0x64
/home/zhangxiang/Downloads/op-tee2/OP-TEE/bios_qemu_tz_arm/libutils/isoc/snprintf.c:330
40103c26:	6e7b      	ldr	r3, [r7, #100]	; 0x64
40103c28:	f003 0380 	and.w	r3, r3, #128	; 0x80
40103c2c:	2b00      	cmp	r3, #0
40103c2e:	d009      	beq.n	40103c44 <kprintf+0x406>
/home/zhangxiang/Downloads/op-tee2/OP-TEE/bios_qemu_tz_arm/libutils/isoc/snprintf.c:330 (discriminator 1)
40103c30:	f8d7 3098 	ldr.w	r3, [r7, #152]	; 0x98
40103c34:	f103 0204 	add.w	r2, r3, #4
40103c38:	f8c7 2098 	str.w	r2, [r7, #152]	; 0x98
40103c3c:	681b      	ldr	r3, [r3, #0]
40103c3e:	ea4f 74e3 	mov.w	r4, r3, asr #31
40103c42:	e058      	b.n	40103cf6 <kprintf+0x4b8>
/home/zhangxiang/Downloads/op-tee2/OP-TEE/bios_qemu_tz_arm/libutils/isoc/snprintf.c:330 (discriminator 2)
40103c44:	6e7b      	ldr	r3, [r7, #100]	; 0x64
40103c46:	f403 7380 	and.w	r3, r3, #256	; 0x100
40103c4a:	2b00      	cmp	r3, #0
40103c4c:	d009      	beq.n	40103c62 <kprintf+0x424>
/home/zhangxiang/Downloads/op-tee2/OP-TEE/bios_qemu_tz_arm/libutils/isoc/snprintf.c:330 (discriminator 4)
40103c4e:	f8d7 3098 	ldr.w	r3, [r7, #152]	; 0x98
40103c52:	f103 0204 	add.w	r2, r3, #4
40103c56:	f8c7 2098 	str.w	r2, [r7, #152]	; 0x98
40103c5a:	681b      	ldr	r3, [r3, #0]
40103c5c:	ea4f 74e3 	mov.w	r4, r3, asr #31
40103c60:	e049      	b.n	40103cf6 <kprintf+0x4b8>
/home/zhangxiang/Downloads/op-tee2/OP-TEE/bios_qemu_tz_arm/libutils/isoc/snprintf.c:330 (discriminator 5)
40103c62:	6e7b      	ldr	r3, [r7, #100]	; 0x64
40103c64:	f403 7300 	and.w	r3, r3, #512	; 0x200
40103c68:	2b00      	cmp	r3, #0
40103c6a:	d009      	beq.n	40103c80 <kprintf+0x442>
/home/zhangxiang/Downloads/op-tee2/OP-TEE/bios_qemu_tz_arm/libutils/isoc/snprintf.c:330 (discriminator 7)
40103c6c:	f8d7 3098 	ldr.w	r3, [r7, #152]	; 0x98
40103c70:	f103 0204 	add.w	r2, r3, #4
40103c74:	f8c7 2098 	str.w	r2, [r7, #152]	; 0x98
40103c78:	681b      	ldr	r3, [r3, #0]
40103c7a:	ea4f 74e3 	mov.w	r4, r3, asr #31
40103c7e:	e03a      	b.n	40103cf6 <kprintf+0x4b8>
/home/zhangxiang/Downloads/op-tee2/OP-TEE/bios_qemu_tz_arm/libutils/isoc/snprintf.c:330 (discriminator 8)
40103c80:	6e7b      	ldr	r3, [r7, #100]	; 0x64
40103c82:	f003 0320 	and.w	r3, r3, #32
40103c86:	2b00      	cmp	r3, #0
40103c88:	d00c      	beq.n	40103ca4 <kprintf+0x466>
/home/zhangxiang/Downloads/op-tee2/OP-TEE/bios_qemu_tz_arm/libutils/isoc/snprintf.c:330 (discriminator 10)
40103c8a:	f8d7 3098 	ldr.w	r3, [r7, #152]	; 0x98
40103c8e:	f103 0307 	add.w	r3, r3, #7
40103c92:	f023 0307 	bic.w	r3, r3, #7
40103c96:	f103 0208 	add.w	r2, r3, #8
40103c9a:	f8c7 2098 	str.w	r2, [r7, #152]	; 0x98
40103c9e:	e9d3 3400 	ldrd	r3, r4, [r3]
40103ca2:	e028      	b.n	40103cf6 <kprintf+0x4b8>
/home/zhangxiang/Downloads/op-tee2/OP-TEE/bios_qemu_tz_arm/libutils/isoc/snprintf.c:330 (discriminator 11)
40103ca4:	6e7b      	ldr	r3, [r7, #100]	; 0x64
40103ca6:	f003 0310 	and.w	r3, r3, #16
40103caa:	2b00      	cmp	r3, #0
40103cac:	d009      	beq.n	40103cc2 <kprintf+0x484>
/home/zhangxiang/Downloads/op-tee2/OP-TEE/bios_qemu_tz_arm/libutils/isoc/snprintf.c:330 (discriminator 13)
40103cae:	f8d7 3098 	ldr.w	r3, [r7, #152]	; 0x98
40103cb2:	f103 0204 	add.w	r2, r3, #4
40103cb6:	f8c7 2098 	str.w	r2, [r7, #152]	; 0x98
40103cba:	681b      	ldr	r3, [r3, #0]
40103cbc:	ea4f 74e3 	mov.w	r4, r3, asr #31
40103cc0:	e019      	b.n	40103cf6 <kprintf+0x4b8>
/home/zhangxiang/Downloads/op-tee2/OP-TEE/bios_qemu_tz_arm/libutils/isoc/snprintf.c:330 (discriminator 14)
40103cc2:	6e7b      	ldr	r3, [r7, #100]	; 0x64
40103cc4:	f003 0340 	and.w	r3, r3, #64	; 0x40
40103cc8:	2b00      	cmp	r3, #0
40103cca:	d00b      	beq.n	40103ce4 <kprintf+0x4a6>
/home/zhangxiang/Downloads/op-tee2/OP-TEE/bios_qemu_tz_arm/libutils/isoc/snprintf.c:330 (discriminator 16)
40103ccc:	f8d7 3098 	ldr.w	r3, [r7, #152]	; 0x98
40103cd0:	f103 0204 	add.w	r2, r3, #4
40103cd4:	f8c7 2098 	str.w	r2, [r7, #152]	; 0x98
40103cd8:	681b      	ldr	r3, [r3, #0]
40103cda:	b21b      	sxth	r3, r3
40103cdc:	b21b      	sxth	r3, r3
40103cde:	ea4f 74e3 	mov.w	r4, r3, asr #31
40103ce2:	e008      	b.n	40103cf6 <kprintf+0x4b8>
/home/zhangxiang/Downloads/op-tee2/OP-TEE/bios_qemu_tz_arm/libutils/isoc/snprintf.c:330 (discriminator 17)
40103ce4:	f8d7 3098 	ldr.w	r3, [r7, #152]	; 0x98
40103ce8:	f103 0204 	add.w	r2, r3, #4
40103cec:	f8c7 2098 	str.w	r2, [r7, #152]	; 0x98
40103cf0:	681b      	ldr	r3, [r3, #0]
40103cf2:	ea4f 74e3 	mov.w	r4, r3, asr #31
/home/zhangxiang/Downloads/op-tee2/OP-TEE/bios_qemu_tz_arm/libutils/isoc/snprintf.c:330 (discriminator 24)
40103cf6:	e9c7 3412 	strd	r3, r4, [r7, #72]	; 0x48
/home/zhangxiang/Downloads/op-tee2/OP-TEE/bios_qemu_tz_arm/libutils/isoc/snprintf.c:331 (discriminator 24)
40103cfa:	e9d7 3412 	ldrd	r3, r4, [r7, #72]	; 0x48
40103cfe:	2b00      	cmp	r3, #0
40103d00:	f174 0300 	sbcs.w	r3, r4, #0
40103d04:	da0a      	bge.n	40103d1c <kprintf+0x4de>
/home/zhangxiang/Downloads/op-tee2/OP-TEE/bios_qemu_tz_arm/libutils/isoc/snprintf.c:332
40103d06:	e9d7 3412 	ldrd	r3, r4, [r7, #72]	; 0x48
40103d0a:	425b      	negs	r3, r3
40103d0c:	eb64 0444 	sbc.w	r4, r4, r4, lsl #1
40103d10:	e9c7 3412 	strd	r3, r4, [r7, #72]	; 0x48
/home/zhangxiang/Downloads/op-tee2/OP-TEE/bios_qemu_tz_arm/libutils/isoc/snprintf.c:333
40103d14:	f04f 032d 	mov.w	r3, #45	; 0x2d
40103d18:	f887 3057 	strb.w	r3, [r7, #87]	; 0x57
/home/zhangxiang/Downloads/op-tee2/OP-TEE/bios_qemu_tz_arm/libutils/isoc/snprintf.c:335
40103d1c:	f04f 0301 	mov.w	r3, #1
40103d20:	647b      	str	r3, [r7, #68]	; 0x44
/home/zhangxiang/Downloads/op-tee2/OP-TEE/bios_qemu_tz_arm/libutils/isoc/snprintf.c:336
40103d22:	e22d      	b.n	40104180 <kprintf+0x942>
/home/zhangxiang/Downloads/op-tee2/OP-TEE/bios_qemu_tz_arm/libutils/isoc/snprintf.c:338
40103d24:	6e7b      	ldr	r3, [r7, #100]	; 0x64
40103d26:	f003 0380 	and.w	r3, r3, #128	; 0x80
40103d2a:	2b00      	cmp	r3, #0
40103d2c:	d00a      	beq.n	40103d44 <kprintf+0x506>
/home/zhangxiang/Downloads/op-tee2/OP-TEE/bios_qemu_tz_arm/libutils/isoc/snprintf.c:339
40103d2e:	f8d7 3098 	ldr.w	r3, [r7, #152]	; 0x98
40103d32:	f103 0204 	add.w	r2, r3, #4
40103d36:	f8c7 2098 	str.w	r2, [r7, #152]	; 0x98
40103d3a:	681b      	ldr	r3, [r3, #0]
40103d3c:	6e3a      	ldr	r2, [r7, #96]	; 0x60
40103d3e:	601a      	str	r2, [r3, #0]
/home/zhangxiang/Downloads/op-tee2/OP-TEE/bios_qemu_tz_arm/libutils/isoc/snprintf.c:352
40103d40:	f000 bc04 	b.w	4010454c <kprintf+0xd0e>
/home/zhangxiang/Downloads/op-tee2/OP-TEE/bios_qemu_tz_arm/libutils/isoc/snprintf.c:340
40103d44:	6e7b      	ldr	r3, [r7, #100]	; 0x64
40103d46:	f403 7380 	and.w	r3, r3, #256	; 0x100
40103d4a:	2b00      	cmp	r3, #0
40103d4c:	d009      	beq.n	40103d62 <kprintf+0x524>
/home/zhangxiang/Downloads/op-tee2/OP-TEE/bios_qemu_tz_arm/libutils/isoc/snprintf.c:341
40103d4e:	f8d7 3098 	ldr.w	r3, [r7, #152]	; 0x98
40103d52:	f103 0204 	add.w	r2, r3, #4
40103d56:	f8c7 2098 	str.w	r2, [r7, #152]	; 0x98
40103d5a:	681b      	ldr	r3, [r3, #0]
40103d5c:	6e3a      	ldr	r2, [r7, #96]	; 0x60
40103d5e:	601a      	str	r2, [r3, #0]
/home/zhangxiang/Downloads/op-tee2/OP-TEE/bios_qemu_tz_arm/libutils/isoc/snprintf.c:352
40103d60:	e3f4      	b.n	4010454c <kprintf+0xd0e>
/home/zhangxiang/Downloads/op-tee2/OP-TEE/bios_qemu_tz_arm/libutils/isoc/snprintf.c:342
40103d62:	6e7b      	ldr	r3, [r7, #100]	; 0x64
40103d64:	f403 7300 	and.w	r3, r3, #512	; 0x200
40103d68:	2b00      	cmp	r3, #0
40103d6a:	d009      	beq.n	40103d80 <kprintf+0x542>
/home/zhangxiang/Downloads/op-tee2/OP-TEE/bios_qemu_tz_arm/libutils/isoc/snprintf.c:343
40103d6c:	f8d7 3098 	ldr.w	r3, [r7, #152]	; 0x98
40103d70:	f103 0204 	add.w	r2, r3, #4
40103d74:	f8c7 2098 	str.w	r2, [r7, #152]	; 0x98
40103d78:	681b      	ldr	r3, [r3, #0]
40103d7a:	6e3a      	ldr	r2, [r7, #96]	; 0x60
40103d7c:	601a      	str	r2, [r3, #0]
/home/zhangxiang/Downloads/op-tee2/OP-TEE/bios_qemu_tz_arm/libutils/isoc/snprintf.c:352
40103d7e:	e3e5      	b.n	4010454c <kprintf+0xd0e>
/home/zhangxiang/Downloads/op-tee2/OP-TEE/bios_qemu_tz_arm/libutils/isoc/snprintf.c:344
40103d80:	6e7b      	ldr	r3, [r7, #100]	; 0x64
40103d82:	f003 0320 	and.w	r3, r3, #32
40103d86:	2b00      	cmp	r3, #0
40103d88:	d00c      	beq.n	40103da4 <kprintf+0x566>
/home/zhangxiang/Downloads/op-tee2/OP-TEE/bios_qemu_tz_arm/libutils/isoc/snprintf.c:345
40103d8a:	f8d7 3098 	ldr.w	r3, [r7, #152]	; 0x98
40103d8e:	f103 0204 	add.w	r2, r3, #4
40103d92:	f8c7 2098 	str.w	r2, [r7, #152]	; 0x98
40103d96:	681a      	ldr	r2, [r3, #0]
40103d98:	6e3b      	ldr	r3, [r7, #96]	; 0x60
40103d9a:	ea4f 74e3 	mov.w	r4, r3, asr #31
40103d9e:	e9c2 3400 	strd	r3, r4, [r2]
/home/zhangxiang/Downloads/op-tee2/OP-TEE/bios_qemu_tz_arm/libutils/isoc/snprintf.c:352
40103da2:	e3d3      	b.n	4010454c <kprintf+0xd0e>
/home/zhangxiang/Downloads/op-tee2/OP-TEE/bios_qemu_tz_arm/libutils/isoc/snprintf.c:346
40103da4:	6e7b      	ldr	r3, [r7, #100]	; 0x64
40103da6:	f003 0310 	and.w	r3, r3, #16
40103daa:	2b00      	cmp	r3, #0
40103dac:	d009      	beq.n	40103dc2 <kprintf+0x584>
/home/zhangxiang/Downloads/op-tee2/OP-TEE/bios_qemu_tz_arm/libutils/isoc/snprintf.c:347
40103dae:	f8d7 3098 	ldr.w	r3, [r7, #152]	; 0x98
40103db2:	f103 0204 	add.w	r2, r3, #4
40103db6:	f8c7 2098 	str.w	r2, [r7, #152]	; 0x98
40103dba:	681b      	ldr	r3, [r3, #0]
40103dbc:	6e3a      	ldr	r2, [r7, #96]	; 0x60
40103dbe:	601a      	str	r2, [r3, #0]
/home/zhangxiang/Downloads/op-tee2/OP-TEE/bios_qemu_tz_arm/libutils/isoc/snprintf.c:352
40103dc0:	e3c4      	b.n	4010454c <kprintf+0xd0e>
/home/zhangxiang/Downloads/op-tee2/OP-TEE/bios_qemu_tz_arm/libutils/isoc/snprintf.c:348
40103dc2:	6e7b      	ldr	r3, [r7, #100]	; 0x64
40103dc4:	f003 0340 	and.w	r3, r3, #64	; 0x40
40103dc8:	2b00      	cmp	r3, #0
40103dca:	d00a      	beq.n	40103de2 <kprintf+0x5a4>
/home/zhangxiang/Downloads/op-tee2/OP-TEE/bios_qemu_tz_arm/libutils/isoc/snprintf.c:349
40103dcc:	f8d7 3098 	ldr.w	r3, [r7, #152]	; 0x98
40103dd0:	f103 0204 	add.w	r2, r3, #4
40103dd4:	f8c7 2098 	str.w	r2, [r7, #152]	; 0x98
40103dd8:	681b      	ldr	r3, [r3, #0]
40103dda:	6e3a      	ldr	r2, [r7, #96]	; 0x60
40103ddc:	b212      	sxth	r2, r2
40103dde:	801a      	strh	r2, [r3, #0]
/home/zhangxiang/Downloads/op-tee2/OP-TEE/bios_qemu_tz_arm/libutils/isoc/snprintf.c:352
40103de0:	e3b4      	b.n	4010454c <kprintf+0xd0e>
/home/zhangxiang/Downloads/op-tee2/OP-TEE/bios_qemu_tz_arm/libutils/isoc/snprintf.c:351
40103de2:	f8d7 3098 	ldr.w	r3, [r7, #152]	; 0x98
40103de6:	f103 0204 	add.w	r2, r3, #4
40103dea:	f8c7 2098 	str.w	r2, [r7, #152]	; 0x98
40103dee:	681b      	ldr	r3, [r3, #0]
40103df0:	6e3a      	ldr	r2, [r7, #96]	; 0x60
40103df2:	601a      	str	r2, [r3, #0]
/home/zhangxiang/Downloads/op-tee2/OP-TEE/bios_qemu_tz_arm/libutils/isoc/snprintf.c:352
40103df4:	e3aa      	b.n	4010454c <kprintf+0xd0e>
/home/zhangxiang/Downloads/op-tee2/OP-TEE/bios_qemu_tz_arm/libutils/isoc/snprintf.c:354
40103df6:	6e7b      	ldr	r3, [r7, #100]	; 0x64
40103df8:	f043 0310 	orr.w	r3, r3, #16
40103dfc:	667b      	str	r3, [r7, #100]	; 0x64
/home/zhangxiang/Downloads/op-tee2/OP-TEE/bios_qemu_tz_arm/libutils/isoc/snprintf.c:357
40103dfe:	6e7b      	ldr	r3, [r7, #100]	; 0x64
40103e00:	f003 0380 	and.w	r3, r3, #128	; 0x80
40103e04:	2b00      	cmp	r3, #0
40103e06:	d009      	beq.n	40103e1c <kprintf+0x5de>
/home/zhangxiang/Downloads/op-tee2/OP-TEE/bios_qemu_tz_arm/libutils/isoc/snprintf.c:357 (discriminator 1)
40103e08:	f8d7 3098 	ldr.w	r3, [r7, #152]	; 0x98
40103e0c:	f103 0204 	add.w	r2, r3, #4
40103e10:	f8c7 2098 	str.w	r2, [r7, #152]	; 0x98
40103e14:	681b      	ldr	r3, [r3, #0]
40103e16:	f04f 0400 	mov.w	r4, #0
40103e1a:	e058      	b.n	40103ece <kprintf+0x690>
/home/zhangxiang/Downloads/op-tee2/OP-TEE/bios_qemu_tz_arm/libutils/isoc/snprintf.c:357 (discriminator 2)
40103e1c:	6e7b      	ldr	r3, [r7, #100]	; 0x64
40103e1e:	f403 7380 	and.w	r3, r3, #256	; 0x100
40103e22:	2b00      	cmp	r3, #0
40103e24:	d009      	beq.n	40103e3a <kprintf+0x5fc>
/home/zhangxiang/Downloads/op-tee2/OP-TEE/bios_qemu_tz_arm/libutils/isoc/snprintf.c:357 (discriminator 4)
40103e26:	f8d7 3098 	ldr.w	r3, [r7, #152]	; 0x98
40103e2a:	f103 0204 	add.w	r2, r3, #4
40103e2e:	f8c7 2098 	str.w	r2, [r7, #152]	; 0x98
40103e32:	681b      	ldr	r3, [r3, #0]
40103e34:	f04f 0400 	mov.w	r4, #0
40103e38:	e049      	b.n	40103ece <kprintf+0x690>
/home/zhangxiang/Downloads/op-tee2/OP-TEE/bios_qemu_tz_arm/libutils/isoc/snprintf.c:357 (discriminator 5)
40103e3a:	6e7b      	ldr	r3, [r7, #100]	; 0x64
40103e3c:	f403 7300 	and.w	r3, r3, #512	; 0x200
40103e40:	2b00      	cmp	r3, #0
40103e42:	d009      	beq.n	40103e58 <kprintf+0x61a>
/home/zhangxiang/Downloads/op-tee2/OP-TEE/bios_qemu_tz_arm/libutils/isoc/snprintf.c:357 (discriminator 7)
40103e44:	f8d7 3098 	ldr.w	r3, [r7, #152]	; 0x98
40103e48:	f103 0204 	add.w	r2, r3, #4
40103e4c:	f8c7 2098 	str.w	r2, [r7, #152]	; 0x98
40103e50:	681b      	ldr	r3, [r3, #0]
40103e52:	f04f 0400 	mov.w	r4, #0
40103e56:	e03a      	b.n	40103ece <kprintf+0x690>
/home/zhangxiang/Downloads/op-tee2/OP-TEE/bios_qemu_tz_arm/libutils/isoc/snprintf.c:357 (discriminator 8)
40103e58:	6e7b      	ldr	r3, [r7, #100]	; 0x64
40103e5a:	f003 0320 	and.w	r3, r3, #32
40103e5e:	2b00      	cmp	r3, #0
40103e60:	d00c      	beq.n	40103e7c <kprintf+0x63e>
/home/zhangxiang/Downloads/op-tee2/OP-TEE/bios_qemu_tz_arm/libutils/isoc/snprintf.c:357 (discriminator 10)
40103e62:	f8d7 3098 	ldr.w	r3, [r7, #152]	; 0x98
40103e66:	f103 0307 	add.w	r3, r3, #7
40103e6a:	f023 0307 	bic.w	r3, r3, #7
40103e6e:	f103 0208 	add.w	r2, r3, #8
40103e72:	f8c7 2098 	str.w	r2, [r7, #152]	; 0x98
40103e76:	e9d3 3400 	ldrd	r3, r4, [r3]
40103e7a:	e028      	b.n	40103ece <kprintf+0x690>
/home/zhangxiang/Downloads/op-tee2/OP-TEE/bios_qemu_tz_arm/libutils/isoc/snprintf.c:357 (discriminator 11)
40103e7c:	6e7b      	ldr	r3, [r7, #100]	; 0x64
40103e7e:	f003 0310 	and.w	r3, r3, #16
40103e82:	2b00      	cmp	r3, #0
40103e84:	d009      	beq.n	40103e9a <kprintf+0x65c>
/home/zhangxiang/Downloads/op-tee2/OP-TEE/bios_qemu_tz_arm/libutils/isoc/snprintf.c:357 (discriminator 13)
40103e86:	f8d7 3098 	ldr.w	r3, [r7, #152]	; 0x98
40103e8a:	f103 0204 	add.w	r2, r3, #4
40103e8e:	f8c7 2098 	str.w	r2, [r7, #152]	; 0x98
40103e92:	681b      	ldr	r3, [r3, #0]
40103e94:	f04f 0400 	mov.w	r4, #0
40103e98:	e019      	b.n	40103ece <kprintf+0x690>
/home/zhangxiang/Downloads/op-tee2/OP-TEE/bios_qemu_tz_arm/libutils/isoc/snprintf.c:357 (discriminator 14)
40103e9a:	6e7b      	ldr	r3, [r7, #100]	; 0x64
40103e9c:	f003 0340 	and.w	r3, r3, #64	; 0x40
40103ea0:	2b00      	cmp	r3, #0
40103ea2:	d00b      	beq.n	40103ebc <kprintf+0x67e>
/home/zhangxiang/Downloads/op-tee2/OP-TEE/bios_qemu_tz_arm/libutils/isoc/snprintf.c:357 (discriminator 16)
40103ea4:	f8d7 3098 	ldr.w	r3, [r7, #152]	; 0x98
40103ea8:	f103 0204 	add.w	r2, r3, #4
40103eac:	f8c7 2098 	str.w	r2, [r7, #152]	; 0x98
40103eb0:	681b      	ldr	r3, [r3, #0]
40103eb2:	b29b      	uxth	r3, r3
40103eb4:	b29b      	uxth	r3, r3
40103eb6:	f04f 0400 	mov.w	r4, #0
40103eba:	e008      	b.n	40103ece <kprintf+0x690>
/home/zhangxiang/Downloads/op-tee2/OP-TEE/bios_qemu_tz_arm/libutils/isoc/snprintf.c:357 (discriminator 17)
40103ebc:	f8d7 3098 	ldr.w	r3, [r7, #152]	; 0x98
40103ec0:	f103 0204 	add.w	r2, r3, #4
40103ec4:	f8c7 2098 	str.w	r2, [r7, #152]	; 0x98
40103ec8:	681b      	ldr	r3, [r3, #0]
40103eca:	f04f 0400 	mov.w	r4, #0
/home/zhangxiang/Downloads/op-tee2/OP-TEE/bios_qemu_tz_arm/libutils/isoc/snprintf.c:357 (discriminator 24)
40103ece:	e9c7 3412 	strd	r3, r4, [r7, #72]	; 0x48
/home/zhangxiang/Downloads/op-tee2/OP-TEE/bios_qemu_tz_arm/libutils/isoc/snprintf.c:358 (discriminator 24)
40103ed2:	f04f 0300 	mov.w	r3, #0
40103ed6:	647b      	str	r3, [r7, #68]	; 0x44
/home/zhangxiang/Downloads/op-tee2/OP-TEE/bios_qemu_tz_arm/libutils/isoc/snprintf.c:359 (discriminator 24)
40103ed8:	e14e      	b.n	40104178 <kprintf+0x93a>
/home/zhangxiang/Downloads/op-tee2/OP-TEE/bios_qemu_tz_arm/libutils/isoc/snprintf.c:369
40103eda:	f8d7 3098 	ldr.w	r3, [r7, #152]	; 0x98
40103ede:	f103 0204 	add.w	r2, r3, #4
40103ee2:	f8c7 2098 	str.w	r2, [r7, #152]	; 0x98
40103ee6:	681b      	ldr	r3, [r3, #0]
40103ee8:	f04f 0400 	mov.w	r4, #0
40103eec:	e9c7 3412 	strd	r3, r4, [r7, #72]	; 0x48
/home/zhangxiang/Downloads/op-tee2/OP-TEE/bios_qemu_tz_arm/libutils/isoc/snprintf.c:370
40103ef0:	f04f 0302 	mov.w	r3, #2
40103ef4:	647b      	str	r3, [r7, #68]	; 0x44
/home/zhangxiang/Downloads/op-tee2/OP-TEE/bios_qemu_tz_arm/libutils/isoc/snprintf.c:371
40103ef6:	f245 23fc 	movw	r3, #21244	; 0x52fc
40103efa:	f2c4 0310 	movt	r3, #16400	; 0x4010
40103efe:	637b      	str	r3, [r7, #52]	; 0x34
/home/zhangxiang/Downloads/op-tee2/OP-TEE/bios_qemu_tz_arm/libutils/isoc/snprintf.c:372
40103f00:	6e7b      	ldr	r3, [r7, #100]	; 0x64
40103f02:	f043 0302 	orr.w	r3, r3, #2
40103f06:	667b      	str	r3, [r7, #100]	; 0x64
/home/zhangxiang/Downloads/op-tee2/OP-TEE/bios_qemu_tz_arm/libutils/isoc/snprintf.c:373
40103f08:	f04f 0378 	mov.w	r3, #120	; 0x78
40103f0c:	673b      	str	r3, [r7, #112]	; 0x70
/home/zhangxiang/Downloads/op-tee2/OP-TEE/bios_qemu_tz_arm/libutils/isoc/snprintf.c:374
40103f0e:	e133      	b.n	40104178 <kprintf+0x93a>
/home/zhangxiang/Downloads/op-tee2/OP-TEE/bios_qemu_tz_arm/libutils/isoc/snprintf.c:376
40103f10:	f8d7 3098 	ldr.w	r3, [r7, #152]	; 0x98
40103f14:	f103 0204 	add.w	r2, r3, #4
40103f18:	f8c7 2098 	str.w	r2, [r7, #152]	; 0x98
40103f1c:	681b      	ldr	r3, [r3, #0]
40103f1e:	66bb      	str	r3, [r7, #104]	; 0x68
40103f20:	6ebb      	ldr	r3, [r7, #104]	; 0x68
40103f22:	2b00      	cmp	r3, #0
40103f24:	d104      	bne.n	40103f30 <kprintf+0x6f2>
/home/zhangxiang/Downloads/op-tee2/OP-TEE/bios_qemu_tz_arm/libutils/isoc/snprintf.c:378
40103f26:	f245 3324 	movw	r3, #21284	; 0x5324
40103f2a:	f2c4 0310 	movt	r3, #16400	; 0x4010
40103f2e:	66bb      	str	r3, [r7, #104]	; 0x68
/home/zhangxiang/Downloads/op-tee2/OP-TEE/bios_qemu_tz_arm/libutils/isoc/snprintf.c:379
40103f30:	6dbb      	ldr	r3, [r7, #88]	; 0x58
40103f32:	2b00      	cmp	r3, #0
40103f34:	db1c      	blt.n	40103f70 <kprintf+0x732>
/home/zhangxiang/Downloads/op-tee2/OP-TEE/bios_qemu_tz_arm/libutils/isoc/snprintf.c:385
40103f36:	6dbb      	ldr	r3, [r7, #88]	; 0x58
40103f38:	461a      	mov	r2, r3
40103f3a:	f04f 0100 	mov.w	r1, #0
40103f3e:	6eb8      	ldr	r0, [r7, #104]	; 0x68
40103f40:	f244 5385 	movw	r3, #17797	; 0x4585
40103f44:	f2c4 0310 	movt	r3, #16400	; 0x4010
40103f48:	4798      	blx	r3
40103f4a:	62f8      	str	r0, [r7, #44]	; 0x2c
/home/zhangxiang/Downloads/op-tee2/OP-TEE/bios_qemu_tz_arm/libutils/isoc/snprintf.c:387
40103f4c:	6afb      	ldr	r3, [r7, #44]	; 0x2c
40103f4e:	2b00      	cmp	r3, #0
40103f50:	d00b      	beq.n	40103f6a <kprintf+0x72c>
/home/zhangxiang/Downloads/op-tee2/OP-TEE/bios_qemu_tz_arm/libutils/isoc/snprintf.c:388
40103f52:	6afa      	ldr	r2, [r7, #44]	; 0x2c
40103f54:	6ebb      	ldr	r3, [r7, #104]	; 0x68
40103f56:	eba2 0303 	sub.w	r3, r2, r3
40103f5a:	63bb      	str	r3, [r7, #56]	; 0x38
/home/zhangxiang/Downloads/op-tee2/OP-TEE/bios_qemu_tz_arm/libutils/isoc/snprintf.c:389
40103f5c:	6bba      	ldr	r2, [r7, #56]	; 0x38
40103f5e:	6dbb      	ldr	r3, [r7, #88]	; 0x58
40103f60:	429a      	cmp	r2, r3
40103f62:	dd0d      	ble.n	40103f80 <kprintf+0x742>
/home/zhangxiang/Downloads/op-tee2/OP-TEE/bios_qemu_tz_arm/libutils/isoc/snprintf.c:390
40103f64:	6dbb      	ldr	r3, [r7, #88]	; 0x58
40103f66:	63bb      	str	r3, [r7, #56]	; 0x38
40103f68:	e00a      	b.n	40103f80 <kprintf+0x742>
/home/zhangxiang/Downloads/op-tee2/OP-TEE/bios_qemu_tz_arm/libutils/isoc/snprintf.c:392
40103f6a:	6dbb      	ldr	r3, [r7, #88]	; 0x58
40103f6c:	63bb      	str	r3, [r7, #56]	; 0x38
40103f6e:	e007      	b.n	40103f80 <kprintf+0x742>
/home/zhangxiang/Downloads/op-tee2/OP-TEE/bios_qemu_tz_arm/libutils/isoc/snprintf.c:394
40103f70:	6eb8      	ldr	r0, [r7, #104]	; 0x68
40103f72:	f644 239d 	movw	r3, #19101	; 0x4a9d
40103f76:	f2c4 0310 	movt	r3, #16400	; 0x4010
40103f7a:	4798      	blx	r3
40103f7c:	4603      	mov	r3, r0
40103f7e:	63bb      	str	r3, [r7, #56]	; 0x38
/home/zhangxiang/Downloads/op-tee2/OP-TEE/bios_qemu_tz_arm/libutils/isoc/snprintf.c:395
40103f80:	f04f 0300 	mov.w	r3, #0
40103f84:	f887 3057 	strb.w	r3, [r7, #87]	; 0x57
/home/zhangxiang/Downloads/op-tee2/OP-TEE/bios_qemu_tz_arm/libutils/isoc/snprintf.c:396
40103f88:	e1c6      	b.n	40104318 <kprintf+0xada>
/home/zhangxiang/Downloads/op-tee2/OP-TEE/bios_qemu_tz_arm/libutils/isoc/snprintf.c:398
40103f8a:	6e7b      	ldr	r3, [r7, #100]	; 0x64
40103f8c:	f043 0310 	orr.w	r3, r3, #16
40103f90:	667b      	str	r3, [r7, #100]	; 0x64
/home/zhangxiang/Downloads/op-tee2/OP-TEE/bios_qemu_tz_arm/libutils/isoc/snprintf.c:401
40103f92:	6e7b      	ldr	r3, [r7, #100]	; 0x64
40103f94:	f003 0380 	and.w	r3, r3, #128	; 0x80
40103f98:	2b00      	cmp	r3, #0
40103f9a:	d009      	beq.n	40103fb0 <kprintf+0x772>
/home/zhangxiang/Downloads/op-tee2/OP-TEE/bios_qemu_tz_arm/libutils/isoc/snprintf.c:401 (discriminator 1)
40103f9c:	f8d7 3098 	ldr.w	r3, [r7, #152]	; 0x98
40103fa0:	f103 0204 	add.w	r2, r3, #4
40103fa4:	f8c7 2098 	str.w	r2, [r7, #152]	; 0x98
40103fa8:	681b      	ldr	r3, [r3, #0]
40103faa:	f04f 0400 	mov.w	r4, #0
40103fae:	e058      	b.n	40104062 <kprintf+0x824>
/home/zhangxiang/Downloads/op-tee2/OP-TEE/bios_qemu_tz_arm/libutils/isoc/snprintf.c:401 (discriminator 2)
40103fb0:	6e7b      	ldr	r3, [r7, #100]	; 0x64
40103fb2:	f403 7380 	and.w	r3, r3, #256	; 0x100
40103fb6:	2b00      	cmp	r3, #0
40103fb8:	d009      	beq.n	40103fce <kprintf+0x790>
/home/zhangxiang/Downloads/op-tee2/OP-TEE/bios_qemu_tz_arm/libutils/isoc/snprintf.c:401 (discriminator 4)
40103fba:	f8d7 3098 	ldr.w	r3, [r7, #152]	; 0x98
40103fbe:	f103 0204 	add.w	r2, r3, #4
40103fc2:	f8c7 2098 	str.w	r2, [r7, #152]	; 0x98
40103fc6:	681b      	ldr	r3, [r3, #0]
40103fc8:	f04f 0400 	mov.w	r4, #0
40103fcc:	e049      	b.n	40104062 <kprintf+0x824>
/home/zhangxiang/Downloads/op-tee2/OP-TEE/bios_qemu_tz_arm/libutils/isoc/snprintf.c:401 (discriminator 5)
40103fce:	6e7b      	ldr	r3, [r7, #100]	; 0x64
40103fd0:	f403 7300 	and.w	r3, r3, #512	; 0x200
40103fd4:	2b00      	cmp	r3, #0
40103fd6:	d009      	beq.n	40103fec <kprintf+0x7ae>
/home/zhangxiang/Downloads/op-tee2/OP-TEE/bios_qemu_tz_arm/libutils/isoc/snprintf.c:401 (discriminator 7)
40103fd8:	f8d7 3098 	ldr.w	r3, [r7, #152]	; 0x98
40103fdc:	f103 0204 	add.w	r2, r3, #4
40103fe0:	f8c7 2098 	str.w	r2, [r7, #152]	; 0x98
40103fe4:	681b      	ldr	r3, [r3, #0]
40103fe6:	f04f 0400 	mov.w	r4, #0
40103fea:	e03a      	b.n	40104062 <kprintf+0x824>
/home/zhangxiang/Downloads/op-tee2/OP-TEE/bios_qemu_tz_arm/libutils/isoc/snprintf.c:401 (discriminator 8)
40103fec:	6e7b      	ldr	r3, [r7, #100]	; 0x64
40103fee:	f003 0320 	and.w	r3, r3, #32
40103ff2:	2b00      	cmp	r3, #0
40103ff4:	d00c      	beq.n	40104010 <kprintf+0x7d2>
/home/zhangxiang/Downloads/op-tee2/OP-TEE/bios_qemu_tz_arm/libutils/isoc/snprintf.c:401 (discriminator 10)
40103ff6:	f8d7 3098 	ldr.w	r3, [r7, #152]	; 0x98
40103ffa:	f103 0307 	add.w	r3, r3, #7
40103ffe:	f023 0307 	bic.w	r3, r3, #7
40104002:	f103 0208 	add.w	r2, r3, #8
40104006:	f8c7 2098 	str.w	r2, [r7, #152]	; 0x98
4010400a:	e9d3 3400 	ldrd	r3, r4, [r3]
4010400e:	e028      	b.n	40104062 <kprintf+0x824>
/home/zhangxiang/Downloads/op-tee2/OP-TEE/bios_qemu_tz_arm/libutils/isoc/snprintf.c:401 (discriminator 11)
40104010:	6e7b      	ldr	r3, [r7, #100]	; 0x64
40104012:	f003 0310 	and.w	r3, r3, #16
40104016:	2b00      	cmp	r3, #0
40104018:	d009      	beq.n	4010402e <kprintf+0x7f0>
/home/zhangxiang/Downloads/op-tee2/OP-TEE/bios_qemu_tz_arm/libutils/isoc/snprintf.c:401 (discriminator 13)
4010401a:	f8d7 3098 	ldr.w	r3, [r7, #152]	; 0x98
4010401e:	f103 0204 	add.w	r2, r3, #4
40104022:	f8c7 2098 	str.w	r2, [r7, #152]	; 0x98
40104026:	681b      	ldr	r3, [r3, #0]
40104028:	f04f 0400 	mov.w	r4, #0
4010402c:	e019      	b.n	40104062 <kprintf+0x824>
/home/zhangxiang/Downloads/op-tee2/OP-TEE/bios_qemu_tz_arm/libutils/isoc/snprintf.c:401 (discriminator 14)
4010402e:	6e7b      	ldr	r3, [r7, #100]	; 0x64
40104030:	f003 0340 	and.w	r3, r3, #64	; 0x40
40104034:	2b00      	cmp	r3, #0
40104036:	d00b      	beq.n	40104050 <kprintf+0x812>
/home/zhangxiang/Downloads/op-tee2/OP-TEE/bios_qemu_tz_arm/libutils/isoc/snprintf.c:401 (discriminator 16)
40104038:	f8d7 3098 	ldr.w	r3, [r7, #152]	; 0x98
4010403c:	f103 0204 	add.w	r2, r3, #4
40104040:	f8c7 2098 	str.w	r2, [r7, #152]	; 0x98
40104044:	681b      	ldr	r3, [r3, #0]
40104046:	b29b      	uxth	r3, r3
40104048:	b29b      	uxth	r3, r3
4010404a:	f04f 0400 	mov.w	r4, #0
4010404e:	e008      	b.n	40104062 <kprintf+0x824>
/home/zhangxiang/Downloads/op-tee2/OP-TEE/bios_qemu_tz_arm/libutils/isoc/snprintf.c:401 (discriminator 17)
40104050:	f8d7 3098 	ldr.w	r3, [r7, #152]	; 0x98
40104054:	f103 0204 	add.w	r2, r3, #4
40104058:	f8c7 2098 	str.w	r2, [r7, #152]	; 0x98
4010405c:	681b      	ldr	r3, [r3, #0]
4010405e:	f04f 0400 	mov.w	r4, #0
/home/zhangxiang/Downloads/op-tee2/OP-TEE/bios_qemu_tz_arm/libutils/isoc/snprintf.c:401 (discriminator 24)
40104062:	e9c7 3412 	strd	r3, r4, [r7, #72]	; 0x48
/home/zhangxiang/Downloads/op-tee2/OP-TEE/bios_qemu_tz_arm/libutils/isoc/snprintf.c:402 (discriminator 24)
40104066:	f04f 0301 	mov.w	r3, #1
4010406a:	647b      	str	r3, [r7, #68]	; 0x44
/home/zhangxiang/Downloads/op-tee2/OP-TEE/bios_qemu_tz_arm/libutils/isoc/snprintf.c:403 (discriminator 24)
4010406c:	e084      	b.n	40104178 <kprintf+0x93a>
/home/zhangxiang/Downloads/op-tee2/OP-TEE/bios_qemu_tz_arm/libutils/isoc/snprintf.c:405
4010406e:	f245 3310 	movw	r3, #21264	; 0x5310
40104072:	f2c4 0310 	movt	r3, #16400	; 0x4010
40104076:	637b      	str	r3, [r7, #52]	; 0x34
/home/zhangxiang/Downloads/op-tee2/OP-TEE/bios_qemu_tz_arm/libutils/isoc/snprintf.c:406
40104078:	e004      	b.n	40104084 <kprintf+0x846>
/home/zhangxiang/Downloads/op-tee2/OP-TEE/bios_qemu_tz_arm/libutils/isoc/snprintf.c:408
4010407a:	f245 23fc 	movw	r3, #21244	; 0x52fc
4010407e:	f2c4 0310 	movt	r3, #16400	; 0x4010
40104082:	637b      	str	r3, [r7, #52]	; 0x34
/home/zhangxiang/Downloads/op-tee2/OP-TEE/bios_qemu_tz_arm/libutils/isoc/snprintf.c:409
40104084:	6e7b      	ldr	r3, [r7, #100]	; 0x64
40104086:	f003 0380 	and.w	r3, r3, #128	; 0x80
4010408a:	2b00      	cmp	r3, #0
4010408c:	d009      	beq.n	401040a2 <kprintf+0x864>
/home/zhangxiang/Downloads/op-tee2/OP-TEE/bios_qemu_tz_arm/libutils/isoc/snprintf.c:409 (discriminator 1)
4010408e:	f8d7 3098 	ldr.w	r3, [r7, #152]	; 0x98
40104092:	f103 0204 	add.w	r2, r3, #4
40104096:	f8c7 2098 	str.w	r2, [r7, #152]	; 0x98
4010409a:	681b      	ldr	r3, [r3, #0]
4010409c:	f04f 0400 	mov.w	r4, #0
401040a0:	e058      	b.n	40104154 <kprintf+0x916>
/home/zhangxiang/Downloads/op-tee2/OP-TEE/bios_qemu_tz_arm/libutils/isoc/snprintf.c:409 (discriminator 2)
401040a2:	6e7b      	ldr	r3, [r7, #100]	; 0x64
401040a4:	f403 7380 	and.w	r3, r3, #256	; 0x100
401040a8:	2b00      	cmp	r3, #0
401040aa:	d009      	beq.n	401040c0 <kprintf+0x882>
/home/zhangxiang/Downloads/op-tee2/OP-TEE/bios_qemu_tz_arm/libutils/isoc/snprintf.c:409 (discriminator 4)
401040ac:	f8d7 3098 	ldr.w	r3, [r7, #152]	; 0x98
401040b0:	f103 0204 	add.w	r2, r3, #4
401040b4:	f8c7 2098 	str.w	r2, [r7, #152]	; 0x98
401040b8:	681b      	ldr	r3, [r3, #0]
401040ba:	f04f 0400 	mov.w	r4, #0
401040be:	e049      	b.n	40104154 <kprintf+0x916>
/home/zhangxiang/Downloads/op-tee2/OP-TEE/bios_qemu_tz_arm/libutils/isoc/snprintf.c:409 (discriminator 5)
401040c0:	6e7b      	ldr	r3, [r7, #100]	; 0x64
401040c2:	f403 7300 	and.w	r3, r3, #512	; 0x200
401040c6:	2b00      	cmp	r3, #0
401040c8:	d009      	beq.n	401040de <kprintf+0x8a0>
/home/zhangxiang/Downloads/op-tee2/OP-TEE/bios_qemu_tz_arm/libutils/isoc/snprintf.c:409 (discriminator 7)
401040ca:	f8d7 3098 	ldr.w	r3, [r7, #152]	; 0x98
401040ce:	f103 0204 	add.w	r2, r3, #4
401040d2:	f8c7 2098 	str.w	r2, [r7, #152]	; 0x98
401040d6:	681b      	ldr	r3, [r3, #0]
401040d8:	f04f 0400 	mov.w	r4, #0
401040dc:	e03a      	b.n	40104154 <kprintf+0x916>
/home/zhangxiang/Downloads/op-tee2/OP-TEE/bios_qemu_tz_arm/libutils/isoc/snprintf.c:409 (discriminator 8)
401040de:	6e7b      	ldr	r3, [r7, #100]	; 0x64
401040e0:	f003 0320 	and.w	r3, r3, #32
401040e4:	2b00      	cmp	r3, #0
401040e6:	d00c      	beq.n	40104102 <kprintf+0x8c4>
/home/zhangxiang/Downloads/op-tee2/OP-TEE/bios_qemu_tz_arm/libutils/isoc/snprintf.c:409 (discriminator 10)
401040e8:	f8d7 3098 	ldr.w	r3, [r7, #152]	; 0x98
401040ec:	f103 0307 	add.w	r3, r3, #7
401040f0:	f023 0307 	bic.w	r3, r3, #7
401040f4:	f103 0208 	add.w	r2, r3, #8
401040f8:	f8c7 2098 	str.w	r2, [r7, #152]	; 0x98
401040fc:	e9d3 3400 	ldrd	r3, r4, [r3]
40104100:	e028      	b.n	40104154 <kprintf+0x916>
/home/zhangxiang/Downloads/op-tee2/OP-TEE/bios_qemu_tz_arm/libutils/isoc/snprintf.c:409 (discriminator 11)
40104102:	6e7b      	ldr	r3, [r7, #100]	; 0x64
40104104:	f003 0310 	and.w	r3, r3, #16
40104108:	2b00      	cmp	r3, #0
4010410a:	d009      	beq.n	40104120 <kprintf+0x8e2>
/home/zhangxiang/Downloads/op-tee2/OP-TEE/bios_qemu_tz_arm/libutils/isoc/snprintf.c:409 (discriminator 13)
4010410c:	f8d7 3098 	ldr.w	r3, [r7, #152]	; 0x98
40104110:	f103 0204 	add.w	r2, r3, #4
40104114:	f8c7 2098 	str.w	r2, [r7, #152]	; 0x98
40104118:	681b      	ldr	r3, [r3, #0]
4010411a:	f04f 0400 	mov.w	r4, #0
4010411e:	e019      	b.n	40104154 <kprintf+0x916>
/home/zhangxiang/Downloads/op-tee2/OP-TEE/bios_qemu_tz_arm/libutils/isoc/snprintf.c:409 (discriminator 14)
40104120:	6e7b      	ldr	r3, [r7, #100]	; 0x64
40104122:	f003 0340 	and.w	r3, r3, #64	; 0x40
40104126:	2b00      	cmp	r3, #0
40104128:	d00b      	beq.n	40104142 <kprintf+0x904>
/home/zhangxiang/Downloads/op-tee2/OP-TEE/bios_qemu_tz_arm/libutils/isoc/snprintf.c:409 (discriminator 16)
4010412a:	f8d7 3098 	ldr.w	r3, [r7, #152]	; 0x98
4010412e:	f103 0204 	add.w	r2, r3, #4
40104132:	f8c7 2098 	str.w	r2, [r7, #152]	; 0x98
40104136:	681b      	ldr	r3, [r3, #0]
40104138:	b29b      	uxth	r3, r3
4010413a:	b29b      	uxth	r3, r3
4010413c:	f04f 0400 	mov.w	r4, #0
40104140:	e008      	b.n	40104154 <kprintf+0x916>
/home/zhangxiang/Downloads/op-tee2/OP-TEE/bios_qemu_tz_arm/libutils/isoc/snprintf.c:409 (discriminator 17)
40104142:	f8d7 3098 	ldr.w	r3, [r7, #152]	; 0x98
40104146:	f103 0204 	add.w	r2, r3, #4
4010414a:	f8c7 2098 	str.w	r2, [r7, #152]	; 0x98
4010414e:	681b      	ldr	r3, [r3, #0]
40104150:	f04f 0400 	mov.w	r4, #0
/home/zhangxiang/Downloads/op-tee2/OP-TEE/bios_qemu_tz_arm/libutils/isoc/snprintf.c:409 (discriminator 24)
40104154:	e9c7 3412 	strd	r3, r4, [r7, #72]	; 0x48
/home/zhangxiang/Downloads/op-tee2/OP-TEE/bios_qemu_tz_arm/libutils/isoc/snprintf.c:410 (discriminator 24)
40104158:	f04f 0302 	mov.w	r3, #2
4010415c:	647b      	str	r3, [r7, #68]	; 0x44
/home/zhangxiang/Downloads/op-tee2/OP-TEE/bios_qemu_tz_arm/libutils/isoc/snprintf.c:412 (discriminator 24)
4010415e:	6e7b      	ldr	r3, [r7, #100]	; 0x64
40104160:	f003 0301 	and.w	r3, r3, #1
40104164:	2b00      	cmp	r3, #0
40104166:	d007      	beq.n	40104178 <kprintf+0x93a>
/home/zhangxiang/Downloads/op-tee2/OP-TEE/bios_qemu_tz_arm/libutils/isoc/snprintf.c:412 (discriminator 1)
40104168:	e9d7 3412 	ldrd	r3, r4, [r7, #72]	; 0x48
4010416c:	4323      	orrs	r3, r4
4010416e:	d003      	beq.n	40104178 <kprintf+0x93a>
/home/zhangxiang/Downloads/op-tee2/OP-TEE/bios_qemu_tz_arm/libutils/isoc/snprintf.c:413
40104170:	6e7b      	ldr	r3, [r7, #100]	; 0x64
40104172:	f043 0302 	orr.w	r3, r3, #2
40104176:	667b      	str	r3, [r7, #100]	; 0x64
/home/zhangxiang/Downloads/op-tee2/OP-TEE/bios_qemu_tz_arm/libutils/isoc/snprintf.c:416
40104178:	f04f 0300 	mov.w	r3, #0
4010417c:	f887 3057 	strb.w	r3, [r7, #87]	; 0x57
/home/zhangxiang/Downloads/op-tee2/OP-TEE/bios_qemu_tz_arm/libutils/isoc/snprintf.c:422
40104180:	6dbb      	ldr	r3, [r7, #88]	; 0x58
40104182:	643b      	str	r3, [r7, #64]	; 0x40
40104184:	6c3b      	ldr	r3, [r7, #64]	; 0x40
40104186:	2b00      	cmp	r3, #0
40104188:	db03      	blt.n	40104192 <kprintf+0x954>
/home/zhangxiang/Downloads/op-tee2/OP-TEE/bios_qemu_tz_arm/libutils/isoc/snprintf.c:423
4010418a:	6e7b      	ldr	r3, [r7, #100]	; 0x64
4010418c:	f423 6380 	bic.w	r3, r3, #1024	; 0x400
40104190:	667b      	str	r3, [r7, #100]	; 0x64
/home/zhangxiang/Downloads/op-tee2/OP-TEE/bios_qemu_tz_arm/libutils/isoc/snprintf.c:430
40104192:	f107 0314 	add.w	r3, r7, #20
40104196:	f103 0317 	add.w	r3, r3, #23
4010419a:	66bb      	str	r3, [r7, #104]	; 0x68
/home/zhangxiang/Downloads/op-tee2/OP-TEE/bios_qemu_tz_arm/libutils/isoc/snprintf.c:431
4010419c:	e9d7 3412 	ldrd	r3, r4, [r7, #72]	; 0x48
401041a0:	4323      	orrs	r3, r4
401041a2:	d103      	bne.n	401041ac <kprintf+0x96e>
/home/zhangxiang/Downloads/op-tee2/OP-TEE/bios_qemu_tz_arm/libutils/isoc/snprintf.c:431 (discriminator 1)
401041a4:	6dbb      	ldr	r3, [r7, #88]	; 0x58
401041a6:	2b00      	cmp	r3, #0
401041a8:	f000 8099 	beq.w	401042de <kprintf+0xaa0>
/home/zhangxiang/Downloads/op-tee2/OP-TEE/bios_qemu_tz_arm/libutils/isoc/snprintf.c:437
401041ac:	6c7b      	ldr	r3, [r7, #68]	; 0x44
401041ae:	2b01      	cmp	r3, #1
401041b0:	d058      	beq.n	40104264 <kprintf+0xa26>
401041b2:	2b01      	cmp	r3, #1
401041b4:	d302      	bcc.n	401041bc <kprintf+0x97e>
401041b6:	2b02      	cmp	r3, #2
401041b8:	d066      	beq.n	40104288 <kprintf+0xa4a>
401041ba:	e080      	b.n	401042be <kprintf+0xa80>
/home/zhangxiang/Downloads/op-tee2/OP-TEE/bios_qemu_tz_arm/libutils/isoc/snprintf.c:440 (discriminator 1)
401041bc:	6ebb      	ldr	r3, [r7, #104]	; 0x68
401041be:	f103 33ff 	add.w	r3, r3, #4294967295	; 0xffffffff
401041c2:	66bb      	str	r3, [r7, #104]	; 0x68
401041c4:	f897 3048 	ldrb.w	r3, [r7, #72]	; 0x48
401041c8:	f003 0307 	and.w	r3, r3, #7
401041cc:	b2db      	uxtb	r3, r3
401041ce:	f103 0330 	add.w	r3, r3, #48	; 0x30
401041d2:	b2da      	uxtb	r2, r3
401041d4:	6ebb      	ldr	r3, [r7, #104]	; 0x68
401041d6:	701a      	strb	r2, [r3, #0]
/home/zhangxiang/Downloads/op-tee2/OP-TEE/bios_qemu_tz_arm/libutils/isoc/snprintf.c:441 (discriminator 1)
401041d8:	e9d7 3412 	ldrd	r3, r4, [r7, #72]	; 0x48
401041dc:	ea4f 05d3 	mov.w	r5, r3, lsr #3
401041e0:	ea45 7544 	orr.w	r5, r5, r4, lsl #29
401041e4:	ea4f 06d4 	mov.w	r6, r4, lsr #3
401041e8:	e9c7 5612 	strd	r5, r6, [r7, #72]	; 0x48
/home/zhangxiang/Downloads/op-tee2/OP-TEE/bios_qemu_tz_arm/libutils/isoc/snprintf.c:442 (discriminator 1)
401041ec:	e9d7 3412 	ldrd	r3, r4, [r7, #72]	; 0x48
401041f0:	4323      	orrs	r3, r4
401041f2:	d1e3      	bne.n	401041bc <kprintf+0x97e>
/home/zhangxiang/Downloads/op-tee2/OP-TEE/bios_qemu_tz_arm/libutils/isoc/snprintf.c:444
401041f4:	6e7b      	ldr	r3, [r7, #100]	; 0x64
401041f6:	f003 0301 	and.w	r3, r3, #1
401041fa:	2b00      	cmp	r3, #0
401041fc:	d06e      	beq.n	401042dc <kprintf+0xa9e>
/home/zhangxiang/Downloads/op-tee2/OP-TEE/bios_qemu_tz_arm/libutils/isoc/snprintf.c:444 (discriminator 1)
401041fe:	6ebb      	ldr	r3, [r7, #104]	; 0x68
40104200:	781b      	ldrb	r3, [r3, #0]
40104202:	2b30      	cmp	r3, #48	; 0x30
40104204:	d06a      	beq.n	401042dc <kprintf+0xa9e>
/home/zhangxiang/Downloads/op-tee2/OP-TEE/bios_qemu_tz_arm/libutils/isoc/snprintf.c:445
40104206:	6ebb      	ldr	r3, [r7, #104]	; 0x68
40104208:	f103 33ff 	add.w	r3, r3, #4294967295	; 0xffffffff
4010420c:	66bb      	str	r3, [r7, #104]	; 0x68
4010420e:	6ebb      	ldr	r3, [r7, #104]	; 0x68
40104210:	f04f 0230 	mov.w	r2, #48	; 0x30
40104214:	701a      	strb	r2, [r3, #0]
/home/zhangxiang/Downloads/op-tee2/OP-TEE/bios_qemu_tz_arm/libutils/isoc/snprintf.c:446
40104216:	e061      	b.n	401042dc <kprintf+0xa9e>
/home/zhangxiang/Downloads/op-tee2/OP-TEE/bios_qemu_tz_arm/libutils/isoc/snprintf.c:451
40104218:	6ebb      	ldr	r3, [r7, #104]	; 0x68
4010421a:	f103 33ff 	add.w	r3, r3, #4294967295	; 0xffffffff
4010421e:	66bb      	str	r3, [r7, #104]	; 0x68
40104220:	e9d7 0112 	ldrd	r0, r1, [r7, #72]	; 0x48
40104224:	f644 44ac 	movw	r4, #19628	; 0x4cac
40104228:	f2c4 0410 	movt	r4, #16400	; 0x4010
4010422c:	f04f 020a 	mov.w	r2, #10
40104230:	f04f 0300 	mov.w	r3, #0
40104234:	47a0      	blx	r4
40104236:	461c      	mov	r4, r3
40104238:	4613      	mov	r3, r2
4010423a:	b2db      	uxtb	r3, r3
4010423c:	f103 0330 	add.w	r3, r3, #48	; 0x30
40104240:	b2da      	uxtb	r2, r3
40104242:	6ebb      	ldr	r3, [r7, #104]	; 0x68
40104244:	701a      	strb	r2, [r3, #0]
/home/zhangxiang/Downloads/op-tee2/OP-TEE/bios_qemu_tz_arm/libutils/isoc/snprintf.c:452
40104246:	e9d7 0112 	ldrd	r0, r1, [r7, #72]	; 0x48
4010424a:	f644 44ac 	movw	r4, #19628	; 0x4cac
4010424e:	f2c4 0410 	movt	r4, #16400	; 0x4010
40104252:	f04f 020a 	mov.w	r2, #10
40104256:	f04f 0300 	mov.w	r3, #0
4010425a:	47a0      	blx	r4
4010425c:	4603      	mov	r3, r0
4010425e:	460c      	mov	r4, r1
40104260:	e9c7 3412 	strd	r3, r4, [r7, #72]	; 0x48
/home/zhangxiang/Downloads/op-tee2/OP-TEE/bios_qemu_tz_arm/libutils/isoc/snprintf.c:450
40104264:	e9d7 3412 	ldrd	r3, r4, [r7, #72]	; 0x48
40104268:	2c00      	cmp	r4, #0
4010426a:	bf08      	it	eq
4010426c:	2b0a      	cmpeq	r3, #10
4010426e:	d2d3      	bcs.n	40104218 <kprintf+0x9da>
/home/zhangxiang/Downloads/op-tee2/OP-TEE/bios_qemu_tz_arm/libutils/isoc/snprintf.c:454
40104270:	6ebb      	ldr	r3, [r7, #104]	; 0x68
40104272:	f103 33ff 	add.w	r3, r3, #4294967295	; 0xffffffff
40104276:	66bb      	str	r3, [r7, #104]	; 0x68
40104278:	f897 3048 	ldrb.w	r3, [r7, #72]	; 0x48
4010427c:	f103 0330 	add.w	r3, r3, #48	; 0x30
40104280:	b2da      	uxtb	r2, r3
40104282:	6ebb      	ldr	r3, [r7, #104]	; 0x68
40104284:	701a      	strb	r2, [r3, #0]
/home/zhangxiang/Downloads/op-tee2/OP-TEE/bios_qemu_tz_arm/libutils/isoc/snprintf.c:455
40104286:	e02a      	b.n	401042de <kprintf+0xaa0>
/home/zhangxiang/Downloads/op-tee2/OP-TEE/bios_qemu_tz_arm/libutils/isoc/snprintf.c:459 (discriminator 1)
40104288:	6ebb      	ldr	r3, [r7, #104]	; 0x68
4010428a:	f103 33ff 	add.w	r3, r3, #4294967295	; 0xffffffff
4010428e:	66bb      	str	r3, [r7, #104]	; 0x68
40104290:	6cbb      	ldr	r3, [r7, #72]	; 0x48
40104292:	f003 030f 	and.w	r3, r3, #15
40104296:	6b7a      	ldr	r2, [r7, #52]	; 0x34
40104298:	4413      	add	r3, r2
4010429a:	781a      	ldrb	r2, [r3, #0]
4010429c:	6ebb      	ldr	r3, [r7, #104]	; 0x68
4010429e:	701a      	strb	r2, [r3, #0]
/home/zhangxiang/Downloads/op-tee2/OP-TEE/bios_qemu_tz_arm/libutils/isoc/snprintf.c:460 (discriminator 1)
401042a0:	e9d7 3412 	ldrd	r3, r4, [r7, #72]	; 0x48
401042a4:	ea4f 1813 	mov.w	r8, r3, lsr #4
401042a8:	ea48 7804 	orr.w	r8, r8, r4, lsl #28
401042ac:	ea4f 1914 	mov.w	r9, r4, lsr #4
401042b0:	e9c7 8912 	strd	r8, r9, [r7, #72]	; 0x48
/home/zhangxiang/Downloads/op-tee2/OP-TEE/bios_qemu_tz_arm/libutils/isoc/snprintf.c:461 (discriminator 1)
401042b4:	e9d7 3412 	ldrd	r3, r4, [r7, #72]	; 0x48
401042b8:	4323      	orrs	r3, r4
401042ba:	d1e5      	bne.n	40104288 <kprintf+0xa4a>
/home/zhangxiang/Downloads/op-tee2/OP-TEE/bios_qemu_tz_arm/libutils/isoc/snprintf.c:462
401042bc:	e00f      	b.n	401042de <kprintf+0xaa0>
/home/zhangxiang/Downloads/op-tee2/OP-TEE/bios_qemu_tz_arm/libutils/isoc/snprintf.c:466
401042be:	f245 332c 	movw	r3, #21292	; 0x532c
401042c2:	f2c4 0310 	movt	r3, #16400	; 0x4010
401042c6:	66bb      	str	r3, [r7, #104]	; 0x68
/home/zhangxiang/Downloads/op-tee2/OP-TEE/bios_qemu_tz_arm/libutils/isoc/snprintf.c:467
401042c8:	6eb8      	ldr	r0, [r7, #104]	; 0x68
401042ca:	f644 239d 	movw	r3, #19101	; 0x4a9d
401042ce:	f2c4 0310 	movt	r3, #16400	; 0x4010
401042d2:	4798      	blx	r3
401042d4:	4603      	mov	r3, r0
401042d6:	63bb      	str	r3, [r7, #56]	; 0x38
/home/zhangxiang/Downloads/op-tee2/OP-TEE/bios_qemu_tz_arm/libutils/isoc/snprintf.c:468
401042d8:	bf00      	nop
/home/zhangxiang/Downloads/op-tee2/OP-TEE/bios_qemu_tz_arm/libutils/isoc/snprintf.c:473
401042da:	e01d      	b.n	40104318 <kprintf+0xada>
/home/zhangxiang/Downloads/op-tee2/OP-TEE/bios_qemu_tz_arm/libutils/isoc/snprintf.c:446
401042dc:	bf00      	nop
/home/zhangxiang/Downloads/op-tee2/OP-TEE/bios_qemu_tz_arm/libutils/isoc/snprintf.c:471
401042de:	f107 0314 	add.w	r3, r7, #20
401042e2:	f103 0317 	add.w	r3, r3, #23
401042e6:	461a      	mov	r2, r3
401042e8:	6ebb      	ldr	r3, [r7, #104]	; 0x68
401042ea:	eba2 0303 	sub.w	r3, r2, r3
401042ee:	63bb      	str	r3, [r7, #56]	; 0x38
/home/zhangxiang/Downloads/op-tee2/OP-TEE/bios_qemu_tz_arm/libutils/isoc/snprintf.c:473
401042f0:	e012      	b.n	40104318 <kprintf+0xada>
/home/zhangxiang/Downloads/op-tee2/OP-TEE/bios_qemu_tz_arm/libutils/isoc/snprintf.c:475
401042f2:	6f3b      	ldr	r3, [r7, #112]	; 0x70
401042f4:	2b00      	cmp	r3, #0
401042f6:	f000 812d 	beq.w	40104554 <kprintf+0xd16>
/home/zhangxiang/Downloads/op-tee2/OP-TEE/bios_qemu_tz_arm/libutils/isoc/snprintf.c:478
401042fa:	f107 0314 	add.w	r3, r7, #20
401042fe:	66bb      	str	r3, [r7, #104]	; 0x68
/home/zhangxiang/Downloads/op-tee2/OP-TEE/bios_qemu_tz_arm/libutils/isoc/snprintf.c:479
40104300:	6f3b      	ldr	r3, [r7, #112]	; 0x70
40104302:	b2da      	uxtb	r2, r3
40104304:	6ebb      	ldr	r3, [r7, #104]	; 0x68
40104306:	701a      	strb	r2, [r3, #0]
/home/zhangxiang/Downloads/op-tee2/OP-TEE/bios_qemu_tz_arm/libutils/isoc/snprintf.c:480
40104308:	f04f 0301 	mov.w	r3, #1
4010430c:	63bb      	str	r3, [r7, #56]	; 0x38
/home/zhangxiang/Downloads/op-tee2/OP-TEE/bios_qemu_tz_arm/libutils/isoc/snprintf.c:481
4010430e:	f04f 0300 	mov.w	r3, #0
40104312:	f887 3057 	strb.w	r3, [r7, #87]	; 0x57
/home/zhangxiang/Downloads/op-tee2/OP-TEE/bios_qemu_tz_arm/libutils/isoc/snprintf.c:482
40104316:	bf00      	nop
/home/zhangxiang/Downloads/op-tee2/OP-TEE/bios_qemu_tz_arm/libutils/isoc/snprintf.c:499
40104318:	6bba      	ldr	r2, [r7, #56]	; 0x38
4010431a:	6c3b      	ldr	r3, [r7, #64]	; 0x40
4010431c:	4293      	cmp	r3, r2
4010431e:	bfb8      	it	lt
40104320:	4613      	movlt	r3, r2
40104322:	63fb      	str	r3, [r7, #60]	; 0x3c
/home/zhangxiang/Downloads/op-tee2/OP-TEE/bios_qemu_tz_arm/libutils/isoc/snprintf.c:500
40104324:	f897 3057 	ldrb.w	r3, [r7, #87]	; 0x57
40104328:	2b00      	cmp	r3, #0
4010432a:	d004      	beq.n	40104336 <kprintf+0xaf8>
/home/zhangxiang/Downloads/op-tee2/OP-TEE/bios_qemu_tz_arm/libutils/isoc/snprintf.c:501
4010432c:	6bfb      	ldr	r3, [r7, #60]	; 0x3c
4010432e:	f103 0301 	add.w	r3, r3, #1
40104332:	63fb      	str	r3, [r7, #60]	; 0x3c
40104334:	e008      	b.n	40104348 <kprintf+0xb0a>
/home/zhangxiang/Downloads/op-tee2/OP-TEE/bios_qemu_tz_arm/libutils/isoc/snprintf.c:502
40104336:	6e7b      	ldr	r3, [r7, #100]	; 0x64
40104338:	f003 0302 	and.w	r3, r3, #2
4010433c:	2b00      	cmp	r3, #0
4010433e:	d003      	beq.n	40104348 <kprintf+0xb0a>
/home/zhangxiang/Downloads/op-tee2/OP-TEE/bios_qemu_tz_arm/libutils/isoc/snprintf.c:503
40104340:	6bfb      	ldr	r3, [r7, #60]	; 0x3c
40104342:	f103 0302 	add.w	r3, r3, #2
40104346:	63fb      	str	r3, [r7, #60]	; 0x3c
/home/zhangxiang/Downloads/op-tee2/OP-TEE/bios_qemu_tz_arm/libutils/isoc/snprintf.c:506
40104348:	6bfa      	ldr	r2, [r7, #60]	; 0x3c
4010434a:	6dfb      	ldr	r3, [r7, #92]	; 0x5c
4010434c:	4293      	cmp	r3, r2
4010434e:	bfb8      	it	lt
40104350:	4613      	movlt	r3, r2
40104352:	6e3a      	ldr	r2, [r7, #96]	; 0x60
40104354:	4413      	add	r3, r2
40104356:	663b      	str	r3, [r7, #96]	; 0x60
/home/zhangxiang/Downloads/op-tee2/OP-TEE/bios_qemu_tz_arm/libutils/isoc/snprintf.c:509
40104358:	6e7a      	ldr	r2, [r7, #100]	; 0x64
4010435a:	f240 4304 	movw	r3, #1028	; 0x404
4010435e:	ea03 0302 	and.w	r3, r3, r2
40104362:	2b00      	cmp	r3, #0
40104364:	d11f      	bne.n	401043a6 <kprintf+0xb68>
/home/zhangxiang/Downloads/op-tee2/OP-TEE/bios_qemu_tz_arm/libutils/isoc/snprintf.c:510
40104366:	6dfa      	ldr	r2, [r7, #92]	; 0x5c
40104368:	6bfb      	ldr	r3, [r7, #60]	; 0x3c
4010436a:	eba2 0303 	sub.w	r3, r2, r3
4010436e:	66fb      	str	r3, [r7, #108]	; 0x6c
/home/zhangxiang/Downloads/op-tee2/OP-TEE/bios_qemu_tz_arm/libutils/isoc/snprintf.c:511
40104370:	e013      	b.n	4010439a <kprintf+0xb5c>
/home/zhangxiang/Downloads/op-tee2/OP-TEE/bios_qemu_tz_arm/libutils/isoc/snprintf.c:512
40104372:	68bb      	ldr	r3, [r7, #8]
40104374:	2b08      	cmp	r3, #8
40104376:	d110      	bne.n	4010439a <kprintf+0xb5c>
/home/zhangxiang/Downloads/op-tee2/OP-TEE/bios_qemu_tz_arm/libutils/isoc/snprintf.c:512 (discriminator 1)
40104378:	683b      	ldr	r3, [r7, #0]
4010437a:	2b00      	cmp	r3, #0
4010437c:	d00d      	beq.n	4010439a <kprintf+0xb5c>
/home/zhangxiang/Downloads/op-tee2/OP-TEE/bios_qemu_tz_arm/libutils/isoc/snprintf.c:512 (discriminator 2)
4010437e:	687b      	ldr	r3, [r7, #4]
40104380:	2b00      	cmp	r3, #0
40104382:	d003      	beq.n	4010438c <kprintf+0xb4e>
/home/zhangxiang/Downloads/op-tee2/OP-TEE/bios_qemu_tz_arm/libutils/isoc/snprintf.c:512 (discriminator 4)
40104384:	683a      	ldr	r2, [r7, #0]
40104386:	6b3b      	ldr	r3, [r7, #48]	; 0x30
40104388:	429a      	cmp	r2, r3
4010438a:	d206      	bcs.n	4010439a <kprintf+0xb5c>
/home/zhangxiang/Downloads/op-tee2/OP-TEE/bios_qemu_tz_arm/libutils/isoc/snprintf.c:512 (discriminator 5)
4010438c:	683b      	ldr	r3, [r7, #0]
4010438e:	f103 0201 	add.w	r2, r3, #1
40104392:	603a      	str	r2, [r7, #0]
40104394:	f04f 0220 	mov.w	r2, #32
40104398:	701a      	strb	r2, [r3, #0]
/home/zhangxiang/Downloads/op-tee2/OP-TEE/bios_qemu_tz_arm/libutils/isoc/snprintf.c:511
4010439a:	6efb      	ldr	r3, [r7, #108]	; 0x6c
4010439c:	f103 32ff 	add.w	r2, r3, #4294967295	; 0xffffffff
401043a0:	66fa      	str	r2, [r7, #108]	; 0x6c
401043a2:	2b00      	cmp	r3, #0
401043a4:	dce5      	bgt.n	40104372 <kprintf+0xb34>
/home/zhangxiang/Downloads/op-tee2/OP-TEE/bios_qemu_tz_arm/libutils/isoc/snprintf.c:516
401043a6:	f897 3057 	ldrb.w	r3, [r7, #87]	; 0x57
401043aa:	2b00      	cmp	r3, #0
401043ac:	d014      	beq.n	401043d8 <kprintf+0xb9a>
/home/zhangxiang/Downloads/op-tee2/OP-TEE/bios_qemu_tz_arm/libutils/isoc/snprintf.c:517
401043ae:	68bb      	ldr	r3, [r7, #8]
401043b0:	2b08      	cmp	r3, #8
401043b2:	d13e      	bne.n	40104432 <kprintf+0xbf4>
/home/zhangxiang/Downloads/op-tee2/OP-TEE/bios_qemu_tz_arm/libutils/isoc/snprintf.c:517 (discriminator 1)
401043b4:	683b      	ldr	r3, [r7, #0]
401043b6:	2b00      	cmp	r3, #0
401043b8:	d03b      	beq.n	40104432 <kprintf+0xbf4>
/home/zhangxiang/Downloads/op-tee2/OP-TEE/bios_qemu_tz_arm/libutils/isoc/snprintf.c:517 (discriminator 2)
401043ba:	687b      	ldr	r3, [r7, #4]
401043bc:	2b00      	cmp	r3, #0
401043be:	d003      	beq.n	401043c8 <kprintf+0xb8a>
/home/zhangxiang/Downloads/op-tee2/OP-TEE/bios_qemu_tz_arm/libutils/isoc/snprintf.c:517 (discriminator 4)
401043c0:	683a      	ldr	r2, [r7, #0]
401043c2:	6b3b      	ldr	r3, [r7, #48]	; 0x30
401043c4:	429a      	cmp	r2, r3
401043c6:	d234      	bcs.n	40104432 <kprintf+0xbf4>
/home/zhangxiang/Downloads/op-tee2/OP-TEE/bios_qemu_tz_arm/libutils/isoc/snprintf.c:517 (discriminator 5)
401043c8:	683b      	ldr	r3, [r7, #0]
401043ca:	f103 0201 	add.w	r2, r3, #1
401043ce:	603a      	str	r2, [r7, #0]
401043d0:	f897 2057 	ldrb.w	r2, [r7, #87]	; 0x57
401043d4:	701a      	strb	r2, [r3, #0]
401043d6:	e02c      	b.n	40104432 <kprintf+0xbf4>
/home/zhangxiang/Downloads/op-tee2/OP-TEE/bios_qemu_tz_arm/libutils/isoc/snprintf.c:518
401043d8:	6e7b      	ldr	r3, [r7, #100]	; 0x64
401043da:	f003 0302 	and.w	r3, r3, #2
401043de:	2b00      	cmp	r3, #0
401043e0:	d027      	beq.n	40104432 <kprintf+0xbf4>
/home/zhangxiang/Downloads/op-tee2/OP-TEE/bios_qemu_tz_arm/libutils/isoc/snprintf.c:519
401043e2:	68bb      	ldr	r3, [r7, #8]
401043e4:	2b08      	cmp	r3, #8
401043e6:	d110      	bne.n	4010440a <kprintf+0xbcc>
/home/zhangxiang/Downloads/op-tee2/OP-TEE/bios_qemu_tz_arm/libutils/isoc/snprintf.c:519 (discriminator 1)
401043e8:	683b      	ldr	r3, [r7, #0]
401043ea:	2b00      	cmp	r3, #0
401043ec:	d00d      	beq.n	4010440a <kprintf+0xbcc>
/home/zhangxiang/Downloads/op-tee2/OP-TEE/bios_qemu_tz_arm/libutils/isoc/snprintf.c:519 (discriminator 2)
401043ee:	687b      	ldr	r3, [r7, #4]
401043f0:	2b00      	cmp	r3, #0
401043f2:	d003      	beq.n	401043fc <kprintf+0xbbe>
/home/zhangxiang/Downloads/op-tee2/OP-TEE/bios_qemu_tz_arm/libutils/isoc/snprintf.c:519 (discriminator 4)
401043f4:	683a      	ldr	r2, [r7, #0]
401043f6:	6b3b      	ldr	r3, [r7, #48]	; 0x30
401043f8:	429a      	cmp	r2, r3
401043fa:	d206      	bcs.n	4010440a <kprintf+0xbcc>
/home/zhangxiang/Downloads/op-tee2/OP-TEE/bios_qemu_tz_arm/libutils/isoc/snprintf.c:519 (discriminator 5)
401043fc:	683b      	ldr	r3, [r7, #0]
401043fe:	f103 0201 	add.w	r2, r3, #1
40104402:	603a      	str	r2, [r7, #0]
40104404:	f04f 0230 	mov.w	r2, #48	; 0x30
40104408:	701a      	strb	r2, [r3, #0]
/home/zhangxiang/Downloads/op-tee2/OP-TEE/bios_qemu_tz_arm/libutils/isoc/snprintf.c:520
4010440a:	68bb      	ldr	r3, [r7, #8]
4010440c:	2b08      	cmp	r3, #8
4010440e:	d110      	bne.n	40104432 <kprintf+0xbf4>
/home/zhangxiang/Downloads/op-tee2/OP-TEE/bios_qemu_tz_arm/libutils/isoc/snprintf.c:520 (discriminator 1)
40104410:	683b      	ldr	r3, [r7, #0]
40104412:	2b00      	cmp	r3, #0
40104414:	d00d      	beq.n	40104432 <kprintf+0xbf4>
/home/zhangxiang/Downloads/op-tee2/OP-TEE/bios_qemu_tz_arm/libutils/isoc/snprintf.c:520 (discriminator 2)
40104416:	687b      	ldr	r3, [r7, #4]
40104418:	2b00      	cmp	r3, #0
4010441a:	d003      	beq.n	40104424 <kprintf+0xbe6>
/home/zhangxiang/Downloads/op-tee2/OP-TEE/bios_qemu_tz_arm/libutils/isoc/snprintf.c:520 (discriminator 4)
4010441c:	683a      	ldr	r2, [r7, #0]
4010441e:	6b3b      	ldr	r3, [r7, #48]	; 0x30
40104420:	429a      	cmp	r2, r3
40104422:	d206      	bcs.n	40104432 <kprintf+0xbf4>
/home/zhangxiang/Downloads/op-tee2/OP-TEE/bios_qemu_tz_arm/libutils/isoc/snprintf.c:520 (discriminator 5)
40104424:	683b      	ldr	r3, [r7, #0]
40104426:	f103 0201 	add.w	r2, r3, #1
4010442a:	603a      	str	r2, [r7, #0]
4010442c:	6f3a      	ldr	r2, [r7, #112]	; 0x70
4010442e:	b2d2      	uxtb	r2, r2
40104430:	701a      	strb	r2, [r3, #0]
/home/zhangxiang/Downloads/op-tee2/OP-TEE/bios_qemu_tz_arm/libutils/isoc/snprintf.c:524
40104432:	6e7a      	ldr	r2, [r7, #100]	; 0x64
40104434:	f240 4304 	movw	r3, #1028	; 0x404
40104438:	ea03 0302 	and.w	r3, r3, r2
4010443c:	f5b3 6f80 	cmp.w	r3, #1024	; 0x400
40104440:	d11f      	bne.n	40104482 <kprintf+0xc44>
/home/zhangxiang/Downloads/op-tee2/OP-TEE/bios_qemu_tz_arm/libutils/isoc/snprintf.c:525
40104442:	6dfa      	ldr	r2, [r7, #92]	; 0x5c
40104444:	6bfb      	ldr	r3, [r7, #60]	; 0x3c
40104446:	eba2 0303 	sub.w	r3, r2, r3
4010444a:	66fb      	str	r3, [r7, #108]	; 0x6c
/home/zhangxiang/Downloads/op-tee2/OP-TEE/bios_qemu_tz_arm/libutils/isoc/snprintf.c:526
4010444c:	e013      	b.n	40104476 <kprintf+0xc38>
/home/zhangxiang/Downloads/op-tee2/OP-TEE/bios_qemu_tz_arm/libutils/isoc/snprintf.c:527
4010444e:	68bb      	ldr	r3, [r7, #8]
40104450:	2b08      	cmp	r3, #8
40104452:	d110      	bne.n	40104476 <kprintf+0xc38>
/home/zhangxiang/Downloads/op-tee2/OP-TEE/bios_qemu_tz_arm/libutils/isoc/snprintf.c:527 (discriminator 1)
40104454:	683b      	ldr	r3, [r7, #0]
40104456:	2b00      	cmp	r3, #0
40104458:	d00d      	beq.n	40104476 <kprintf+0xc38>
/home/zhangxiang/Downloads/op-tee2/OP-TEE/bios_qemu_tz_arm/libutils/isoc/snprintf.c:527 (discriminator 2)
4010445a:	687b      	ldr	r3, [r7, #4]
4010445c:	2b00      	cmp	r3, #0
4010445e:	d003      	beq.n	40104468 <kprintf+0xc2a>
/home/zhangxiang/Downloads/op-tee2/OP-TEE/bios_qemu_tz_arm/libutils/isoc/snprintf.c:527 (discriminator 4)
40104460:	683a      	ldr	r2, [r7, #0]
40104462:	6b3b      	ldr	r3, [r7, #48]	; 0x30
40104464:	429a      	cmp	r2, r3
40104466:	d206      	bcs.n	40104476 <kprintf+0xc38>
/home/zhangxiang/Downloads/op-tee2/OP-TEE/bios_qemu_tz_arm/libutils/isoc/snprintf.c:527 (discriminator 5)
40104468:	683b      	ldr	r3, [r7, #0]
4010446a:	f103 0201 	add.w	r2, r3, #1
4010446e:	603a      	str	r2, [r7, #0]
40104470:	f04f 0230 	mov.w	r2, #48	; 0x30
40104474:	701a      	strb	r2, [r3, #0]
/home/zhangxiang/Downloads/op-tee2/OP-TEE/bios_qemu_tz_arm/libutils/isoc/snprintf.c:526
40104476:	6efb      	ldr	r3, [r7, #108]	; 0x6c
40104478:	f103 32ff 	add.w	r2, r3, #4294967295	; 0xffffffff
4010447c:	66fa      	str	r2, [r7, #108]	; 0x6c
4010447e:	2b00      	cmp	r3, #0
40104480:	dce5      	bgt.n	4010444e <kprintf+0xc10>
/home/zhangxiang/Downloads/op-tee2/OP-TEE/bios_qemu_tz_arm/libutils/isoc/snprintf.c:531
40104482:	6c3a      	ldr	r2, [r7, #64]	; 0x40
40104484:	6bbb      	ldr	r3, [r7, #56]	; 0x38
40104486:	eba2 0303 	sub.w	r3, r2, r3
4010448a:	66fb      	str	r3, [r7, #108]	; 0x6c
/home/zhangxiang/Downloads/op-tee2/OP-TEE/bios_qemu_tz_arm/libutils/isoc/snprintf.c:532
4010448c:	e013      	b.n	401044b6 <kprintf+0xc78>
/home/zhangxiang/Downloads/op-tee2/OP-TEE/bios_qemu_tz_arm/libutils/isoc/snprintf.c:533
4010448e:	68bb      	ldr	r3, [r7, #8]
40104490:	2b08      	cmp	r3, #8
40104492:	d110      	bne.n	401044b6 <kprintf+0xc78>
/home/zhangxiang/Downloads/op-tee2/OP-TEE/bios_qemu_tz_arm/libutils/isoc/snprintf.c:533 (discriminator 1)
40104494:	683b      	ldr	r3, [r7, #0]
40104496:	2b00      	cmp	r3, #0
40104498:	d00d      	beq.n	401044b6 <kprintf+0xc78>
/home/zhangxiang/Downloads/op-tee2/OP-TEE/bios_qemu_tz_arm/libutils/isoc/snprintf.c:533 (discriminator 2)
4010449a:	687b      	ldr	r3, [r7, #4]
4010449c:	2b00      	cmp	r3, #0
4010449e:	d003      	beq.n	401044a8 <kprintf+0xc6a>
/home/zhangxiang/Downloads/op-tee2/OP-TEE/bios_qemu_tz_arm/libutils/isoc/snprintf.c:533 (discriminator 4)
401044a0:	683a      	ldr	r2, [r7, #0]
401044a2:	6b3b      	ldr	r3, [r7, #48]	; 0x30
401044a4:	429a      	cmp	r2, r3
401044a6:	d206      	bcs.n	401044b6 <kprintf+0xc78>
/home/zhangxiang/Downloads/op-tee2/OP-TEE/bios_qemu_tz_arm/libutils/isoc/snprintf.c:533 (discriminator 5)
401044a8:	683b      	ldr	r3, [r7, #0]
401044aa:	f103 0201 	add.w	r2, r3, #1
401044ae:	603a      	str	r2, [r7, #0]
401044b0:	f04f 0230 	mov.w	r2, #48	; 0x30
401044b4:	701a      	strb	r2, [r3, #0]
/home/zhangxiang/Downloads/op-tee2/OP-TEE/bios_qemu_tz_arm/libutils/isoc/snprintf.c:532
401044b6:	6efb      	ldr	r3, [r7, #108]	; 0x6c
401044b8:	f103 32ff 	add.w	r2, r3, #4294967295	; 0xffffffff
401044bc:	66fa      	str	r2, [r7, #108]	; 0x6c
401044be:	2b00      	cmp	r3, #0
401044c0:	dce5      	bgt.n	4010448e <kprintf+0xc50>
/home/zhangxiang/Downloads/op-tee2/OP-TEE/bios_qemu_tz_arm/libutils/isoc/snprintf.c:536
401044c2:	e017      	b.n	401044f4 <kprintf+0xcb6>
/home/zhangxiang/Downloads/op-tee2/OP-TEE/bios_qemu_tz_arm/libutils/isoc/snprintf.c:537
401044c4:	68bb      	ldr	r3, [r7, #8]
401044c6:	2b08      	cmp	r3, #8
401044c8:	d110      	bne.n	401044ec <kprintf+0xcae>
/home/zhangxiang/Downloads/op-tee2/OP-TEE/bios_qemu_tz_arm/libutils/isoc/snprintf.c:537 (discriminator 1)
401044ca:	683b      	ldr	r3, [r7, #0]
401044cc:	2b00      	cmp	r3, #0
401044ce:	d00d      	beq.n	401044ec <kprintf+0xcae>
/home/zhangxiang/Downloads/op-tee2/OP-TEE/bios_qemu_tz_arm/libutils/isoc/snprintf.c:537 (discriminator 2)
401044d0:	687b      	ldr	r3, [r7, #4]
401044d2:	2b00      	cmp	r3, #0
401044d4:	d003      	beq.n	401044de <kprintf+0xca0>
/home/zhangxiang/Downloads/op-tee2/OP-TEE/bios_qemu_tz_arm/libutils/isoc/snprintf.c:537 (discriminator 4)
401044d6:	683a      	ldr	r2, [r7, #0]
401044d8:	6b3b      	ldr	r3, [r7, #48]	; 0x30
401044da:	429a      	cmp	r2, r3
401044dc:	d206      	bcs.n	401044ec <kprintf+0xcae>
/home/zhangxiang/Downloads/op-tee2/OP-TEE/bios_qemu_tz_arm/libutils/isoc/snprintf.c:537 (discriminator 5)
401044de:	683b      	ldr	r3, [r7, #0]
401044e0:	f103 0201 	add.w	r2, r3, #1
401044e4:	603a      	str	r2, [r7, #0]
401044e6:	6eba      	ldr	r2, [r7, #104]	; 0x68
401044e8:	7812      	ldrb	r2, [r2, #0]
401044ea:	701a      	strb	r2, [r3, #0]
/home/zhangxiang/Downloads/op-tee2/OP-TEE/bios_qemu_tz_arm/libutils/isoc/snprintf.c:536
401044ec:	6ebb      	ldr	r3, [r7, #104]	; 0x68
401044ee:	f103 0301 	add.w	r3, r3, #1
401044f2:	66bb      	str	r3, [r7, #104]	; 0x68
/home/zhangxiang/Downloads/op-tee2/OP-TEE/bios_qemu_tz_arm/libutils/isoc/snprintf.c:536 (discriminator 1)
401044f4:	6bbb      	ldr	r3, [r7, #56]	; 0x38
401044f6:	f103 32ff 	add.w	r2, r3, #4294967295	; 0xffffffff
401044fa:	63ba      	str	r2, [r7, #56]	; 0x38
401044fc:	2b00      	cmp	r3, #0
401044fe:	d1e1      	bne.n	401044c4 <kprintf+0xc86>
/home/zhangxiang/Downloads/op-tee2/OP-TEE/bios_qemu_tz_arm/libutils/isoc/snprintf.c:539
40104500:	6e7b      	ldr	r3, [r7, #100]	; 0x64
40104502:	f003 0304 	and.w	r3, r3, #4
40104506:	2b00      	cmp	r3, #0
40104508:	f43f a9df 	beq.w	401038ca <kprintf+0x8c>
/home/zhangxiang/Downloads/op-tee2/OP-TEE/bios_qemu_tz_arm/libutils/isoc/snprintf.c:540
4010450c:	6dfa      	ldr	r2, [r7, #92]	; 0x5c
4010450e:	6bfb      	ldr	r3, [r7, #60]	; 0x3c
40104510:	eba2 0303 	sub.w	r3, r2, r3
40104514:	66fb      	str	r3, [r7, #108]	; 0x6c
/home/zhangxiang/Downloads/op-tee2/OP-TEE/bios_qemu_tz_arm/libutils/isoc/snprintf.c:541
40104516:	e013      	b.n	40104540 <kprintf+0xd02>
/home/zhangxiang/Downloads/op-tee2/OP-TEE/bios_qemu_tz_arm/libutils/isoc/snprintf.c:542
40104518:	68bb      	ldr	r3, [r7, #8]
4010451a:	2b08      	cmp	r3, #8
4010451c:	d110      	bne.n	40104540 <kprintf+0xd02>
/home/zhangxiang/Downloads/op-tee2/OP-TEE/bios_qemu_tz_arm/libutils/isoc/snprintf.c:542 (discriminator 1)
4010451e:	683b      	ldr	r3, [r7, #0]
40104520:	2b00      	cmp	r3, #0
40104522:	d00d      	beq.n	40104540 <kprintf+0xd02>
/home/zhangxiang/Downloads/op-tee2/OP-TEE/bios_qemu_tz_arm/libutils/isoc/snprintf.c:542 (discriminator 2)
40104524:	687b      	ldr	r3, [r7, #4]
40104526:	2b00      	cmp	r3, #0
40104528:	d003      	beq.n	40104532 <kprintf+0xcf4>
/home/zhangxiang/Downloads/op-tee2/OP-TEE/bios_qemu_tz_arm/libutils/isoc/snprintf.c:542 (discriminator 4)
4010452a:	683a      	ldr	r2, [r7, #0]
4010452c:	6b3b      	ldr	r3, [r7, #48]	; 0x30
4010452e:	429a      	cmp	r2, r3
40104530:	d206      	bcs.n	40104540 <kprintf+0xd02>
/home/zhangxiang/Downloads/op-tee2/OP-TEE/bios_qemu_tz_arm/libutils/isoc/snprintf.c:542 (discriminator 5)
40104532:	683b      	ldr	r3, [r7, #0]
40104534:	f103 0201 	add.w	r2, r3, #1
40104538:	603a      	str	r2, [r7, #0]
4010453a:	f04f 0220 	mov.w	r2, #32
4010453e:	701a      	strb	r2, [r3, #0]
/home/zhangxiang/Downloads/op-tee2/OP-TEE/bios_qemu_tz_arm/libutils/isoc/snprintf.c:541
40104540:	6efb      	ldr	r3, [r7, #108]	; 0x6c
40104542:	f103 32ff 	add.w	r2, r3, #4294967295	; 0xffffffff
40104546:	66fa      	str	r2, [r7, #108]	; 0x6c
40104548:	2b00      	cmp	r3, #0
4010454a:	dce5      	bgt.n	40104518 <kprintf+0xcda>
/home/zhangxiang/Downloads/op-tee2/OP-TEE/bios_qemu_tz_arm/libutils/isoc/snprintf.c:221
4010454c:	f7ff b9bd 	b.w	401038ca <kprintf+0x8c>
/home/zhangxiang/Downloads/op-tee2/OP-TEE/bios_qemu_tz_arm/libutils/isoc/snprintf.c:226
40104550:	bf00      	nop
40104552:	e000      	b.n	40104556 <kprintf+0xd18>
/home/zhangxiang/Downloads/op-tee2/OP-TEE/bios_qemu_tz_arm/libutils/isoc/snprintf.c:476
40104554:	bf00      	nop
/home/zhangxiang/Downloads/op-tee2/OP-TEE/bios_qemu_tz_arm/libutils/isoc/snprintf.c:547
40104556:	68bb      	ldr	r3, [r7, #8]
40104558:	2b08      	cmp	r3, #8
4010455a:	d105      	bne.n	40104568 <kprintf+0xd2a>
/home/zhangxiang/Downloads/op-tee2/OP-TEE/bios_qemu_tz_arm/libutils/isoc/snprintf.c:547 (discriminator 1)
4010455c:	687b      	ldr	r3, [r7, #4]
4010455e:	2b00      	cmp	r3, #0
40104560:	d002      	beq.n	40104568 <kprintf+0xd2a>
/home/zhangxiang/Downloads/op-tee2/OP-TEE/bios_qemu_tz_arm/libutils/isoc/snprintf.c:548
40104562:	687b      	ldr	r3, [r7, #4]
40104564:	683a      	ldr	r2, [r7, #0]
40104566:	601a      	str	r2, [r3, #0]
/home/zhangxiang/Downloads/op-tee2/OP-TEE/bios_qemu_tz_arm/libutils/isoc/snprintf.c:549
40104568:	6e3b      	ldr	r3, [r7, #96]	; 0x60
/home/zhangxiang/Downloads/op-tee2/OP-TEE/bios_qemu_tz_arm/libutils/isoc/snprintf.c:550
4010456a:	4618      	mov	r0, r3
4010456c:	f107 077c 	add.w	r7, r7, #124	; 0x7c
40104570:	46bd      	mov	sp, r7
40104572:	e9dd 4500 	ldrd	r4, r5, [sp]
40104576:	e9dd 6702 	ldrd	r6, r7, [sp, #8]
4010457a:	e9dd 8904 	ldrd	r8, r9, [sp, #16]
4010457e:	b006      	add	sp, #24
40104580:	f85d fb04 	ldr.w	pc, [sp], #4

40104584 <memchr>:
memchr():
/home/zhangxiang/Downloads/op-tee2/OP-TEE/bios_qemu_tz_arm/libutils/isoc/newlib/memchr.c:105
40104584:	f84d 7d04 	str.w	r7, [sp, #-4]!
40104588:	b08b      	sub	sp, #44	; 0x2c
4010458a:	af00      	add	r7, sp, #0
4010458c:	60f8      	str	r0, [r7, #12]
4010458e:	60b9      	str	r1, [r7, #8]
40104590:	607a      	str	r2, [r7, #4]
/home/zhangxiang/Downloads/op-tee2/OP-TEE/bios_qemu_tz_arm/libutils/isoc/newlib/memchr.c:106
40104592:	68fb      	ldr	r3, [r7, #12]
40104594:	627b      	str	r3, [r7, #36]	; 0x24
/home/zhangxiang/Downloads/op-tee2/OP-TEE/bios_qemu_tz_arm/libutils/isoc/newlib/memchr.c:107
40104596:	68bb      	ldr	r3, [r7, #8]
40104598:	75fb      	strb	r3, [r7, #23]
/home/zhangxiang/Downloads/op-tee2/OP-TEE/bios_qemu_tz_arm/libutils/isoc/newlib/memchr.c:114
4010459a:	e013      	b.n	401045c4 <memchr+0x40>
/home/zhangxiang/Downloads/op-tee2/OP-TEE/bios_qemu_tz_arm/libutils/isoc/newlib/memchr.c:115
4010459c:	687b      	ldr	r3, [r7, #4]
4010459e:	f103 32ff 	add.w	r2, r3, #4294967295	; 0xffffffff
401045a2:	607a      	str	r2, [r7, #4]
401045a4:	2b00      	cmp	r3, #0
401045a6:	d102      	bne.n	401045ae <memchr+0x2a>
/home/zhangxiang/Downloads/op-tee2/OP-TEE/bios_qemu_tz_arm/libutils/isoc/newlib/memchr.c:116
401045a8:	f04f 0300 	mov.w	r3, #0
401045ac:	e06d      	b.n	4010468a <memchr+0x106>
/home/zhangxiang/Downloads/op-tee2/OP-TEE/bios_qemu_tz_arm/libutils/isoc/newlib/memchr.c:117
401045ae:	6a7b      	ldr	r3, [r7, #36]	; 0x24
401045b0:	781b      	ldrb	r3, [r3, #0]
401045b2:	7dfa      	ldrb	r2, [r7, #23]
401045b4:	429a      	cmp	r2, r3
401045b6:	d101      	bne.n	401045bc <memchr+0x38>
/home/zhangxiang/Downloads/op-tee2/OP-TEE/bios_qemu_tz_arm/libutils/isoc/newlib/memchr.c:118
401045b8:	6a7b      	ldr	r3, [r7, #36]	; 0x24
401045ba:	e066      	b.n	4010468a <memchr+0x106>
/home/zhangxiang/Downloads/op-tee2/OP-TEE/bios_qemu_tz_arm/libutils/isoc/newlib/memchr.c:119
401045bc:	6a7b      	ldr	r3, [r7, #36]	; 0x24
401045be:	f103 0301 	add.w	r3, r3, #1
401045c2:	627b      	str	r3, [r7, #36]	; 0x24
/home/zhangxiang/Downloads/op-tee2/OP-TEE/bios_qemu_tz_arm/libutils/isoc/newlib/memchr.c:114
401045c4:	6a7b      	ldr	r3, [r7, #36]	; 0x24
401045c6:	f003 0303 	and.w	r3, r3, #3
401045ca:	2b00      	cmp	r3, #0
401045cc:	d1e6      	bne.n	4010459c <memchr+0x18>
/home/zhangxiang/Downloads/op-tee2/OP-TEE/bios_qemu_tz_arm/libutils/isoc/newlib/memchr.c:122
401045ce:	687b      	ldr	r3, [r7, #4]
401045d0:	2b03      	cmp	r3, #3
401045d2:	d952      	bls.n	4010467a <memchr+0xf6>
/home/zhangxiang/Downloads/op-tee2/OP-TEE/bios_qemu_tz_arm/libutils/isoc/newlib/memchr.c:131
401045d4:	6a7b      	ldr	r3, [r7, #36]	; 0x24
401045d6:	623b      	str	r3, [r7, #32]
/home/zhangxiang/Downloads/op-tee2/OP-TEE/bios_qemu_tz_arm/libutils/isoc/newlib/memchr.c:132
401045d8:	7dfb      	ldrb	r3, [r7, #23]
401045da:	ea4f 2203 	mov.w	r2, r3, lsl #8
401045de:	7dfb      	ldrb	r3, [r7, #23]
401045e0:	ea43 0302 	orr.w	r3, r3, r2
401045e4:	61fb      	str	r3, [r7, #28]
/home/zhangxiang/Downloads/op-tee2/OP-TEE/bios_qemu_tz_arm/libutils/isoc/newlib/memchr.c:133
401045e6:	69fb      	ldr	r3, [r7, #28]
401045e8:	ea4f 4303 	mov.w	r3, r3, lsl #16
401045ec:	69fa      	ldr	r2, [r7, #28]
401045ee:	ea43 0302 	orr.w	r3, r3, r2
401045f2:	61fb      	str	r3, [r7, #28]
/home/zhangxiang/Downloads/op-tee2/OP-TEE/bios_qemu_tz_arm/libutils/isoc/newlib/memchr.c:134
401045f4:	f04f 0320 	mov.w	r3, #32
401045f8:	61bb      	str	r3, [r7, #24]
401045fa:	e00b      	b.n	40104614 <memchr+0x90>
/home/zhangxiang/Downloads/op-tee2/OP-TEE/bios_qemu_tz_arm/libutils/isoc/newlib/memchr.c:135 (discriminator 3)
401045fc:	69fa      	ldr	r2, [r7, #28]
401045fe:	69bb      	ldr	r3, [r7, #24]
40104600:	fa02 f303 	lsl.w	r3, r2, r3
40104604:	69fa      	ldr	r2, [r7, #28]
40104606:	ea43 0302 	orr.w	r3, r3, r2
4010460a:	61fb      	str	r3, [r7, #28]
/home/zhangxiang/Downloads/op-tee2/OP-TEE/bios_qemu_tz_arm/libutils/isoc/newlib/memchr.c:134 (discriminator 3)
4010460c:	69bb      	ldr	r3, [r7, #24]
4010460e:	ea4f 0343 	mov.w	r3, r3, lsl #1
40104612:	61bb      	str	r3, [r7, #24]
/home/zhangxiang/Downloads/op-tee2/OP-TEE/bios_qemu_tz_arm/libutils/isoc/newlib/memchr.c:134 (discriminator 1)
40104614:	69bb      	ldr	r3, [r7, #24]
40104616:	2b1f      	cmp	r3, #31
40104618:	d9f0      	bls.n	401045fc <memchr+0x78>
/home/zhangxiang/Downloads/op-tee2/OP-TEE/bios_qemu_tz_arm/libutils/isoc/newlib/memchr.c:137
4010461a:	e01b      	b.n	40104654 <memchr+0xd0>
/home/zhangxiang/Downloads/op-tee2/OP-TEE/bios_qemu_tz_arm/libutils/isoc/newlib/memchr.c:138
4010461c:	6a3b      	ldr	r3, [r7, #32]
4010461e:	681a      	ldr	r2, [r3, #0]
40104620:	69fb      	ldr	r3, [r7, #28]
40104622:	ea83 0302 	eor.w	r3, r3, r2
40104626:	f1a3 3201 	sub.w	r2, r3, #16843009	; 0x1010101
4010462a:	6a3b      	ldr	r3, [r7, #32]
4010462c:	6819      	ldr	r1, [r3, #0]
4010462e:	69fb      	ldr	r3, [r7, #28]
40104630:	ea83 0301 	eor.w	r3, r3, r1
40104634:	ea6f 0303 	mvn.w	r3, r3
40104638:	ea03 0302 	and.w	r3, r3, r2
4010463c:	f003 3380 	and.w	r3, r3, #2155905152	; 0x80808080
40104640:	2b00      	cmp	r3, #0
40104642:	d10b      	bne.n	4010465c <memchr+0xd8>
/home/zhangxiang/Downloads/op-tee2/OP-TEE/bios_qemu_tz_arm/libutils/isoc/newlib/memchr.c:140
40104644:	687b      	ldr	r3, [r7, #4]
40104646:	f1a3 0304 	sub.w	r3, r3, #4
4010464a:	607b      	str	r3, [r7, #4]
/home/zhangxiang/Downloads/op-tee2/OP-TEE/bios_qemu_tz_arm/libutils/isoc/newlib/memchr.c:141
4010464c:	6a3b      	ldr	r3, [r7, #32]
4010464e:	f103 0304 	add.w	r3, r3, #4
40104652:	623b      	str	r3, [r7, #32]
/home/zhangxiang/Downloads/op-tee2/OP-TEE/bios_qemu_tz_arm/libutils/isoc/newlib/memchr.c:137
40104654:	687b      	ldr	r3, [r7, #4]
40104656:	2b03      	cmp	r3, #3
40104658:	d8e0      	bhi.n	4010461c <memchr+0x98>
4010465a:	e000      	b.n	4010465e <memchr+0xda>
/home/zhangxiang/Downloads/op-tee2/OP-TEE/bios_qemu_tz_arm/libutils/isoc/newlib/memchr.c:139
4010465c:	bf00      	nop
/home/zhangxiang/Downloads/op-tee2/OP-TEE/bios_qemu_tz_arm/libutils/isoc/newlib/memchr.c:147
4010465e:	6a3b      	ldr	r3, [r7, #32]
40104660:	627b      	str	r3, [r7, #36]	; 0x24
/home/zhangxiang/Downloads/op-tee2/OP-TEE/bios_qemu_tz_arm/libutils/isoc/newlib/memchr.c:151
40104662:	e00a      	b.n	4010467a <memchr+0xf6>
/home/zhangxiang/Downloads/op-tee2/OP-TEE/bios_qemu_tz_arm/libutils/isoc/newlib/memchr.c:152
40104664:	6a7b      	ldr	r3, [r7, #36]	; 0x24
40104666:	781b      	ldrb	r3, [r3, #0]
40104668:	7dfa      	ldrb	r2, [r7, #23]
4010466a:	429a      	cmp	r2, r3
4010466c:	d101      	bne.n	40104672 <memchr+0xee>
/home/zhangxiang/Downloads/op-tee2/OP-TEE/bios_qemu_tz_arm/libutils/isoc/newlib/memchr.c:153
4010466e:	6a7b      	ldr	r3, [r7, #36]	; 0x24
40104670:	e00b      	b.n	4010468a <memchr+0x106>
/home/zhangxiang/Downloads/op-tee2/OP-TEE/bios_qemu_tz_arm/libutils/isoc/newlib/memchr.c:154
40104672:	6a7b      	ldr	r3, [r7, #36]	; 0x24
40104674:	f103 0301 	add.w	r3, r3, #1
40104678:	627b      	str	r3, [r7, #36]	; 0x24
/home/zhangxiang/Downloads/op-tee2/OP-TEE/bios_qemu_tz_arm/libutils/isoc/newlib/memchr.c:151
4010467a:	687b      	ldr	r3, [r7, #4]
4010467c:	f103 32ff 	add.w	r2, r3, #4294967295	; 0xffffffff
40104680:	607a      	str	r2, [r7, #4]
40104682:	2b00      	cmp	r3, #0
40104684:	d1ee      	bne.n	40104664 <memchr+0xe0>
/home/zhangxiang/Downloads/op-tee2/OP-TEE/bios_qemu_tz_arm/libutils/isoc/newlib/memchr.c:157
40104686:	f04f 0300 	mov.w	r3, #0
/home/zhangxiang/Downloads/op-tee2/OP-TEE/bios_qemu_tz_arm/libutils/isoc/newlib/memchr.c:158
4010468a:	4618      	mov	r0, r3
4010468c:	f107 072c 	add.w	r7, r7, #44	; 0x2c
40104690:	46bd      	mov	sp, r7
40104692:	f85d 7b04 	ldr.w	r7, [sp], #4
40104696:	4770      	bx	lr

40104698 <memcmp>:
memcmp():
/home/zhangxiang/Downloads/op-tee2/OP-TEE/bios_qemu_tz_arm/libutils/isoc/newlib/memcmp.c:84
40104698:	f84d 7d04 	str.w	r7, [sp, #-4]!
4010469c:	b089      	sub	sp, #36	; 0x24
4010469e:	af00      	add	r7, sp, #0
401046a0:	60f8      	str	r0, [r7, #12]
401046a2:	60b9      	str	r1, [r7, #8]
401046a4:	607a      	str	r2, [r7, #4]
/home/zhangxiang/Downloads/op-tee2/OP-TEE/bios_qemu_tz_arm/libutils/isoc/newlib/memcmp.c:97
401046a6:	68fb      	ldr	r3, [r7, #12]
401046a8:	61fb      	str	r3, [r7, #28]
/home/zhangxiang/Downloads/op-tee2/OP-TEE/bios_qemu_tz_arm/libutils/isoc/newlib/memcmp.c:98
401046aa:	68bb      	ldr	r3, [r7, #8]
401046ac:	61bb      	str	r3, [r7, #24]
/home/zhangxiang/Downloads/op-tee2/OP-TEE/bios_qemu_tz_arm/libutils/isoc/newlib/memcmp.c:105
401046ae:	687b      	ldr	r3, [r7, #4]
401046b0:	2b03      	cmp	r3, #3
401046b2:	d93e      	bls.n	40104732 <memcmp+0x9a>
/home/zhangxiang/Downloads/op-tee2/OP-TEE/bios_qemu_tz_arm/libutils/isoc/newlib/memcmp.c:105 (discriminator 1)
401046b4:	69fa      	ldr	r2, [r7, #28]
401046b6:	69bb      	ldr	r3, [r7, #24]
401046b8:	ea43 0302 	orr.w	r3, r3, r2
401046bc:	f003 0303 	and.w	r3, r3, #3
401046c0:	2b00      	cmp	r3, #0
401046c2:	d136      	bne.n	40104732 <memcmp+0x9a>
/home/zhangxiang/Downloads/op-tee2/OP-TEE/bios_qemu_tz_arm/libutils/isoc/newlib/memcmp.c:110
401046c4:	69fb      	ldr	r3, [r7, #28]
401046c6:	617b      	str	r3, [r7, #20]
/home/zhangxiang/Downloads/op-tee2/OP-TEE/bios_qemu_tz_arm/libutils/isoc/newlib/memcmp.c:111
401046c8:	69bb      	ldr	r3, [r7, #24]
401046ca:	613b      	str	r3, [r7, #16]
/home/zhangxiang/Downloads/op-tee2/OP-TEE/bios_qemu_tz_arm/libutils/isoc/newlib/memcmp.c:112
401046cc:	e011      	b.n	401046f2 <memcmp+0x5a>
/home/zhangxiang/Downloads/op-tee2/OP-TEE/bios_qemu_tz_arm/libutils/isoc/newlib/memcmp.c:113
401046ce:	697b      	ldr	r3, [r7, #20]
401046d0:	681a      	ldr	r2, [r3, #0]
401046d2:	693b      	ldr	r3, [r7, #16]
401046d4:	681b      	ldr	r3, [r3, #0]
401046d6:	429a      	cmp	r2, r3
401046d8:	d10f      	bne.n	401046fa <memcmp+0x62>
/home/zhangxiang/Downloads/op-tee2/OP-TEE/bios_qemu_tz_arm/libutils/isoc/newlib/memcmp.c:115
401046da:	697b      	ldr	r3, [r7, #20]
401046dc:	f103 0304 	add.w	r3, r3, #4
401046e0:	617b      	str	r3, [r7, #20]
/home/zhangxiang/Downloads/op-tee2/OP-TEE/bios_qemu_tz_arm/libutils/isoc/newlib/memcmp.c:116
401046e2:	693b      	ldr	r3, [r7, #16]
401046e4:	f103 0304 	add.w	r3, r3, #4
401046e8:	613b      	str	r3, [r7, #16]
/home/zhangxiang/Downloads/op-tee2/OP-TEE/bios_qemu_tz_arm/libutils/isoc/newlib/memcmp.c:117
401046ea:	687b      	ldr	r3, [r7, #4]
401046ec:	f1a3 0304 	sub.w	r3, r3, #4
401046f0:	607b      	str	r3, [r7, #4]
/home/zhangxiang/Downloads/op-tee2/OP-TEE/bios_qemu_tz_arm/libutils/isoc/newlib/memcmp.c:112
401046f2:	687b      	ldr	r3, [r7, #4]
401046f4:	2b03      	cmp	r3, #3
401046f6:	d8ea      	bhi.n	401046ce <memcmp+0x36>
401046f8:	e000      	b.n	401046fc <memcmp+0x64>
/home/zhangxiang/Downloads/op-tee2/OP-TEE/bios_qemu_tz_arm/libutils/isoc/newlib/memcmp.c:114
401046fa:	bf00      	nop
/home/zhangxiang/Downloads/op-tee2/OP-TEE/bios_qemu_tz_arm/libutils/isoc/newlib/memcmp.c:122
401046fc:	697b      	ldr	r3, [r7, #20]
401046fe:	61fb      	str	r3, [r7, #28]
/home/zhangxiang/Downloads/op-tee2/OP-TEE/bios_qemu_tz_arm/libutils/isoc/newlib/memcmp.c:123
40104700:	693b      	ldr	r3, [r7, #16]
40104702:	61bb      	str	r3, [r7, #24]
/home/zhangxiang/Downloads/op-tee2/OP-TEE/bios_qemu_tz_arm/libutils/isoc/newlib/memcmp.c:126
40104704:	e015      	b.n	40104732 <memcmp+0x9a>
/home/zhangxiang/Downloads/op-tee2/OP-TEE/bios_qemu_tz_arm/libutils/isoc/newlib/memcmp.c:127
40104706:	69fb      	ldr	r3, [r7, #28]
40104708:	781a      	ldrb	r2, [r3, #0]
4010470a:	69bb      	ldr	r3, [r7, #24]
4010470c:	781b      	ldrb	r3, [r3, #0]
4010470e:	429a      	cmp	r2, r3
40104710:	d007      	beq.n	40104722 <memcmp+0x8a>
/home/zhangxiang/Downloads/op-tee2/OP-TEE/bios_qemu_tz_arm/libutils/isoc/newlib/memcmp.c:128
40104712:	69fb      	ldr	r3, [r7, #28]
40104714:	781b      	ldrb	r3, [r3, #0]
40104716:	461a      	mov	r2, r3
40104718:	69bb      	ldr	r3, [r7, #24]
4010471a:	781b      	ldrb	r3, [r3, #0]
4010471c:	eba2 0303 	sub.w	r3, r2, r3
40104720:	e00f      	b.n	40104742 <memcmp+0xaa>
/home/zhangxiang/Downloads/op-tee2/OP-TEE/bios_qemu_tz_arm/libutils/isoc/newlib/memcmp.c:129
40104722:	69fb      	ldr	r3, [r7, #28]
40104724:	f103 0301 	add.w	r3, r3, #1
40104728:	61fb      	str	r3, [r7, #28]
/home/zhangxiang/Downloads/op-tee2/OP-TEE/bios_qemu_tz_arm/libutils/isoc/newlib/memcmp.c:130
4010472a:	69bb      	ldr	r3, [r7, #24]
4010472c:	f103 0301 	add.w	r3, r3, #1
40104730:	61bb      	str	r3, [r7, #24]
/home/zhangxiang/Downloads/op-tee2/OP-TEE/bios_qemu_tz_arm/libutils/isoc/newlib/memcmp.c:126
40104732:	687b      	ldr	r3, [r7, #4]
40104734:	f103 32ff 	add.w	r2, r3, #4294967295	; 0xffffffff
40104738:	607a      	str	r2, [r7, #4]
4010473a:	2b00      	cmp	r3, #0
4010473c:	d1e3      	bne.n	40104706 <memcmp+0x6e>
/home/zhangxiang/Downloads/op-tee2/OP-TEE/bios_qemu_tz_arm/libutils/isoc/newlib/memcmp.c:133
4010473e:	f04f 0300 	mov.w	r3, #0
/home/zhangxiang/Downloads/op-tee2/OP-TEE/bios_qemu_tz_arm/libutils/isoc/newlib/memcmp.c:135
40104742:	4618      	mov	r0, r3
40104744:	f107 0724 	add.w	r7, r7, #36	; 0x24
40104748:	46bd      	mov	sp, r7
4010474a:	f85d 7b04 	ldr.w	r7, [sp], #4
4010474e:	4770      	bx	lr

40104750 <memcpy>:
memcpy():
/home/zhangxiang/Downloads/op-tee2/OP-TEE/bios_qemu_tz_arm/libutils/isoc/newlib/memcpy.c:86
40104750:	f84d 7d04 	str.w	r7, [sp, #-4]!
40104754:	b089      	sub	sp, #36	; 0x24
40104756:	af00      	add	r7, sp, #0
40104758:	60f8      	str	r0, [r7, #12]
4010475a:	60b9      	str	r1, [r7, #8]
4010475c:	607a      	str	r2, [r7, #4]
/home/zhangxiang/Downloads/op-tee2/OP-TEE/bios_qemu_tz_arm/libutils/isoc/newlib/memcpy.c:98
4010475e:	68fb      	ldr	r3, [r7, #12]
40104760:	61fb      	str	r3, [r7, #28]
/home/zhangxiang/Downloads/op-tee2/OP-TEE/bios_qemu_tz_arm/libutils/isoc/newlib/memcpy.c:99
40104762:	68bb      	ldr	r3, [r7, #8]
40104764:	61bb      	str	r3, [r7, #24]
/home/zhangxiang/Downloads/op-tee2/OP-TEE/bios_qemu_tz_arm/libutils/isoc/newlib/memcpy.c:105
40104766:	687b      	ldr	r3, [r7, #4]
40104768:	2b0f      	cmp	r3, #15
4010476a:	d95c      	bls.n	40104826 <memcpy+0xd6>
/home/zhangxiang/Downloads/op-tee2/OP-TEE/bios_qemu_tz_arm/libutils/isoc/newlib/memcpy.c:105 (discriminator 1)
4010476c:	69ba      	ldr	r2, [r7, #24]
4010476e:	69fb      	ldr	r3, [r7, #28]
40104770:	ea43 0302 	orr.w	r3, r3, r2
40104774:	f003 0303 	and.w	r3, r3, #3
40104778:	2b00      	cmp	r3, #0
4010477a:	d154      	bne.n	40104826 <memcpy+0xd6>
/home/zhangxiang/Downloads/op-tee2/OP-TEE/bios_qemu_tz_arm/libutils/isoc/newlib/memcpy.c:106
4010477c:	69fb      	ldr	r3, [r7, #28]
4010477e:	617b      	str	r3, [r7, #20]
/home/zhangxiang/Downloads/op-tee2/OP-TEE/bios_qemu_tz_arm/libutils/isoc/newlib/memcpy.c:107
40104780:	69bb      	ldr	r3, [r7, #24]
40104782:	613b      	str	r3, [r7, #16]
/home/zhangxiang/Downloads/op-tee2/OP-TEE/bios_qemu_tz_arm/libutils/isoc/newlib/memcpy.c:110
40104784:	e02b      	b.n	401047de <memcpy+0x8e>
/home/zhangxiang/Downloads/op-tee2/OP-TEE/bios_qemu_tz_arm/libutils/isoc/newlib/memcpy.c:111
40104786:	697b      	ldr	r3, [r7, #20]
40104788:	f103 0204 	add.w	r2, r3, #4
4010478c:	617a      	str	r2, [r7, #20]
4010478e:	693a      	ldr	r2, [r7, #16]
40104790:	f102 0104 	add.w	r1, r2, #4
40104794:	6139      	str	r1, [r7, #16]
40104796:	6812      	ldr	r2, [r2, #0]
40104798:	601a      	str	r2, [r3, #0]
/home/zhangxiang/Downloads/op-tee2/OP-TEE/bios_qemu_tz_arm/libutils/isoc/newlib/memcpy.c:112
4010479a:	697b      	ldr	r3, [r7, #20]
4010479c:	f103 0204 	add.w	r2, r3, #4
401047a0:	617a      	str	r2, [r7, #20]
401047a2:	693a      	ldr	r2, [r7, #16]
401047a4:	f102 0104 	add.w	r1, r2, #4
401047a8:	6139      	str	r1, [r7, #16]
401047aa:	6812      	ldr	r2, [r2, #0]
401047ac:	601a      	str	r2, [r3, #0]
/home/zhangxiang/Downloads/op-tee2/OP-TEE/bios_qemu_tz_arm/libutils/isoc/newlib/memcpy.c:113
401047ae:	697b      	ldr	r3, [r7, #20]
401047b0:	f103 0204 	add.w	r2, r3, #4
401047b4:	617a      	str	r2, [r7, #20]
401047b6:	693a      	ldr	r2, [r7, #16]
401047b8:	f102 0104 	add.w	r1, r2, #4
401047bc:	6139      	str	r1, [r7, #16]
401047be:	6812      	ldr	r2, [r2, #0]
401047c0:	601a      	str	r2, [r3, #0]
/home/zhangxiang/Downloads/op-tee2/OP-TEE/bios_qemu_tz_arm/libutils/isoc/newlib/memcpy.c:114
401047c2:	697b      	ldr	r3, [r7, #20]
401047c4:	f103 0204 	add.w	r2, r3, #4
401047c8:	617a      	str	r2, [r7, #20]
401047ca:	693a      	ldr	r2, [r7, #16]
401047cc:	f102 0104 	add.w	r1, r2, #4
401047d0:	6139      	str	r1, [r7, #16]
401047d2:	6812      	ldr	r2, [r2, #0]
401047d4:	601a      	str	r2, [r3, #0]
/home/zhangxiang/Downloads/op-tee2/OP-TEE/bios_qemu_tz_arm/libutils/isoc/newlib/memcpy.c:115
401047d6:	687b      	ldr	r3, [r7, #4]
401047d8:	f1a3 0310 	sub.w	r3, r3, #16
401047dc:	607b      	str	r3, [r7, #4]
/home/zhangxiang/Downloads/op-tee2/OP-TEE/bios_qemu_tz_arm/libutils/isoc/newlib/memcpy.c:110
401047de:	687b      	ldr	r3, [r7, #4]
401047e0:	2b0f      	cmp	r3, #15
401047e2:	d8d0      	bhi.n	40104786 <memcpy+0x36>
/home/zhangxiang/Downloads/op-tee2/OP-TEE/bios_qemu_tz_arm/libutils/isoc/newlib/memcpy.c:119
401047e4:	e00d      	b.n	40104802 <memcpy+0xb2>
/home/zhangxiang/Downloads/op-tee2/OP-TEE/bios_qemu_tz_arm/libutils/isoc/newlib/memcpy.c:120
401047e6:	697b      	ldr	r3, [r7, #20]
401047e8:	f103 0204 	add.w	r2, r3, #4
401047ec:	617a      	str	r2, [r7, #20]
401047ee:	693a      	ldr	r2, [r7, #16]
401047f0:	f102 0104 	add.w	r1, r2, #4
401047f4:	6139      	str	r1, [r7, #16]
401047f6:	6812      	ldr	r2, [r2, #0]
401047f8:	601a      	str	r2, [r3, #0]
/home/zhangxiang/Downloads/op-tee2/OP-TEE/bios_qemu_tz_arm/libutils/isoc/newlib/memcpy.c:121
401047fa:	687b      	ldr	r3, [r7, #4]
401047fc:	f1a3 0304 	sub.w	r3, r3, #4
40104800:	607b      	str	r3, [r7, #4]
/home/zhangxiang/Downloads/op-tee2/OP-TEE/bios_qemu_tz_arm/libutils/isoc/newlib/memcpy.c:119
40104802:	687b      	ldr	r3, [r7, #4]
40104804:	2b03      	cmp	r3, #3
40104806:	d8ee      	bhi.n	401047e6 <memcpy+0x96>
/home/zhangxiang/Downloads/op-tee2/OP-TEE/bios_qemu_tz_arm/libutils/isoc/newlib/memcpy.c:125
40104808:	697b      	ldr	r3, [r7, #20]
4010480a:	61fb      	str	r3, [r7, #28]
/home/zhangxiang/Downloads/op-tee2/OP-TEE/bios_qemu_tz_arm/libutils/isoc/newlib/memcpy.c:126
4010480c:	693b      	ldr	r3, [r7, #16]
4010480e:	61bb      	str	r3, [r7, #24]
/home/zhangxiang/Downloads/op-tee2/OP-TEE/bios_qemu_tz_arm/libutils/isoc/newlib/memcpy.c:129
40104810:	e009      	b.n	40104826 <memcpy+0xd6>
/home/zhangxiang/Downloads/op-tee2/OP-TEE/bios_qemu_tz_arm/libutils/isoc/newlib/memcpy.c:130
40104812:	69fb      	ldr	r3, [r7, #28]
40104814:	f103 0201 	add.w	r2, r3, #1
40104818:	61fa      	str	r2, [r7, #28]
4010481a:	69ba      	ldr	r2, [r7, #24]
4010481c:	f102 0101 	add.w	r1, r2, #1
40104820:	61b9      	str	r1, [r7, #24]
40104822:	7812      	ldrb	r2, [r2, #0]
40104824:	701a      	strb	r2, [r3, #0]
/home/zhangxiang/Downloads/op-tee2/OP-TEE/bios_qemu_tz_arm/libutils/isoc/newlib/memcpy.c:129
40104826:	687b      	ldr	r3, [r7, #4]
40104828:	f103 32ff 	add.w	r2, r3, #4294967295	; 0xffffffff
4010482c:	607a      	str	r2, [r7, #4]
4010482e:	2b00      	cmp	r3, #0
40104830:	d1ef      	bne.n	40104812 <memcpy+0xc2>
/home/zhangxiang/Downloads/op-tee2/OP-TEE/bios_qemu_tz_arm/libutils/isoc/newlib/memcpy.c:132
40104832:	68fb      	ldr	r3, [r7, #12]
/home/zhangxiang/Downloads/op-tee2/OP-TEE/bios_qemu_tz_arm/libutils/isoc/newlib/memcpy.c:134
40104834:	4618      	mov	r0, r3
40104836:	f107 0724 	add.w	r7, r7, #36	; 0x24
4010483a:	46bd      	mov	sp, r7
4010483c:	f85d 7b04 	ldr.w	r7, [sp], #4
40104840:	4770      	bx	lr

40104842 <memmove>:
memmove():
/home/zhangxiang/Downloads/op-tee2/OP-TEE/bios_qemu_tz_arm/libutils/isoc/newlib/memmove.c:90
40104842:	f84d 7d04 	str.w	r7, [sp, #-4]!
40104846:	b089      	sub	sp, #36	; 0x24
40104848:	af00      	add	r7, sp, #0
4010484a:	60f8      	str	r0, [r7, #12]
4010484c:	60b9      	str	r1, [r7, #8]
4010484e:	607a      	str	r2, [r7, #4]
/home/zhangxiang/Downloads/op-tee2/OP-TEE/bios_qemu_tz_arm/libutils/isoc/newlib/memmove.c:108
40104850:	68fb      	ldr	r3, [r7, #12]
40104852:	61fb      	str	r3, [r7, #28]
/home/zhangxiang/Downloads/op-tee2/OP-TEE/bios_qemu_tz_arm/libutils/isoc/newlib/memmove.c:109
40104854:	68bb      	ldr	r3, [r7, #8]
40104856:	61bb      	str	r3, [r7, #24]
/home/zhangxiang/Downloads/op-tee2/OP-TEE/bios_qemu_tz_arm/libutils/isoc/newlib/memmove.c:113
40104858:	69ba      	ldr	r2, [r7, #24]
4010485a:	69fb      	ldr	r3, [r7, #28]
4010485c:	429a      	cmp	r2, r3
4010485e:	d221      	bcs.n	401048a4 <memmove+0x62>
/home/zhangxiang/Downloads/op-tee2/OP-TEE/bios_qemu_tz_arm/libutils/isoc/newlib/memmove.c:113 (discriminator 1)
40104860:	69ba      	ldr	r2, [r7, #24]
40104862:	687b      	ldr	r3, [r7, #4]
40104864:	441a      	add	r2, r3
40104866:	69fb      	ldr	r3, [r7, #28]
40104868:	429a      	cmp	r2, r3
4010486a:	d91b      	bls.n	401048a4 <memmove+0x62>
/home/zhangxiang/Downloads/op-tee2/OP-TEE/bios_qemu_tz_arm/libutils/isoc/newlib/memmove.c:115
4010486c:	69ba      	ldr	r2, [r7, #24]
4010486e:	687b      	ldr	r3, [r7, #4]
40104870:	4413      	add	r3, r2
40104872:	61bb      	str	r3, [r7, #24]
/home/zhangxiang/Downloads/op-tee2/OP-TEE/bios_qemu_tz_arm/libutils/isoc/newlib/memmove.c:116
40104874:	69fa      	ldr	r2, [r7, #28]
40104876:	687b      	ldr	r3, [r7, #4]
40104878:	4413      	add	r3, r2
4010487a:	61fb      	str	r3, [r7, #28]
/home/zhangxiang/Downloads/op-tee2/OP-TEE/bios_qemu_tz_arm/libutils/isoc/newlib/memmove.c:117
4010487c:	e00b      	b.n	40104896 <memmove+0x54>
/home/zhangxiang/Downloads/op-tee2/OP-TEE/bios_qemu_tz_arm/libutils/isoc/newlib/memmove.c:118
4010487e:	69fb      	ldr	r3, [r7, #28]
40104880:	f103 33ff 	add.w	r3, r3, #4294967295	; 0xffffffff
40104884:	61fb      	str	r3, [r7, #28]
40104886:	69bb      	ldr	r3, [r7, #24]
40104888:	f103 33ff 	add.w	r3, r3, #4294967295	; 0xffffffff
4010488c:	61bb      	str	r3, [r7, #24]
4010488e:	69bb      	ldr	r3, [r7, #24]
40104890:	781a      	ldrb	r2, [r3, #0]
40104892:	69fb      	ldr	r3, [r7, #28]
40104894:	701a      	strb	r2, [r3, #0]
/home/zhangxiang/Downloads/op-tee2/OP-TEE/bios_qemu_tz_arm/libutils/isoc/newlib/memmove.c:117
40104896:	687b      	ldr	r3, [r7, #4]
40104898:	f103 32ff 	add.w	r2, r3, #4294967295	; 0xffffffff
4010489c:	607a      	str	r2, [r7, #4]
4010489e:	2b00      	cmp	r3, #0
401048a0:	d1ed      	bne.n	4010487e <memmove+0x3c>
/home/zhangxiang/Downloads/op-tee2/OP-TEE/bios_qemu_tz_arm/libutils/isoc/newlib/memmove.c:113
401048a2:	e065      	b.n	40104970 <memmove+0x12e>
/home/zhangxiang/Downloads/op-tee2/OP-TEE/bios_qemu_tz_arm/libutils/isoc/newlib/memmove.c:126
401048a4:	687b      	ldr	r3, [r7, #4]
401048a6:	2b0f      	cmp	r3, #15
401048a8:	d95c      	bls.n	40104964 <memmove+0x122>
/home/zhangxiang/Downloads/op-tee2/OP-TEE/bios_qemu_tz_arm/libutils/isoc/newlib/memmove.c:126 (discriminator 1)
401048aa:	69ba      	ldr	r2, [r7, #24]
401048ac:	69fb      	ldr	r3, [r7, #28]
401048ae:	ea43 0302 	orr.w	r3, r3, r2
401048b2:	f003 0303 	and.w	r3, r3, #3
401048b6:	2b00      	cmp	r3, #0
401048b8:	d154      	bne.n	40104964 <memmove+0x122>
/home/zhangxiang/Downloads/op-tee2/OP-TEE/bios_qemu_tz_arm/libutils/isoc/newlib/memmove.c:127
401048ba:	69fb      	ldr	r3, [r7, #28]
401048bc:	617b      	str	r3, [r7, #20]
/home/zhangxiang/Downloads/op-tee2/OP-TEE/bios_qemu_tz_arm/libutils/isoc/newlib/memmove.c:128
401048be:	69bb      	ldr	r3, [r7, #24]
401048c0:	613b      	str	r3, [r7, #16]
/home/zhangxiang/Downloads/op-tee2/OP-TEE/bios_qemu_tz_arm/libutils/isoc/newlib/memmove.c:131
401048c2:	e02b      	b.n	4010491c <memmove+0xda>
/home/zhangxiang/Downloads/op-tee2/OP-TEE/bios_qemu_tz_arm/libutils/isoc/newlib/memmove.c:132
401048c4:	697b      	ldr	r3, [r7, #20]
401048c6:	f103 0204 	add.w	r2, r3, #4
401048ca:	617a      	str	r2, [r7, #20]
401048cc:	693a      	ldr	r2, [r7, #16]
401048ce:	f102 0104 	add.w	r1, r2, #4
401048d2:	6139      	str	r1, [r7, #16]
401048d4:	6812      	ldr	r2, [r2, #0]
401048d6:	601a      	str	r2, [r3, #0]
/home/zhangxiang/Downloads/op-tee2/OP-TEE/bios_qemu_tz_arm/libutils/isoc/newlib/memmove.c:133
401048d8:	697b      	ldr	r3, [r7, #20]
401048da:	f103 0204 	add.w	r2, r3, #4
401048de:	617a      	str	r2, [r7, #20]
401048e0:	693a      	ldr	r2, [r7, #16]
401048e2:	f102 0104 	add.w	r1, r2, #4
401048e6:	6139      	str	r1, [r7, #16]
401048e8:	6812      	ldr	r2, [r2, #0]
401048ea:	601a      	str	r2, [r3, #0]
/home/zhangxiang/Downloads/op-tee2/OP-TEE/bios_qemu_tz_arm/libutils/isoc/newlib/memmove.c:134
401048ec:	697b      	ldr	r3, [r7, #20]
401048ee:	f103 0204 	add.w	r2, r3, #4
401048f2:	617a      	str	r2, [r7, #20]
401048f4:	693a      	ldr	r2, [r7, #16]
401048f6:	f102 0104 	add.w	r1, r2, #4
401048fa:	6139      	str	r1, [r7, #16]
401048fc:	6812      	ldr	r2, [r2, #0]
401048fe:	601a      	str	r2, [r3, #0]
/home/zhangxiang/Downloads/op-tee2/OP-TEE/bios_qemu_tz_arm/libutils/isoc/newlib/memmove.c:135
40104900:	697b      	ldr	r3, [r7, #20]
40104902:	f103 0204 	add.w	r2, r3, #4
40104906:	617a      	str	r2, [r7, #20]
40104908:	693a      	ldr	r2, [r7, #16]
4010490a:	f102 0104 	add.w	r1, r2, #4
4010490e:	6139      	str	r1, [r7, #16]
40104910:	6812      	ldr	r2, [r2, #0]
40104912:	601a      	str	r2, [r3, #0]
/home/zhangxiang/Downloads/op-tee2/OP-TEE/bios_qemu_tz_arm/libutils/isoc/newlib/memmove.c:136
40104914:	687b      	ldr	r3, [r7, #4]
40104916:	f1a3 0310 	sub.w	r3, r3, #16
4010491a:	607b      	str	r3, [r7, #4]
/home/zhangxiang/Downloads/op-tee2/OP-TEE/bios_qemu_tz_arm/libutils/isoc/newlib/memmove.c:131
4010491c:	687b      	ldr	r3, [r7, #4]
4010491e:	2b0f      	cmp	r3, #15
40104920:	d8d0      	bhi.n	401048c4 <memmove+0x82>
/home/zhangxiang/Downloads/op-tee2/OP-TEE/bios_qemu_tz_arm/libutils/isoc/newlib/memmove.c:140
40104922:	e00d      	b.n	40104940 <memmove+0xfe>
/home/zhangxiang/Downloads/op-tee2/OP-TEE/bios_qemu_tz_arm/libutils/isoc/newlib/memmove.c:141
40104924:	697b      	ldr	r3, [r7, #20]
40104926:	f103 0204 	add.w	r2, r3, #4
4010492a:	617a      	str	r2, [r7, #20]
4010492c:	693a      	ldr	r2, [r7, #16]
4010492e:	f102 0104 	add.w	r1, r2, #4
40104932:	6139      	str	r1, [r7, #16]
40104934:	6812      	ldr	r2, [r2, #0]
40104936:	601a      	str	r2, [r3, #0]
/home/zhangxiang/Downloads/op-tee2/OP-TEE/bios_qemu_tz_arm/libutils/isoc/newlib/memmove.c:142
40104938:	687b      	ldr	r3, [r7, #4]
4010493a:	f1a3 0304 	sub.w	r3, r3, #4
4010493e:	607b      	str	r3, [r7, #4]
/home/zhangxiang/Downloads/op-tee2/OP-TEE/bios_qemu_tz_arm/libutils/isoc/newlib/memmove.c:140
40104940:	687b      	ldr	r3, [r7, #4]
40104942:	2b03      	cmp	r3, #3
40104944:	d8ee      	bhi.n	40104924 <memmove+0xe2>
/home/zhangxiang/Downloads/op-tee2/OP-TEE/bios_qemu_tz_arm/libutils/isoc/newlib/memmove.c:146
40104946:	697b      	ldr	r3, [r7, #20]
40104948:	61fb      	str	r3, [r7, #28]
/home/zhangxiang/Downloads/op-tee2/OP-TEE/bios_qemu_tz_arm/libutils/isoc/newlib/memmove.c:147
4010494a:	693b      	ldr	r3, [r7, #16]
4010494c:	61bb      	str	r3, [r7, #24]
/home/zhangxiang/Downloads/op-tee2/OP-TEE/bios_qemu_tz_arm/libutils/isoc/newlib/memmove.c:150
4010494e:	e009      	b.n	40104964 <memmove+0x122>
/home/zhangxiang/Downloads/op-tee2/OP-TEE/bios_qemu_tz_arm/libutils/isoc/newlib/memmove.c:151
40104950:	69fb      	ldr	r3, [r7, #28]
40104952:	f103 0201 	add.w	r2, r3, #1
40104956:	61fa      	str	r2, [r7, #28]
40104958:	69ba      	ldr	r2, [r7, #24]
4010495a:	f102 0101 	add.w	r1, r2, #1
4010495e:	61b9      	str	r1, [r7, #24]
40104960:	7812      	ldrb	r2, [r2, #0]
40104962:	701a      	strb	r2, [r3, #0]
/home/zhangxiang/Downloads/op-tee2/OP-TEE/bios_qemu_tz_arm/libutils/isoc/newlib/memmove.c:150
40104964:	687b      	ldr	r3, [r7, #4]
40104966:	f103 32ff 	add.w	r2, r3, #4294967295	; 0xffffffff
4010496a:	607a      	str	r2, [r7, #4]
4010496c:	2b00      	cmp	r3, #0
4010496e:	d1ef      	bne.n	40104950 <memmove+0x10e>
/home/zhangxiang/Downloads/op-tee2/OP-TEE/bios_qemu_tz_arm/libutils/isoc/newlib/memmove.c:154
40104970:	68fb      	ldr	r3, [r7, #12]
/home/zhangxiang/Downloads/op-tee2/OP-TEE/bios_qemu_tz_arm/libutils/isoc/newlib/memmove.c:156
40104972:	4618      	mov	r0, r3
40104974:	f107 0724 	add.w	r7, r7, #36	; 0x24
40104978:	46bd      	mov	sp, r7
4010497a:	f85d 7b04 	ldr.w	r7, [sp], #4
4010497e:	4770      	bx	lr

40104980 <memset>:
memset():
/home/zhangxiang/Downloads/op-tee2/OP-TEE/bios_qemu_tz_arm/libutils/isoc/newlib/memset.c:75
40104980:	f84d 7d04 	str.w	r7, [sp, #-4]!
40104984:	b08b      	sub	sp, #44	; 0x2c
40104986:	af00      	add	r7, sp, #0
40104988:	60f8      	str	r0, [r7, #12]
4010498a:	60b9      	str	r1, [r7, #8]
4010498c:	607a      	str	r2, [r7, #4]
/home/zhangxiang/Downloads/op-tee2/OP-TEE/bios_qemu_tz_arm/libutils/isoc/newlib/memset.c:76
4010498e:	68fb      	ldr	r3, [r7, #12]
40104990:	627b      	str	r3, [r7, #36]	; 0x24
/home/zhangxiang/Downloads/op-tee2/OP-TEE/bios_qemu_tz_arm/libutils/isoc/newlib/memset.c:82
40104992:	68bb      	ldr	r3, [r7, #8]
40104994:	b2db      	uxtb	r3, r3
40104996:	617b      	str	r3, [r7, #20]
/home/zhangxiang/Downloads/op-tee2/OP-TEE/bios_qemu_tz_arm/libutils/isoc/newlib/memset.c:85
40104998:	e00f      	b.n	401049ba <memset+0x3a>
/home/zhangxiang/Downloads/op-tee2/OP-TEE/bios_qemu_tz_arm/libutils/isoc/newlib/memset.c:86
4010499a:	687b      	ldr	r3, [r7, #4]
4010499c:	f103 32ff 	add.w	r2, r3, #4294967295	; 0xffffffff
401049a0:	607a      	str	r2, [r7, #4]
401049a2:	2b00      	cmp	r3, #0
401049a4:	d007      	beq.n	401049b6 <memset+0x36>
/home/zhangxiang/Downloads/op-tee2/OP-TEE/bios_qemu_tz_arm/libutils/isoc/newlib/memset.c:87
401049a6:	6a7b      	ldr	r3, [r7, #36]	; 0x24
401049a8:	f103 0201 	add.w	r2, r3, #1
401049ac:	627a      	str	r2, [r7, #36]	; 0x24
401049ae:	68ba      	ldr	r2, [r7, #8]
401049b0:	b2d2      	uxtb	r2, r2
401049b2:	701a      	strb	r2, [r3, #0]
401049b4:	e001      	b.n	401049ba <memset+0x3a>
/home/zhangxiang/Downloads/op-tee2/OP-TEE/bios_qemu_tz_arm/libutils/isoc/newlib/memset.c:89
401049b6:	68fb      	ldr	r3, [r7, #12]
401049b8:	e069      	b.n	40104a8e <memset+0x10e>
/home/zhangxiang/Downloads/op-tee2/OP-TEE/bios_qemu_tz_arm/libutils/isoc/newlib/memset.c:85
401049ba:	6a7b      	ldr	r3, [r7, #36]	; 0x24
401049bc:	f003 0303 	and.w	r3, r3, #3
401049c0:	2b00      	cmp	r3, #0
401049c2:	d1ea      	bne.n	4010499a <memset+0x1a>
/home/zhangxiang/Downloads/op-tee2/OP-TEE/bios_qemu_tz_arm/libutils/isoc/newlib/memset.c:92
401049c4:	687b      	ldr	r3, [r7, #4]
401049c6:	2b03      	cmp	r3, #3
401049c8:	d95a      	bls.n	40104a80 <memset+0x100>
/home/zhangxiang/Downloads/op-tee2/OP-TEE/bios_qemu_tz_arm/libutils/isoc/newlib/memset.c:97
401049ca:	6a7b      	ldr	r3, [r7, #36]	; 0x24
401049cc:	61bb      	str	r3, [r7, #24]
/home/zhangxiang/Downloads/op-tee2/OP-TEE/bios_qemu_tz_arm/libutils/isoc/newlib/memset.c:101
401049ce:	697b      	ldr	r3, [r7, #20]
401049d0:	ea4f 2203 	mov.w	r2, r3, lsl #8
401049d4:	697b      	ldr	r3, [r7, #20]
401049d6:	ea43 0302 	orr.w	r3, r3, r2
401049da:	61fb      	str	r3, [r7, #28]
/home/zhangxiang/Downloads/op-tee2/OP-TEE/bios_qemu_tz_arm/libutils/isoc/newlib/memset.c:102
401049dc:	69fb      	ldr	r3, [r7, #28]
401049de:	ea4f 4303 	mov.w	r3, r3, lsl #16
401049e2:	69fa      	ldr	r2, [r7, #28]
401049e4:	ea43 0302 	orr.w	r3, r3, r2
401049e8:	61fb      	str	r3, [r7, #28]
/home/zhangxiang/Downloads/op-tee2/OP-TEE/bios_qemu_tz_arm/libutils/isoc/newlib/memset.c:103
401049ea:	f04f 0320 	mov.w	r3, #32
401049ee:	623b      	str	r3, [r7, #32]
401049f0:	e00b      	b.n	40104a0a <memset+0x8a>
/home/zhangxiang/Downloads/op-tee2/OP-TEE/bios_qemu_tz_arm/libutils/isoc/newlib/memset.c:104 (discriminator 3)
401049f2:	69fa      	ldr	r2, [r7, #28]
401049f4:	6a3b      	ldr	r3, [r7, #32]
401049f6:	fa02 f303 	lsl.w	r3, r2, r3
401049fa:	69fa      	ldr	r2, [r7, #28]
401049fc:	ea43 0302 	orr.w	r3, r3, r2
40104a00:	61fb      	str	r3, [r7, #28]
/home/zhangxiang/Downloads/op-tee2/OP-TEE/bios_qemu_tz_arm/libutils/isoc/newlib/memset.c:103 (discriminator 3)
40104a02:	6a3b      	ldr	r3, [r7, #32]
40104a04:	ea4f 0343 	mov.w	r3, r3, lsl #1
40104a08:	623b      	str	r3, [r7, #32]
/home/zhangxiang/Downloads/op-tee2/OP-TEE/bios_qemu_tz_arm/libutils/isoc/newlib/memset.c:103 (discriminator 1)
40104a0a:	6a3b      	ldr	r3, [r7, #32]
40104a0c:	2b1f      	cmp	r3, #31
40104a0e:	d9f0      	bls.n	401049f2 <memset+0x72>
/home/zhangxiang/Downloads/op-tee2/OP-TEE/bios_qemu_tz_arm/libutils/isoc/newlib/memset.c:107
40104a10:	e01b      	b.n	40104a4a <memset+0xca>
/home/zhangxiang/Downloads/op-tee2/OP-TEE/bios_qemu_tz_arm/libutils/isoc/newlib/memset.c:108
40104a12:	69bb      	ldr	r3, [r7, #24]
40104a14:	f103 0204 	add.w	r2, r3, #4
40104a18:	61ba      	str	r2, [r7, #24]
40104a1a:	69fa      	ldr	r2, [r7, #28]
40104a1c:	601a      	str	r2, [r3, #0]
/home/zhangxiang/Downloads/op-tee2/OP-TEE/bios_qemu_tz_arm/libutils/isoc/newlib/memset.c:109
40104a1e:	69bb      	ldr	r3, [r7, #24]
40104a20:	f103 0204 	add.w	r2, r3, #4
40104a24:	61ba      	str	r2, [r7, #24]
40104a26:	69fa      	ldr	r2, [r7, #28]
40104a28:	601a      	str	r2, [r3, #0]
/home/zhangxiang/Downloads/op-tee2/OP-TEE/bios_qemu_tz_arm/libutils/isoc/newlib/memset.c:110
40104a2a:	69bb      	ldr	r3, [r7, #24]
40104a2c:	f103 0204 	add.w	r2, r3, #4
40104a30:	61ba      	str	r2, [r7, #24]
40104a32:	69fa      	ldr	r2, [r7, #28]
40104a34:	601a      	str	r2, [r3, #0]
/home/zhangxiang/Downloads/op-tee2/OP-TEE/bios_qemu_tz_arm/libutils/isoc/newlib/memset.c:111
40104a36:	69bb      	ldr	r3, [r7, #24]
40104a38:	f103 0204 	add.w	r2, r3, #4
40104a3c:	61ba      	str	r2, [r7, #24]
40104a3e:	69fa      	ldr	r2, [r7, #28]
40104a40:	601a      	str	r2, [r3, #0]
/home/zhangxiang/Downloads/op-tee2/OP-TEE/bios_qemu_tz_arm/libutils/isoc/newlib/memset.c:112
40104a42:	687b      	ldr	r3, [r7, #4]
40104a44:	f1a3 0310 	sub.w	r3, r3, #16
40104a48:	607b      	str	r3, [r7, #4]
/home/zhangxiang/Downloads/op-tee2/OP-TEE/bios_qemu_tz_arm/libutils/isoc/newlib/memset.c:107
40104a4a:	687b      	ldr	r3, [r7, #4]
40104a4c:	2b0f      	cmp	r3, #15
40104a4e:	d8e0      	bhi.n	40104a12 <memset+0x92>
/home/zhangxiang/Downloads/op-tee2/OP-TEE/bios_qemu_tz_arm/libutils/isoc/newlib/memset.c:115
40104a50:	e009      	b.n	40104a66 <memset+0xe6>
/home/zhangxiang/Downloads/op-tee2/OP-TEE/bios_qemu_tz_arm/libutils/isoc/newlib/memset.c:116
40104a52:	69bb      	ldr	r3, [r7, #24]
40104a54:	f103 0204 	add.w	r2, r3, #4
40104a58:	61ba      	str	r2, [r7, #24]
40104a5a:	69fa      	ldr	r2, [r7, #28]
40104a5c:	601a      	str	r2, [r3, #0]
/home/zhangxiang/Downloads/op-tee2/OP-TEE/bios_qemu_tz_arm/libutils/isoc/newlib/memset.c:117
40104a5e:	687b      	ldr	r3, [r7, #4]
40104a60:	f1a3 0304 	sub.w	r3, r3, #4
40104a64:	607b      	str	r3, [r7, #4]
/home/zhangxiang/Downloads/op-tee2/OP-TEE/bios_qemu_tz_arm/libutils/isoc/newlib/memset.c:115
40104a66:	687b      	ldr	r3, [r7, #4]
40104a68:	2b03      	cmp	r3, #3
40104a6a:	d8f2      	bhi.n	40104a52 <memset+0xd2>
/home/zhangxiang/Downloads/op-tee2/OP-TEE/bios_qemu_tz_arm/libutils/isoc/newlib/memset.c:120
40104a6c:	69bb      	ldr	r3, [r7, #24]
40104a6e:	627b      	str	r3, [r7, #36]	; 0x24
/home/zhangxiang/Downloads/op-tee2/OP-TEE/bios_qemu_tz_arm/libutils/isoc/newlib/memset.c:124
40104a70:	e006      	b.n	40104a80 <memset+0x100>
/home/zhangxiang/Downloads/op-tee2/OP-TEE/bios_qemu_tz_arm/libutils/isoc/newlib/memset.c:125
40104a72:	6a7b      	ldr	r3, [r7, #36]	; 0x24
40104a74:	f103 0201 	add.w	r2, r3, #1
40104a78:	627a      	str	r2, [r7, #36]	; 0x24
40104a7a:	68ba      	ldr	r2, [r7, #8]
40104a7c:	b2d2      	uxtb	r2, r2
40104a7e:	701a      	strb	r2, [r3, #0]
/home/zhangxiang/Downloads/op-tee2/OP-TEE/bios_qemu_tz_arm/libutils/isoc/newlib/memset.c:124
40104a80:	687b      	ldr	r3, [r7, #4]
40104a82:	f103 32ff 	add.w	r2, r3, #4294967295	; 0xffffffff
40104a86:	607a      	str	r2, [r7, #4]
40104a88:	2b00      	cmp	r3, #0
40104a8a:	d1f2      	bne.n	40104a72 <memset+0xf2>
/home/zhangxiang/Downloads/op-tee2/OP-TEE/bios_qemu_tz_arm/libutils/isoc/newlib/memset.c:127
40104a8c:	68fb      	ldr	r3, [r7, #12]
/home/zhangxiang/Downloads/op-tee2/OP-TEE/bios_qemu_tz_arm/libutils/isoc/newlib/memset.c:128
40104a8e:	4618      	mov	r0, r3
40104a90:	f107 072c 	add.w	r7, r7, #44	; 0x2c
40104a94:	46bd      	mov	sp, r7
40104a96:	f85d 7b04 	ldr.w	r7, [sp], #4
40104a9a:	4770      	bx	lr

40104a9c <strlen>:
strlen():
/home/zhangxiang/Downloads/op-tee2/OP-TEE/bios_qemu_tz_arm/libutils/isoc/newlib/strlen.c:90
40104a9c:	f84d 7d04 	str.w	r7, [sp, #-4]!
40104aa0:	b085      	sub	sp, #20
40104aa2:	af00      	add	r7, sp, #0
40104aa4:	6078      	str	r0, [r7, #4]
/home/zhangxiang/Downloads/op-tee2/OP-TEE/bios_qemu_tz_arm/libutils/isoc/newlib/strlen.c:91
40104aa6:	687b      	ldr	r3, [r7, #4]
40104aa8:	60bb      	str	r3, [r7, #8]
/home/zhangxiang/Downloads/op-tee2/OP-TEE/bios_qemu_tz_arm/libutils/isoc/newlib/strlen.c:97
40104aaa:	e00c      	b.n	40104ac6 <strlen+0x2a>
/home/zhangxiang/Downloads/op-tee2/OP-TEE/bios_qemu_tz_arm/libutils/isoc/newlib/strlen.c:98
40104aac:	687b      	ldr	r3, [r7, #4]
40104aae:	781b      	ldrb	r3, [r3, #0]
40104ab0:	2b00      	cmp	r3, #0
40104ab2:	d104      	bne.n	40104abe <strlen+0x22>
/home/zhangxiang/Downloads/op-tee2/OP-TEE/bios_qemu_tz_arm/libutils/isoc/newlib/strlen.c:99
40104ab4:	687a      	ldr	r2, [r7, #4]
40104ab6:	68bb      	ldr	r3, [r7, #8]
40104ab8:	eba2 0303 	sub.w	r3, r2, r3
40104abc:	e02c      	b.n	40104b18 <strlen+0x7c>
/home/zhangxiang/Downloads/op-tee2/OP-TEE/bios_qemu_tz_arm/libutils/isoc/newlib/strlen.c:100
40104abe:	687b      	ldr	r3, [r7, #4]
40104ac0:	f103 0301 	add.w	r3, r3, #1
40104ac4:	607b      	str	r3, [r7, #4]
/home/zhangxiang/Downloads/op-tee2/OP-TEE/bios_qemu_tz_arm/libutils/isoc/newlib/strlen.c:97
40104ac6:	687b      	ldr	r3, [r7, #4]
40104ac8:	f003 0303 	and.w	r3, r3, #3
40104acc:	2b00      	cmp	r3, #0
40104ace:	d1ed      	bne.n	40104aac <strlen+0x10>
/home/zhangxiang/Downloads/op-tee2/OP-TEE/bios_qemu_tz_arm/libutils/isoc/newlib/strlen.c:105
40104ad0:	687b      	ldr	r3, [r7, #4]
40104ad2:	60fb      	str	r3, [r7, #12]
/home/zhangxiang/Downloads/op-tee2/OP-TEE/bios_qemu_tz_arm/libutils/isoc/newlib/strlen.c:106
40104ad4:	e003      	b.n	40104ade <strlen+0x42>
/home/zhangxiang/Downloads/op-tee2/OP-TEE/bios_qemu_tz_arm/libutils/isoc/newlib/strlen.c:107
40104ad6:	68fb      	ldr	r3, [r7, #12]
40104ad8:	f103 0304 	add.w	r3, r3, #4
40104adc:	60fb      	str	r3, [r7, #12]
/home/zhangxiang/Downloads/op-tee2/OP-TEE/bios_qemu_tz_arm/libutils/isoc/newlib/strlen.c:106
40104ade:	68fb      	ldr	r3, [r7, #12]
40104ae0:	681b      	ldr	r3, [r3, #0]
40104ae2:	f1a3 3201 	sub.w	r2, r3, #16843009	; 0x1010101
40104ae6:	68fb      	ldr	r3, [r7, #12]
40104ae8:	681b      	ldr	r3, [r3, #0]
40104aea:	ea6f 0303 	mvn.w	r3, r3
40104aee:	ea03 0302 	and.w	r3, r3, r2
40104af2:	f003 3380 	and.w	r3, r3, #2155905152	; 0x80808080
40104af6:	2b00      	cmp	r3, #0
40104af8:	d0ed      	beq.n	40104ad6 <strlen+0x3a>
/home/zhangxiang/Downloads/op-tee2/OP-TEE/bios_qemu_tz_arm/libutils/isoc/newlib/strlen.c:111
40104afa:	68fb      	ldr	r3, [r7, #12]
40104afc:	607b      	str	r3, [r7, #4]
/home/zhangxiang/Downloads/op-tee2/OP-TEE/bios_qemu_tz_arm/libutils/isoc/newlib/strlen.c:115
40104afe:	e003      	b.n	40104b08 <strlen+0x6c>
/home/zhangxiang/Downloads/op-tee2/OP-TEE/bios_qemu_tz_arm/libutils/isoc/newlib/strlen.c:116
40104b00:	687b      	ldr	r3, [r7, #4]
40104b02:	f103 0301 	add.w	r3, r3, #1
40104b06:	607b      	str	r3, [r7, #4]
/home/zhangxiang/Downloads/op-tee2/OP-TEE/bios_qemu_tz_arm/libutils/isoc/newlib/strlen.c:115
40104b08:	687b      	ldr	r3, [r7, #4]
40104b0a:	781b      	ldrb	r3, [r3, #0]
40104b0c:	2b00      	cmp	r3, #0
40104b0e:	d1f7      	bne.n	40104b00 <strlen+0x64>
/home/zhangxiang/Downloads/op-tee2/OP-TEE/bios_qemu_tz_arm/libutils/isoc/newlib/strlen.c:117
40104b10:	687a      	ldr	r2, [r7, #4]
40104b12:	68bb      	ldr	r3, [r7, #8]
40104b14:	eba2 0303 	sub.w	r3, r2, r3
/home/zhangxiang/Downloads/op-tee2/OP-TEE/bios_qemu_tz_arm/libutils/isoc/newlib/strlen.c:118
40104b18:	4618      	mov	r0, r3
40104b1a:	f107 0714 	add.w	r7, r7, #20
40104b1e:	46bd      	mov	sp, r7
40104b20:	f85d 7b04 	ldr.w	r7, [sp], #4
40104b24:	4770      	bx	lr

40104b26 <strchr>:
strchr():
/home/zhangxiang/Downloads/op-tee2/OP-TEE/bios_qemu_tz_arm/libutils/isoc/newlib/strchr.c:65
40104b26:	f84d 7d04 	str.w	r7, [sp, #-4]!
40104b2a:	b089      	sub	sp, #36	; 0x24
40104b2c:	af00      	add	r7, sp, #0
40104b2e:	6078      	str	r0, [r7, #4]
40104b30:	6039      	str	r1, [r7, #0]
/home/zhangxiang/Downloads/op-tee2/OP-TEE/bios_qemu_tz_arm/libutils/isoc/newlib/strchr.c:66
40104b32:	687b      	ldr	r3, [r7, #4]
40104b34:	61fb      	str	r3, [r7, #28]
/home/zhangxiang/Downloads/op-tee2/OP-TEE/bios_qemu_tz_arm/libutils/isoc/newlib/strchr.c:67
40104b36:	683b      	ldr	r3, [r7, #0]
40104b38:	73fb      	strb	r3, [r7, #15]
/home/zhangxiang/Downloads/op-tee2/OP-TEE/bios_qemu_tz_arm/libutils/isoc/newlib/strchr.c:74
40104b3a:	7bfb      	ldrb	r3, [r7, #15]
40104b3c:	2b00      	cmp	r3, #0
40104b3e:	d143      	bne.n	40104bc8 <strchr+0xa2>
/home/zhangxiang/Downloads/op-tee2/OP-TEE/bios_qemu_tz_arm/libutils/isoc/newlib/strchr.c:76
40104b40:	e009      	b.n	40104b56 <strchr+0x30>
/home/zhangxiang/Downloads/op-tee2/OP-TEE/bios_qemu_tz_arm/libutils/isoc/newlib/strchr.c:78
40104b42:	69fb      	ldr	r3, [r7, #28]
40104b44:	781b      	ldrb	r3, [r3, #0]
40104b46:	2b00      	cmp	r3, #0
40104b48:	d101      	bne.n	40104b4e <strchr+0x28>
/home/zhangxiang/Downloads/op-tee2/OP-TEE/bios_qemu_tz_arm/libutils/isoc/newlib/strchr.c:79
40104b4a:	69fb      	ldr	r3, [r7, #28]
40104b4c:	e098      	b.n	40104c80 <strchr+0x15a>
/home/zhangxiang/Downloads/op-tee2/OP-TEE/bios_qemu_tz_arm/libutils/isoc/newlib/strchr.c:80
40104b4e:	69fb      	ldr	r3, [r7, #28]
40104b50:	f103 0301 	add.w	r3, r3, #1
40104b54:	61fb      	str	r3, [r7, #28]
/home/zhangxiang/Downloads/op-tee2/OP-TEE/bios_qemu_tz_arm/libutils/isoc/newlib/strchr.c:76
40104b56:	69fb      	ldr	r3, [r7, #28]
40104b58:	f003 0303 	and.w	r3, r3, #3
40104b5c:	2b00      	cmp	r3, #0
40104b5e:	d1f0      	bne.n	40104b42 <strchr+0x1c>
/home/zhangxiang/Downloads/op-tee2/OP-TEE/bios_qemu_tz_arm/libutils/isoc/newlib/strchr.c:83
40104b60:	69fb      	ldr	r3, [r7, #28]
40104b62:	613b      	str	r3, [r7, #16]
/home/zhangxiang/Downloads/op-tee2/OP-TEE/bios_qemu_tz_arm/libutils/isoc/newlib/strchr.c:84
40104b64:	e003      	b.n	40104b6e <strchr+0x48>
/home/zhangxiang/Downloads/op-tee2/OP-TEE/bios_qemu_tz_arm/libutils/isoc/newlib/strchr.c:85
40104b66:	693b      	ldr	r3, [r7, #16]
40104b68:	f103 0304 	add.w	r3, r3, #4
40104b6c:	613b      	str	r3, [r7, #16]
/home/zhangxiang/Downloads/op-tee2/OP-TEE/bios_qemu_tz_arm/libutils/isoc/newlib/strchr.c:84
40104b6e:	693b      	ldr	r3, [r7, #16]
40104b70:	681b      	ldr	r3, [r3, #0]
40104b72:	f1a3 3201 	sub.w	r2, r3, #16843009	; 0x1010101
40104b76:	693b      	ldr	r3, [r7, #16]
40104b78:	681b      	ldr	r3, [r3, #0]
40104b7a:	ea6f 0303 	mvn.w	r3, r3
40104b7e:	ea03 0302 	and.w	r3, r3, r2
40104b82:	f003 3380 	and.w	r3, r3, #2155905152	; 0x80808080
40104b86:	2b00      	cmp	r3, #0
40104b88:	d0ed      	beq.n	40104b66 <strchr+0x40>
/home/zhangxiang/Downloads/op-tee2/OP-TEE/bios_qemu_tz_arm/libutils/isoc/newlib/strchr.c:87
40104b8a:	693b      	ldr	r3, [r7, #16]
40104b8c:	61fb      	str	r3, [r7, #28]
/home/zhangxiang/Downloads/op-tee2/OP-TEE/bios_qemu_tz_arm/libutils/isoc/newlib/strchr.c:88
40104b8e:	e003      	b.n	40104b98 <strchr+0x72>
/home/zhangxiang/Downloads/op-tee2/OP-TEE/bios_qemu_tz_arm/libutils/isoc/newlib/strchr.c:89
40104b90:	69fb      	ldr	r3, [r7, #28]
40104b92:	f103 0301 	add.w	r3, r3, #1
40104b96:	61fb      	str	r3, [r7, #28]
/home/zhangxiang/Downloads/op-tee2/OP-TEE/bios_qemu_tz_arm/libutils/isoc/newlib/strchr.c:88
40104b98:	69fb      	ldr	r3, [r7, #28]
40104b9a:	781b      	ldrb	r3, [r3, #0]
40104b9c:	2b00      	cmp	r3, #0
40104b9e:	d1f7      	bne.n	40104b90 <strchr+0x6a>
/home/zhangxiang/Downloads/op-tee2/OP-TEE/bios_qemu_tz_arm/libutils/isoc/newlib/strchr.c:90
40104ba0:	69fb      	ldr	r3, [r7, #28]
40104ba2:	e06d      	b.n	40104c80 <strchr+0x15a>
/home/zhangxiang/Downloads/op-tee2/OP-TEE/bios_qemu_tz_arm/libutils/isoc/newlib/strchr.c:96
40104ba4:	69fb      	ldr	r3, [r7, #28]
40104ba6:	781b      	ldrb	r3, [r3, #0]
40104ba8:	2b00      	cmp	r3, #0
40104baa:	d102      	bne.n	40104bb2 <strchr+0x8c>
/home/zhangxiang/Downloads/op-tee2/OP-TEE/bios_qemu_tz_arm/libutils/isoc/newlib/strchr.c:97
40104bac:	f04f 0300 	mov.w	r3, #0
40104bb0:	e066      	b.n	40104c80 <strchr+0x15a>
/home/zhangxiang/Downloads/op-tee2/OP-TEE/bios_qemu_tz_arm/libutils/isoc/newlib/strchr.c:98
40104bb2:	69fb      	ldr	r3, [r7, #28]
40104bb4:	781b      	ldrb	r3, [r3, #0]
40104bb6:	7bfa      	ldrb	r2, [r7, #15]
40104bb8:	429a      	cmp	r2, r3
40104bba:	d101      	bne.n	40104bc0 <strchr+0x9a>
/home/zhangxiang/Downloads/op-tee2/OP-TEE/bios_qemu_tz_arm/libutils/isoc/newlib/strchr.c:99
40104bbc:	69fb      	ldr	r3, [r7, #28]
40104bbe:	e05f      	b.n	40104c80 <strchr+0x15a>
/home/zhangxiang/Downloads/op-tee2/OP-TEE/bios_qemu_tz_arm/libutils/isoc/newlib/strchr.c:100
40104bc0:	69fb      	ldr	r3, [r7, #28]
40104bc2:	f103 0301 	add.w	r3, r3, #1
40104bc6:	61fb      	str	r3, [r7, #28]
/home/zhangxiang/Downloads/op-tee2/OP-TEE/bios_qemu_tz_arm/libutils/isoc/newlib/strchr.c:94
40104bc8:	69fb      	ldr	r3, [r7, #28]
40104bca:	f003 0303 	and.w	r3, r3, #3
40104bce:	2b00      	cmp	r3, #0
40104bd0:	d1e8      	bne.n	40104ba4 <strchr+0x7e>
/home/zhangxiang/Downloads/op-tee2/OP-TEE/bios_qemu_tz_arm/libutils/isoc/newlib/strchr.c:103
40104bd2:	7bfb      	ldrb	r3, [r7, #15]
40104bd4:	61bb      	str	r3, [r7, #24]
/home/zhangxiang/Downloads/op-tee2/OP-TEE/bios_qemu_tz_arm/libutils/isoc/newlib/strchr.c:104
40104bd6:	f04f 0308 	mov.w	r3, #8
40104bda:	617b      	str	r3, [r7, #20]
40104bdc:	e00b      	b.n	40104bf6 <strchr+0xd0>
/home/zhangxiang/Downloads/op-tee2/OP-TEE/bios_qemu_tz_arm/libutils/isoc/newlib/strchr.c:105 (discriminator 3)
40104bde:	69ba      	ldr	r2, [r7, #24]
40104be0:	697b      	ldr	r3, [r7, #20]
40104be2:	fa02 f303 	lsl.w	r3, r2, r3
40104be6:	69ba      	ldr	r2, [r7, #24]
40104be8:	ea43 0302 	orr.w	r3, r3, r2
40104bec:	61bb      	str	r3, [r7, #24]
/home/zhangxiang/Downloads/op-tee2/OP-TEE/bios_qemu_tz_arm/libutils/isoc/newlib/strchr.c:104 (discriminator 3)
40104bee:	697b      	ldr	r3, [r7, #20]
40104bf0:	ea4f 0343 	mov.w	r3, r3, lsl #1
40104bf4:	617b      	str	r3, [r7, #20]
/home/zhangxiang/Downloads/op-tee2/OP-TEE/bios_qemu_tz_arm/libutils/isoc/newlib/strchr.c:104 (discriminator 1)
40104bf6:	697b      	ldr	r3, [r7, #20]
40104bf8:	2b1f      	cmp	r3, #31
40104bfa:	d9f0      	bls.n	40104bde <strchr+0xb8>
/home/zhangxiang/Downloads/op-tee2/OP-TEE/bios_qemu_tz_arm/libutils/isoc/newlib/strchr.c:107
40104bfc:	69fb      	ldr	r3, [r7, #28]
40104bfe:	613b      	str	r3, [r7, #16]
/home/zhangxiang/Downloads/op-tee2/OP-TEE/bios_qemu_tz_arm/libutils/isoc/newlib/strchr.c:108
40104c00:	e003      	b.n	40104c0a <strchr+0xe4>
/home/zhangxiang/Downloads/op-tee2/OP-TEE/bios_qemu_tz_arm/libutils/isoc/newlib/strchr.c:109
40104c02:	693b      	ldr	r3, [r7, #16]
40104c04:	f103 0304 	add.w	r3, r3, #4
40104c08:	613b      	str	r3, [r7, #16]
/home/zhangxiang/Downloads/op-tee2/OP-TEE/bios_qemu_tz_arm/libutils/isoc/newlib/strchr.c:108
40104c0a:	693b      	ldr	r3, [r7, #16]
40104c0c:	681b      	ldr	r3, [r3, #0]
40104c0e:	f1a3 3201 	sub.w	r2, r3, #16843009	; 0x1010101
40104c12:	693b      	ldr	r3, [r7, #16]
40104c14:	681b      	ldr	r3, [r3, #0]
40104c16:	ea6f 0303 	mvn.w	r3, r3
40104c1a:	ea03 0302 	and.w	r3, r3, r2
40104c1e:	f003 3380 	and.w	r3, r3, #2155905152	; 0x80808080
40104c22:	2b00      	cmp	r3, #0
40104c24:	d113      	bne.n	40104c4e <strchr+0x128>
/home/zhangxiang/Downloads/op-tee2/OP-TEE/bios_qemu_tz_arm/libutils/isoc/newlib/strchr.c:108 (discriminator 1)
40104c26:	693b      	ldr	r3, [r7, #16]
40104c28:	681a      	ldr	r2, [r3, #0]
40104c2a:	69bb      	ldr	r3, [r7, #24]
40104c2c:	ea83 0302 	eor.w	r3, r3, r2
40104c30:	f1a3 3201 	sub.w	r2, r3, #16843009	; 0x1010101
40104c34:	693b      	ldr	r3, [r7, #16]
40104c36:	6819      	ldr	r1, [r3, #0]
40104c38:	69bb      	ldr	r3, [r7, #24]
40104c3a:	ea83 0301 	eor.w	r3, r3, r1
40104c3e:	ea6f 0303 	mvn.w	r3, r3
40104c42:	ea03 0302 	and.w	r3, r3, r2
40104c46:	f003 3380 	and.w	r3, r3, #2155905152	; 0x80808080
40104c4a:	2b00      	cmp	r3, #0
40104c4c:	d0d9      	beq.n	40104c02 <strchr+0xdc>
/home/zhangxiang/Downloads/op-tee2/OP-TEE/bios_qemu_tz_arm/libutils/isoc/newlib/strchr.c:115
40104c4e:	693b      	ldr	r3, [r7, #16]
40104c50:	61fb      	str	r3, [r7, #28]
/home/zhangxiang/Downloads/op-tee2/OP-TEE/bios_qemu_tz_arm/libutils/isoc/newlib/strchr.c:119
40104c52:	e003      	b.n	40104c5c <strchr+0x136>
/home/zhangxiang/Downloads/op-tee2/OP-TEE/bios_qemu_tz_arm/libutils/isoc/newlib/strchr.c:120
40104c54:	69fb      	ldr	r3, [r7, #28]
40104c56:	f103 0301 	add.w	r3, r3, #1
40104c5a:	61fb      	str	r3, [r7, #28]
/home/zhangxiang/Downloads/op-tee2/OP-TEE/bios_qemu_tz_arm/libutils/isoc/newlib/strchr.c:119
40104c5c:	69fb      	ldr	r3, [r7, #28]
40104c5e:	781b      	ldrb	r3, [r3, #0]
40104c60:	2b00      	cmp	r3, #0
40104c62:	d004      	beq.n	40104c6e <strchr+0x148>
/home/zhangxiang/Downloads/op-tee2/OP-TEE/bios_qemu_tz_arm/libutils/isoc/newlib/strchr.c:119 (discriminator 1)
40104c64:	69fb      	ldr	r3, [r7, #28]
40104c66:	781b      	ldrb	r3, [r3, #0]
40104c68:	7bfa      	ldrb	r2, [r7, #15]
40104c6a:	429a      	cmp	r2, r3
40104c6c:	d1f2      	bne.n	40104c54 <strchr+0x12e>
/home/zhangxiang/Downloads/op-tee2/OP-TEE/bios_qemu_tz_arm/libutils/isoc/newlib/strchr.c:121
40104c6e:	69fb      	ldr	r3, [r7, #28]
40104c70:	781b      	ldrb	r3, [r3, #0]
40104c72:	7bfa      	ldrb	r2, [r7, #15]
40104c74:	429a      	cmp	r2, r3
40104c76:	d101      	bne.n	40104c7c <strchr+0x156>
/home/zhangxiang/Downloads/op-tee2/OP-TEE/bios_qemu_tz_arm/libutils/isoc/newlib/strchr.c:122
40104c78:	69fb      	ldr	r3, [r7, #28]
40104c7a:	e001      	b.n	40104c80 <strchr+0x15a>
/home/zhangxiang/Downloads/op-tee2/OP-TEE/bios_qemu_tz_arm/libutils/isoc/newlib/strchr.c:123
40104c7c:	f04f 0300 	mov.w	r3, #0
/home/zhangxiang/Downloads/op-tee2/OP-TEE/bios_qemu_tz_arm/libutils/isoc/newlib/strchr.c:124
40104c80:	4618      	mov	r0, r3
40104c82:	f107 0724 	add.w	r7, r7, #36	; 0x24
40104c86:	46bd      	mov	sp, r7
40104c88:	f85d 7b04 	ldr.w	r7, [sp], #4
40104c8c:	4770      	bx	lr
	...

40104c90 <__aeabi_ldivmod>:
__aeabi_ldivmod():
/home/zhangxiang/Downloads/op-tee2/OP-TEE/bios_qemu_tz_arm/libutils/isoc/arch/arm32/aeabi_ldivmod_asm.S:40
40104c90:	e92d5000 	push	{ip, lr}
/home/zhangxiang/Downloads/op-tee2/OP-TEE/bios_qemu_tz_arm/libutils/isoc/arch/arm32/aeabi_ldivmod_asm.S:41
40104c94:	e92d000f 	push	{r0, r1, r2, r3}
/home/zhangxiang/Downloads/op-tee2/OP-TEE/bios_qemu_tz_arm/libutils/isoc/arch/arm32/aeabi_ldivmod_asm.S:42
40104c98:	e1a0000d 	mov	r0, sp
/home/zhangxiang/Downloads/op-tee2/OP-TEE/bios_qemu_tz_arm/libutils/isoc/arch/arm32/aeabi_ldivmod_asm.S:43
40104c9c:	e59fe024 	ldr	lr, [pc, #36]	; 40104cc8 <__aeabi_uldivmod+0x1c>
/home/zhangxiang/Downloads/op-tee2/OP-TEE/bios_qemu_tz_arm/libutils/isoc/arch/arm32/aeabi_ldivmod_asm.S:44
40104ca0:	e12fff3e 	blx	lr
/home/zhangxiang/Downloads/op-tee2/OP-TEE/bios_qemu_tz_arm/libutils/isoc/arch/arm32/aeabi_ldivmod_asm.S:45
40104ca4:	e8bd000f 	pop	{r0, r1, r2, r3}
/home/zhangxiang/Downloads/op-tee2/OP-TEE/bios_qemu_tz_arm/libutils/isoc/arch/arm32/aeabi_ldivmod_asm.S:46
40104ca8:	e8bd9000 	pop	{ip, pc}

40104cac <__aeabi_uldivmod>:
__aeabi_uldivmod():
/home/zhangxiang/Downloads/op-tee2/OP-TEE/bios_qemu_tz_arm/libutils/isoc/arch/arm32/aeabi_ldivmod_asm.S:55
40104cac:	e92d5000 	push	{ip, lr}
/home/zhangxiang/Downloads/op-tee2/OP-TEE/bios_qemu_tz_arm/libutils/isoc/arch/arm32/aeabi_ldivmod_asm.S:56
40104cb0:	e92d000f 	push	{r0, r1, r2, r3}
/home/zhangxiang/Downloads/op-tee2/OP-TEE/bios_qemu_tz_arm/libutils/isoc/arch/arm32/aeabi_ldivmod_asm.S:57
40104cb4:	e1a0000d 	mov	r0, sp
/home/zhangxiang/Downloads/op-tee2/OP-TEE/bios_qemu_tz_arm/libutils/isoc/arch/arm32/aeabi_ldivmod_asm.S:58
40104cb8:	e59fe00c 	ldr	lr, [pc, #12]	; 40104ccc <__aeabi_uldivmod+0x20>
/home/zhangxiang/Downloads/op-tee2/OP-TEE/bios_qemu_tz_arm/libutils/isoc/arch/arm32/aeabi_ldivmod_asm.S:59
40104cbc:	e12fff3e 	blx	lr
/home/zhangxiang/Downloads/op-tee2/OP-TEE/bios_qemu_tz_arm/libutils/isoc/arch/arm32/aeabi_ldivmod_asm.S:60
40104cc0:	e8bd000f 	pop	{r0, r1, r2, r3}
/home/zhangxiang/Downloads/op-tee2/OP-TEE/bios_qemu_tz_arm/libutils/isoc/arch/arm32/aeabi_ldivmod_asm.S:61
40104cc4:	e8bd9000 	pop	{ip, pc}
/home/zhangxiang/Downloads/op-tee2/OP-TEE/bios_qemu_tz_arm/libutils/isoc/arch/arm32/aeabi_ldivmod_asm.S:43
40104cc8:	40104e9b 	.word	0x40104e9b
/home/zhangxiang/Downloads/op-tee2/OP-TEE/bios_qemu_tz_arm/libutils/isoc/arch/arm32/aeabi_ldivmod_asm.S:58
40104ccc:	40104e29 	.word	0x40104e29

40104cd0 <division_lqr>:
division_lqr():
/home/zhangxiang/Downloads/op-tee2/OP-TEE/bios_qemu_tz_arm/libutils/isoc/arch/arm32/aeabi_ldivmod.c:42
40104cd0:	e96d 4702 	strd	r4, r7, [sp, #-8]!
40104cd4:	b088      	sub	sp, #32
40104cd6:	af00      	add	r7, sp, #0
40104cd8:	e9c7 0102 	strd	r0, r1, [r7, #8]
40104cdc:	e9c7 2300 	strd	r2, r3, [r7]
/home/zhangxiang/Downloads/op-tee2/OP-TEE/bios_qemu_tz_arm/libutils/isoc/arch/arm32/aeabi_ldivmod.c:43
40104ce0:	f04f 0301 	mov.w	r3, #1
40104ce4:	f04f 0400 	mov.w	r4, #0
40104ce8:	e9c7 3406 	strd	r3, r4, [r7, #24]
40104cec:	f04f 0300 	mov.w	r3, #0
40104cf0:	f04f 0400 	mov.w	r4, #0
40104cf4:	e9c7 3404 	strd	r3, r4, [r7, #16]
/home/zhangxiang/Downloads/op-tee2/OP-TEE/bios_qemu_tz_arm/libutils/isoc/arch/arm32/aeabi_ldivmod.c:44
40104cf8:	e9d7 3400 	ldrd	r3, r4, [r7]
40104cfc:	4323      	orrs	r3, r4
40104cfe:	d115      	bne.n	40104d2c <division_lqr+0x5c>
/home/zhangxiang/Downloads/op-tee2/OP-TEE/bios_qemu_tz_arm/libutils/isoc/arch/arm32/aeabi_ldivmod.c:45
40104d00:	6aba      	ldr	r2, [r7, #40]	; 0x28
40104d02:	f04f 33ff 	mov.w	r3, #4294967295	; 0xffffffff
40104d06:	f04f 34ff 	mov.w	r4, #4294967295	; 0xffffffff
40104d0a:	e9c2 3402 	strd	r3, r4, [r2, #8]
/home/zhangxiang/Downloads/op-tee2/OP-TEE/bios_qemu_tz_arm/libutils/isoc/arch/arm32/aeabi_ldivmod.c:46
40104d0e:	e04f      	b.n	40104db0 <division_lqr+0xe0>
/home/zhangxiang/Downloads/op-tee2/OP-TEE/bios_qemu_tz_arm/libutils/isoc/arch/arm32/aeabi_ldivmod.c:50
40104d10:	e9d7 3406 	ldrd	r3, r4, [r7, #24]
40104d14:	18db      	adds	r3, r3, r3
40104d16:	eb44 0404 	adc.w	r4, r4, r4
40104d1a:	e9c7 3406 	strd	r3, r4, [r7, #24]
/home/zhangxiang/Downloads/op-tee2/OP-TEE/bios_qemu_tz_arm/libutils/isoc/arch/arm32/aeabi_ldivmod.c:51
40104d1e:	e9d7 3400 	ldrd	r3, r4, [r7]
40104d22:	18db      	adds	r3, r3, r3
40104d24:	eb44 0404 	adc.w	r4, r4, r4
40104d28:	e9c7 3400 	strd	r3, r4, [r7]
/home/zhangxiang/Downloads/op-tee2/OP-TEE/bios_qemu_tz_arm/libutils/isoc/arch/arm32/aeabi_ldivmod.c:49
40104d2c:	e9d7 3400 	ldrd	r3, r4, [r7]
40104d30:	2b00      	cmp	r3, #0
40104d32:	f174 0300 	sbcs.w	r3, r4, #0
40104d36:	daeb      	bge.n	40104d10 <division_lqr+0x40>
/home/zhangxiang/Downloads/op-tee2/OP-TEE/bios_qemu_tz_arm/libutils/isoc/arch/arm32/aeabi_ldivmod.c:54
40104d38:	e02c      	b.n	40104d94 <division_lqr+0xc4>
/home/zhangxiang/Downloads/op-tee2/OP-TEE/bios_qemu_tz_arm/libutils/isoc/arch/arm32/aeabi_ldivmod.c:55
40104d3a:	e9d7 3404 	ldrd	r3, r4, [r7, #16]
40104d3e:	18db      	adds	r3, r3, r3
40104d40:	eb44 0404 	adc.w	r4, r4, r4
40104d44:	e9c7 3404 	strd	r3, r4, [r7, #16]
/home/zhangxiang/Downloads/op-tee2/OP-TEE/bios_qemu_tz_arm/libutils/isoc/arch/arm32/aeabi_ldivmod.c:56
40104d48:	e9d7 1202 	ldrd	r1, r2, [r7, #8]
40104d4c:	e9d7 3400 	ldrd	r3, r4, [r7]
40104d50:	42a2      	cmp	r2, r4
40104d52:	bf08      	it	eq
40104d54:	4299      	cmpeq	r1, r3
40104d56:	d30f      	bcc.n	40104d78 <division_lqr+0xa8>
/home/zhangxiang/Downloads/op-tee2/OP-TEE/bios_qemu_tz_arm/libutils/isoc/arch/arm32/aeabi_ldivmod.c:57
40104d58:	e9d7 1202 	ldrd	r1, r2, [r7, #8]
40104d5c:	e9d7 3400 	ldrd	r3, r4, [r7]
40104d60:	1acb      	subs	r3, r1, r3
40104d62:	eb62 0404 	sbc.w	r4, r2, r4
40104d66:	e9c7 3402 	strd	r3, r4, [r7, #8]
/home/zhangxiang/Downloads/op-tee2/OP-TEE/bios_qemu_tz_arm/libutils/isoc/arch/arm32/aeabi_ldivmod.c:58
40104d6a:	e9d7 3404 	ldrd	r3, r4, [r7, #16]
40104d6e:	3301      	adds	r3, #1
40104d70:	f144 0400 	adc.w	r4, r4, #0
40104d74:	e9c7 3404 	strd	r3, r4, [r7, #16]
/home/zhangxiang/Downloads/op-tee2/OP-TEE/bios_qemu_tz_arm/libutils/isoc/arch/arm32/aeabi_ldivmod.c:60
40104d78:	e9d7 3400 	ldrd	r3, r4, [r7]
40104d7c:	0864      	lsrs	r4, r4, #1
40104d7e:	ea4f 0333 	mov.w	r3, r3, rrx
40104d82:	e9c7 3400 	strd	r3, r4, [r7]
/home/zhangxiang/Downloads/op-tee2/OP-TEE/bios_qemu_tz_arm/libutils/isoc/arch/arm32/aeabi_ldivmod.c:61
40104d86:	e9d7 3406 	ldrd	r3, r4, [r7, #24]
40104d8a:	0864      	lsrs	r4, r4, #1
40104d8c:	ea4f 0333 	mov.w	r3, r3, rrx
40104d90:	e9c7 3406 	strd	r3, r4, [r7, #24]
/home/zhangxiang/Downloads/op-tee2/OP-TEE/bios_qemu_tz_arm/libutils/isoc/arch/arm32/aeabi_ldivmod.c:54
40104d94:	e9d7 3406 	ldrd	r3, r4, [r7, #24]
40104d98:	4323      	orrs	r3, r4
40104d9a:	d1ce      	bne.n	40104d3a <division_lqr+0x6a>
/home/zhangxiang/Downloads/op-tee2/OP-TEE/bios_qemu_tz_arm/libutils/isoc/arch/arm32/aeabi_ldivmod.c:63
40104d9c:	6aba      	ldr	r2, [r7, #40]	; 0x28
40104d9e:	e9d7 3402 	ldrd	r3, r4, [r7, #8]
40104da2:	e9c2 3402 	strd	r3, r4, [r2, #8]
/home/zhangxiang/Downloads/op-tee2/OP-TEE/bios_qemu_tz_arm/libutils/isoc/arch/arm32/aeabi_ldivmod.c:64
40104da6:	6aba      	ldr	r2, [r7, #40]	; 0x28
40104da8:	e9d7 3404 	ldrd	r3, r4, [r7, #16]
40104dac:	e9c2 3400 	strd	r3, r4, [r2]
/home/zhangxiang/Downloads/op-tee2/OP-TEE/bios_qemu_tz_arm/libutils/isoc/arch/arm32/aeabi_ldivmod.c:65
40104db0:	f107 0720 	add.w	r7, r7, #32
40104db4:	46bd      	mov	sp, r7
40104db6:	e9dd 4700 	ldrd	r4, r7, [sp]
40104dba:	b002      	add	sp, #8
40104dbc:	4770      	bx	lr

40104dbe <ul_div_qr>:
ul_div_qr():
/home/zhangxiang/Downloads/op-tee2/OP-TEE/bios_qemu_tz_arm/libutils/isoc/arch/arm32/aeabi_ldivmod.c:69
40104dbe:	f84d 4d0c 	str.w	r4, [sp, #-12]!
40104dc2:	e9cd 7e01 	strd	r7, lr, [sp, #4]
40104dc6:	b087      	sub	sp, #28
40104dc8:	af02      	add	r7, sp, #8
40104dca:	e9c7 0102 	strd	r0, r1, [r7, #8]
40104dce:	e9c7 2300 	strd	r2, r3, [r7]
/home/zhangxiang/Downloads/op-tee2/OP-TEE/bios_qemu_tz_arm/libutils/isoc/arch/arm32/aeabi_ldivmod.c:71
40104dd2:	6a3b      	ldr	r3, [r7, #32]
40104dd4:	9300      	str	r3, [sp, #0]
40104dd6:	e9d7 2300 	ldrd	r2, r3, [r7]
40104dda:	e9d7 0102 	ldrd	r0, r1, [r7, #8]
40104dde:	f7ff ff77 	bl	40104cd0 <division_lqr>
/home/zhangxiang/Downloads/op-tee2/OP-TEE/bios_qemu_tz_arm/libutils/isoc/arch/arm32/aeabi_ldivmod.c:74
40104de2:	6a3b      	ldr	r3, [r7, #32]
40104de4:	691b      	ldr	r3, [r3, #16]
40104de6:	2b00      	cmp	r3, #0
40104de8:	d008      	beq.n	40104dfc <ul_div_qr+0x3e>
/home/zhangxiang/Downloads/op-tee2/OP-TEE/bios_qemu_tz_arm/libutils/isoc/arch/arm32/aeabi_ldivmod.c:75
40104dea:	6a3b      	ldr	r3, [r7, #32]
40104dec:	e9d3 3400 	ldrd	r3, r4, [r3]
40104df0:	425b      	negs	r3, r3
40104df2:	eb64 0444 	sbc.w	r4, r4, r4, lsl #1
40104df6:	6a3a      	ldr	r2, [r7, #32]
40104df8:	e9c2 3400 	strd	r3, r4, [r2]
/home/zhangxiang/Downloads/op-tee2/OP-TEE/bios_qemu_tz_arm/libutils/isoc/arch/arm32/aeabi_ldivmod.c:76
40104dfc:	6a3b      	ldr	r3, [r7, #32]
40104dfe:	695b      	ldr	r3, [r3, #20]
40104e00:	2b00      	cmp	r3, #0
40104e02:	d008      	beq.n	40104e16 <ul_div_qr+0x58>
/home/zhangxiang/Downloads/op-tee2/OP-TEE/bios_qemu_tz_arm/libutils/isoc/arch/arm32/aeabi_ldivmod.c:77
40104e04:	6a3b      	ldr	r3, [r7, #32]
40104e06:	e9d3 3402 	ldrd	r3, r4, [r3, #8]
40104e0a:	425b      	negs	r3, r3
40104e0c:	eb64 0444 	sbc.w	r4, r4, r4, lsl #1
40104e10:	6a3a      	ldr	r2, [r7, #32]
40104e12:	e9c2 3402 	strd	r3, r4, [r2, #8]
/home/zhangxiang/Downloads/op-tee2/OP-TEE/bios_qemu_tz_arm/libutils/isoc/arch/arm32/aeabi_ldivmod.c:78
40104e16:	bf00      	nop
40104e18:	f107 0714 	add.w	r7, r7, #20
40104e1c:	46bd      	mov	sp, r7
40104e1e:	e9dd 4700 	ldrd	r4, r7, [sp]
40104e22:	b002      	add	sp, #8
40104e24:	f85d fb04 	ldr.w	pc, [sp], #4

40104e28 <__ul_divmod>:
__ul_divmod():
/home/zhangxiang/Downloads/op-tee2/OP-TEE/bios_qemu_tz_arm/libutils/isoc/arch/arm32/aeabi_ldivmod.c:88
40104e28:	f84d 4d0c 	str.w	r4, [sp, #-12]!
40104e2c:	e9cd 7e01 	strd	r7, lr, [sp, #4]
40104e30:	b08f      	sub	sp, #60	; 0x3c
40104e32:	af02      	add	r7, sp, #8
40104e34:	6078      	str	r0, [r7, #4]
/home/zhangxiang/Downloads/op-tee2/OP-TEE/bios_qemu_tz_arm/libutils/isoc/arch/arm32/aeabi_ldivmod.c:89
40104e36:	687b      	ldr	r3, [r7, #4]
40104e38:	e9d3 3400 	ldrd	r3, r4, [r3]
40104e3c:	e9c7 340a 	strd	r3, r4, [r7, #40]	; 0x28
/home/zhangxiang/Downloads/op-tee2/OP-TEE/bios_qemu_tz_arm/libutils/isoc/arch/arm32/aeabi_ldivmod.c:90
40104e40:	687b      	ldr	r3, [r7, #4]
40104e42:	e9d3 3402 	ldrd	r3, r4, [r3, #8]
40104e46:	e9c7 3408 	strd	r3, r4, [r7, #32]
/home/zhangxiang/Downloads/op-tee2/OP-TEE/bios_qemu_tz_arm/libutils/isoc/arch/arm32/aeabi_ldivmod.c:91
40104e4a:	f107 0208 	add.w	r2, r7, #8
40104e4e:	f04f 0300 	mov.w	r3, #0
40104e52:	f04f 0400 	mov.w	r4, #0
40104e56:	e9c2 3400 	strd	r3, r4, [r2]
40104e5a:	e9c2 3402 	strd	r3, r4, [r2, #8]
40104e5e:	e9c2 3404 	strd	r3, r4, [r2, #16]
/home/zhangxiang/Downloads/op-tee2/OP-TEE/bios_qemu_tz_arm/libutils/isoc/arch/arm32/aeabi_ldivmod.c:93
40104e62:	f107 0308 	add.w	r3, r7, #8
40104e66:	9300      	str	r3, [sp, #0]
40104e68:	e9d7 2308 	ldrd	r2, r3, [r7, #32]
40104e6c:	e9d7 010a 	ldrd	r0, r1, [r7, #40]	; 0x28
40104e70:	f7ff ffa5 	bl	40104dbe <ul_div_qr>
/home/zhangxiang/Downloads/op-tee2/OP-TEE/bios_qemu_tz_arm/libutils/isoc/arch/arm32/aeabi_ldivmod.c:95
40104e74:	e9d7 3402 	ldrd	r3, r4, [r7, #8]
40104e78:	687a      	ldr	r2, [r7, #4]
40104e7a:	e9c2 3400 	strd	r3, r4, [r2]
/home/zhangxiang/Downloads/op-tee2/OP-TEE/bios_qemu_tz_arm/libutils/isoc/arch/arm32/aeabi_ldivmod.c:96
40104e7e:	e9d7 3404 	ldrd	r3, r4, [r7, #16]
40104e82:	687a      	ldr	r2, [r7, #4]
40104e84:	e9c2 3402 	strd	r3, r4, [r2, #8]
/home/zhangxiang/Downloads/op-tee2/OP-TEE/bios_qemu_tz_arm/libutils/isoc/arch/arm32/aeabi_ldivmod.c:97
40104e88:	bf00      	nop
40104e8a:	f107 0734 	add.w	r7, r7, #52	; 0x34
40104e8e:	46bd      	mov	sp, r7
40104e90:	e9dd 4700 	ldrd	r4, r7, [sp]
40104e94:	b002      	add	sp, #8
40104e96:	f85d fb04 	ldr.w	pc, [sp], #4

40104e9a <__l_divmod>:
__l_divmod():
/home/zhangxiang/Downloads/op-tee2/OP-TEE/bios_qemu_tz_arm/libutils/isoc/arch/arm32/aeabi_ldivmod.c:107
40104e9a:	f84d 4d0c 	str.w	r4, [sp, #-12]!
40104e9e:	e9cd 7e01 	strd	r7, lr, [sp, #4]
40104ea2:	b08f      	sub	sp, #60	; 0x3c
40104ea4:	af02      	add	r7, sp, #8
40104ea6:	6078      	str	r0, [r7, #4]
/home/zhangxiang/Downloads/op-tee2/OP-TEE/bios_qemu_tz_arm/libutils/isoc/arch/arm32/aeabi_ldivmod.c:108
40104ea8:	687b      	ldr	r3, [r7, #4]
40104eaa:	e9d3 3400 	ldrd	r3, r4, [r3]
40104eae:	e9c7 340a 	strd	r3, r4, [r7, #40]	; 0x28
/home/zhangxiang/Downloads/op-tee2/OP-TEE/bios_qemu_tz_arm/libutils/isoc/arch/arm32/aeabi_ldivmod.c:109
40104eb2:	687b      	ldr	r3, [r7, #4]
40104eb4:	e9d3 3402 	ldrd	r3, r4, [r3, #8]
40104eb8:	e9c7 3408 	strd	r3, r4, [r7, #32]
/home/zhangxiang/Downloads/op-tee2/OP-TEE/bios_qemu_tz_arm/libutils/isoc/arch/arm32/aeabi_ldivmod.c:110
40104ebc:	f107 0208 	add.w	r2, r7, #8
40104ec0:	f04f 0300 	mov.w	r3, #0
40104ec4:	f04f 0400 	mov.w	r4, #0
40104ec8:	e9c2 3400 	strd	r3, r4, [r2]
40104ecc:	e9c2 3402 	strd	r3, r4, [r2, #8]
40104ed0:	e9c2 3404 	strd	r3, r4, [r2, #16]
/home/zhangxiang/Downloads/op-tee2/OP-TEE/bios_qemu_tz_arm/libutils/isoc/arch/arm32/aeabi_ldivmod.c:112
40104ed4:	e9d7 340a 	ldrd	r3, r4, [r7, #40]	; 0x28
40104ed8:	2b00      	cmp	r3, #0
40104eda:	f174 0300 	sbcs.w	r3, r4, #0
40104ede:	da05      	bge.n	40104eec <__l_divmod+0x52>
/home/zhangxiang/Downloads/op-tee2/OP-TEE/bios_qemu_tz_arm/libutils/isoc/arch/arm32/aeabi_ldivmod.c:112 (discriminator 1)
40104ee0:	e9d7 3408 	ldrd	r3, r4, [r7, #32]
40104ee4:	2b01      	cmp	r3, #1
40104ee6:	f174 0300 	sbcs.w	r3, r4, #0
40104eea:	da0b      	bge.n	40104f04 <__l_divmod+0x6a>
/home/zhangxiang/Downloads/op-tee2/OP-TEE/bios_qemu_tz_arm/libutils/isoc/arch/arm32/aeabi_ldivmod.c:112 (discriminator 3)
40104eec:	e9d7 340a 	ldrd	r3, r4, [r7, #40]	; 0x28
40104ef0:	2b01      	cmp	r3, #1
40104ef2:	f174 0300 	sbcs.w	r3, r4, #0
40104ef6:	db08      	blt.n	40104f0a <__l_divmod+0x70>
/home/zhangxiang/Downloads/op-tee2/OP-TEE/bios_qemu_tz_arm/libutils/isoc/arch/arm32/aeabi_ldivmod.c:113
40104ef8:	e9d7 3408 	ldrd	r3, r4, [r7, #32]
40104efc:	2b00      	cmp	r3, #0
40104efe:	f174 0300 	sbcs.w	r3, r4, #0
40104f02:	da02      	bge.n	40104f0a <__l_divmod+0x70>
/home/zhangxiang/Downloads/op-tee2/OP-TEE/bios_qemu_tz_arm/libutils/isoc/arch/arm32/aeabi_ldivmod.c:114
40104f04:	f04f 0301 	mov.w	r3, #1
40104f08:	61bb      	str	r3, [r7, #24]
/home/zhangxiang/Downloads/op-tee2/OP-TEE/bios_qemu_tz_arm/libutils/isoc/arch/arm32/aeabi_ldivmod.c:115
40104f0a:	e9d7 340a 	ldrd	r3, r4, [r7, #40]	; 0x28
40104f0e:	2b00      	cmp	r3, #0
40104f10:	f174 0300 	sbcs.w	r3, r4, #0
40104f14:	da09      	bge.n	40104f2a <__l_divmod+0x90>
/home/zhangxiang/Downloads/op-tee2/OP-TEE/bios_qemu_tz_arm/libutils/isoc/arch/arm32/aeabi_ldivmod.c:116
40104f16:	e9d7 340a 	ldrd	r3, r4, [r7, #40]	; 0x28
40104f1a:	425b      	negs	r3, r3
40104f1c:	eb64 0444 	sbc.w	r4, r4, r4, lsl #1
40104f20:	e9c7 340a 	strd	r3, r4, [r7, #40]	; 0x28
/home/zhangxiang/Downloads/op-tee2/OP-TEE/bios_qemu_tz_arm/libutils/isoc/arch/arm32/aeabi_ldivmod.c:117
40104f24:	f04f 0301 	mov.w	r3, #1
40104f28:	61fb      	str	r3, [r7, #28]
/home/zhangxiang/Downloads/op-tee2/OP-TEE/bios_qemu_tz_arm/libutils/isoc/arch/arm32/aeabi_ldivmod.c:119
40104f2a:	e9d7 3408 	ldrd	r3, r4, [r7, #32]
40104f2e:	2b00      	cmp	r3, #0
40104f30:	f174 0300 	sbcs.w	r3, r4, #0
40104f34:	da06      	bge.n	40104f44 <__l_divmod+0xaa>
/home/zhangxiang/Downloads/op-tee2/OP-TEE/bios_qemu_tz_arm/libutils/isoc/arch/arm32/aeabi_ldivmod.c:120
40104f36:	e9d7 3408 	ldrd	r3, r4, [r7, #32]
40104f3a:	425b      	negs	r3, r3
40104f3c:	eb64 0444 	sbc.w	r4, r4, r4, lsl #1
40104f40:	e9c7 3408 	strd	r3, r4, [r7, #32]
/home/zhangxiang/Downloads/op-tee2/OP-TEE/bios_qemu_tz_arm/libutils/isoc/arch/arm32/aeabi_ldivmod.c:122
40104f44:	e9d7 010a 	ldrd	r0, r1, [r7, #40]	; 0x28
40104f48:	e9d7 3408 	ldrd	r3, r4, [r7, #32]
40104f4c:	f107 0208 	add.w	r2, r7, #8
40104f50:	9200      	str	r2, [sp, #0]
40104f52:	461a      	mov	r2, r3
40104f54:	4623      	mov	r3, r4
40104f56:	f7ff ff32 	bl	40104dbe <ul_div_qr>
/home/zhangxiang/Downloads/op-tee2/OP-TEE/bios_qemu_tz_arm/libutils/isoc/arch/arm32/aeabi_ldivmod.c:124
40104f5a:	e9d7 3402 	ldrd	r3, r4, [r7, #8]
40104f5e:	687a      	ldr	r2, [r7, #4]
40104f60:	e9c2 3400 	strd	r3, r4, [r2]
/home/zhangxiang/Downloads/op-tee2/OP-TEE/bios_qemu_tz_arm/libutils/isoc/arch/arm32/aeabi_ldivmod.c:125
40104f64:	e9d7 3404 	ldrd	r3, r4, [r7, #16]
40104f68:	687a      	ldr	r2, [r7, #4]
40104f6a:	e9c2 3402 	strd	r3, r4, [r2, #8]
/home/zhangxiang/Downloads/op-tee2/OP-TEE/bios_qemu_tz_arm/libutils/isoc/arch/arm32/aeabi_ldivmod.c:126
40104f6e:	bf00      	nop
40104f70:	f107 0734 	add.w	r7, r7, #52	; 0x34
40104f74:	46bd      	mov	sp, r7
40104f76:	e9dd 4700 	ldrd	r4, r7, [sp]
40104f7a:	b002      	add	sp, #8
40104f7c:	f85d fb04 	ldr.w	pc, [sp], #4
